                              1 ;--------------------------------------------------------
                              2 ; File Created by SDCC : free open source ANSI-C Compiler
                              3 ; Version 3.0.1 #6121 (Nov 17 2015) (CYGWIN)
                              4 ; This file was generated Sat Jan 27 13:25:23 2018
                              5 ;--------------------------------------------------------
                              6 	.module collect
                              7 	.optsdcc -mmcs51 --model-large
                              8 	
                              9 ;--------------------------------------------------------
                             10 ; Public variables in this module
                             11 ;--------------------------------------------------------
                             12 	.globl _collect_purge
                             13 	.globl _IRCON2_P2IF
                             14 	.globl _IRCON2_UTX0IF
                             15 	.globl _IRCON2_UTX1IF
                             16 	.globl _IRCON2_P1IF
                             17 	.globl _IRCON2_WDTIF
                             18 	.globl _CY
                             19 	.globl _AC
                             20 	.globl _F0
                             21 	.globl _RS1
                             22 	.globl _RS0
                             23 	.globl _OV
                             24 	.globl _F1
                             25 	.globl _P
                             26 	.globl _IRCON_DMAIF
                             27 	.globl _IRCON_T1IF
                             28 	.globl _IRCON_T2IF
                             29 	.globl _IRCON_T3IF
                             30 	.globl _IRCON_T4IF
                             31 	.globl _IRCON_P0IF
                             32 	.globl _IRCON_STIF
                             33 	.globl _IEN1_DMAIE
                             34 	.globl _IEN1_T1IE
                             35 	.globl _IEN1_T2IE
                             36 	.globl _IEN1_T3IE
                             37 	.globl _IEN1_T4IE
                             38 	.globl _IEN1_P0IE
                             39 	.globl _IEN0_RFERRIE
                             40 	.globl _IEN0_ADCIE
                             41 	.globl _IEN0_URX0IE
                             42 	.globl _IEN0_URX1IE
                             43 	.globl _IEN0_ENCIE
                             44 	.globl _IEN0_STIE
                             45 	.globl _IEN0_EA
                             46 	.globl _EA
                             47 	.globl _P2_4
                             48 	.globl _P2_3
                             49 	.globl _P2_2
                             50 	.globl _P2_1
                             51 	.globl _P2_0
                             52 	.globl _S0CON_ENCIF_0
                             53 	.globl _S0CON_ENCIF_1
                             54 	.globl _P1_7
                             55 	.globl _P1_6
                             56 	.globl _P1_5
                             57 	.globl _P1_4
                             58 	.globl _P1_3
                             59 	.globl _P1_2
                             60 	.globl _P1_1
                             61 	.globl _P1_0
                             62 	.globl _TCON_IT0
                             63 	.globl _TCON_RFERRIF
                             64 	.globl _TCON_IT1
                             65 	.globl _TCON_URX0IF
                             66 	.globl _TCON_ADCIF
                             67 	.globl _TCON_URX1IF
                             68 	.globl _P0_0
                             69 	.globl _P0_1
                             70 	.globl _P0_2
                             71 	.globl _P0_3
                             72 	.globl _P0_4
                             73 	.globl _P0_5
                             74 	.globl _P0_6
                             75 	.globl _P0_7
                             76 	.globl _P2DIR
                             77 	.globl _P1DIR
                             78 	.globl _P0DIR
                             79 	.globl _U1GCR
                             80 	.globl _U1UCR
                             81 	.globl _U1BAUD
                             82 	.globl _U1BUF
                             83 	.globl _U1CSR
                             84 	.globl _P2INP
                             85 	.globl _P1INP
                             86 	.globl _P2SEL
                             87 	.globl _P1SEL
                             88 	.globl _P0SEL
                             89 	.globl _ADCCFG
                             90 	.globl _PERCFG
                             91 	.globl _B
                             92 	.globl _T4CC1
                             93 	.globl _T4CCTL1
                             94 	.globl _T4CC0
                             95 	.globl _T4CCTL0
                             96 	.globl _T4CTL
                             97 	.globl _T4CNT
                             98 	.globl _RFIF
                             99 	.globl _IRCON2
                            100 	.globl _T1CCTL2
                            101 	.globl _T1CCTL1
                            102 	.globl _T1CCTL0
                            103 	.globl _T1CTL
                            104 	.globl _T1CNTH
                            105 	.globl _T1CNTL
                            106 	.globl _RFST
                            107 	.globl _ACC
                            108 	.globl _T1CC2H
                            109 	.globl _T1CC2L
                            110 	.globl _T1CC1H
                            111 	.globl _T1CC1L
                            112 	.globl _T1CC0H
                            113 	.globl _T1CC0L
                            114 	.globl _RFD
                            115 	.globl _TIMIF
                            116 	.globl _DMAREQ
                            117 	.globl _DMAARM
                            118 	.globl _DMA0CFGH
                            119 	.globl _DMA0CFGL
                            120 	.globl _DMA1CFGH
                            121 	.globl _DMA1CFGL
                            122 	.globl _DMAIRQ
                            123 	.globl _PSW
                            124 	.globl _T3CC1
                            125 	.globl _T3CCTL1
                            126 	.globl _T3CC0
                            127 	.globl _T3CCTL0
                            128 	.globl _T3CTL
                            129 	.globl _T3CNT
                            130 	.globl _WDCTL
                            131 	.globl _T2CON
                            132 	.globl _MEMCTR
                            133 	.globl _CLKCON
                            134 	.globl _U0GCR
                            135 	.globl _U0UCR
                            136 	.globl _T2CNF
                            137 	.globl _U0BAUD
                            138 	.globl _U0BUF
                            139 	.globl _IRCON
                            140 	.globl _SLEEP
                            141 	.globl _RNDH
                            142 	.globl _RNDL
                            143 	.globl _ADCH
                            144 	.globl _ADCL
                            145 	.globl _IP1
                            146 	.globl _IEN1
                            147 	.globl _RCCTL
                            148 	.globl _ADCCON3
                            149 	.globl _ADCCON2
                            150 	.globl _ADCCON1
                            151 	.globl _ENCCS
                            152 	.globl _ENCDO
                            153 	.globl _ENCDI
                            154 	.globl _FWDATA
                            155 	.globl _FCTL
                            156 	.globl _FADDRH
                            157 	.globl _FADDRL
                            158 	.globl _FWT
                            159 	.globl _IP0
                            160 	.globl _IEN0
                            161 	.globl _IE
                            162 	.globl _T2THD
                            163 	.globl _T2TLD
                            164 	.globl _T2CAPHPH
                            165 	.globl _T2CAPLPL
                            166 	.globl _T2OF2
                            167 	.globl _T2OF1
                            168 	.globl _T2OF0
                            169 	.globl _P2
                            170 	.globl _PSBANK
                            171 	.globl _FMAP
                            172 	.globl _T2PEROF2
                            173 	.globl _T2PEROF1
                            174 	.globl _T2PEROF0
                            175 	.globl _S1CON
                            176 	.globl _IEN2
                            177 	.globl _HSRC
                            178 	.globl _S0CON
                            179 	.globl _ST2
                            180 	.globl _ST1
                            181 	.globl _ST0
                            182 	.globl _T2CMP
                            183 	.globl __XPAGE
                            184 	.globl _DPS
                            185 	.globl _RFIM
                            186 	.globl _P1
                            187 	.globl _P0INP
                            188 	.globl _P1IEN
                            189 	.globl _PICTL
                            190 	.globl _P2IFG
                            191 	.globl _P1IFG
                            192 	.globl _P0IFG
                            193 	.globl _TCON
                            194 	.globl _PCON
                            195 	.globl _U0CSR
                            196 	.globl _DPH1
                            197 	.globl _DPL1
                            198 	.globl _DPH0
                            199 	.globl _DPL0
                            200 	.globl _SP
                            201 	.globl _P0
                            202 	.globl _stats
                            203 	.globl _ADC_SHADOW
                            204 	.globl _U1BUF_SHADOW
                            205 	.globl _RFD_SHADOW
                            206 	.globl _U0BUF_SHADOW
                            207 	.globl _RFSTATUS
                            208 	.globl _CHIPID
                            209 	.globl _CHVER
                            210 	.globl _FSMTC1
                            211 	.globl _RXFIFOCNT
                            212 	.globl _IOCFG3
                            213 	.globl _IOCFG2
                            214 	.globl _IOCFG1
                            215 	.globl _IOCFG0
                            216 	.globl _SHORTADDRL
                            217 	.globl _SHORTADDRH
                            218 	.globl _PANIDL
                            219 	.globl _PANIDH
                            220 	.globl _IEEE_ADDR7
                            221 	.globl _IEEE_ADDR6
                            222 	.globl _IEEE_ADDR5
                            223 	.globl _IEEE_ADDR4
                            224 	.globl _IEEE_ADDR3
                            225 	.globl _IEEE_ADDR2
                            226 	.globl _IEEE_ADDR1
                            227 	.globl _IEEE_ADDR0
                            228 	.globl _DACTSTL
                            229 	.globl _DACTSTH
                            230 	.globl _ADCTSTL
                            231 	.globl _ADCTSTH
                            232 	.globl _FSMSTATE
                            233 	.globl _AGCCTRLL
                            234 	.globl _AGCCTRLH
                            235 	.globl _MANORL
                            236 	.globl _MANORH
                            237 	.globl _MANANDL
                            238 	.globl _MANANDH
                            239 	.globl _FSMTCL
                            240 	.globl _FSMTCH
                            241 	.globl _RFPWR
                            242 	.globl _CSPT
                            243 	.globl _CSPCTRL
                            244 	.globl _CSPZ
                            245 	.globl _CSPY
                            246 	.globl _CSPX
                            247 	.globl _FSCTRLL
                            248 	.globl _FSCTRLH
                            249 	.globl _RXCTRL1L
                            250 	.globl _RXCTRL1H
                            251 	.globl _RXCTRL0L
                            252 	.globl _RXCTRL0H
                            253 	.globl _TXCTRLL
                            254 	.globl _TXCTRLH
                            255 	.globl _SYNCWORDL
                            256 	.globl _SYNCWORDH
                            257 	.globl _RSSIL
                            258 	.globl _RSSIH
                            259 	.globl _MDMCTRL1L
                            260 	.globl _MDMCTRL1H
                            261 	.globl _MDMCTRL0L
                            262 	.globl _MDMCTRL0H
                            263 	.globl _collect_open
                            264 	.globl _collect_set_keepalive
                            265 	.globl _collect_close
                            266 	.globl _collect_set_sink
                            267 	.globl _collect_send
                            268 	.globl _collect_depth
                            269 	.globl _collect_print_stats
                            270 ;--------------------------------------------------------
                            271 ; special function registers
                            272 ;--------------------------------------------------------
                            273 	.area RSEG    (ABS,DATA)
   0000                     274 	.org 0x0000
                    0080    275 _P0	=	0x0080
                    0081    276 _SP	=	0x0081
                    0082    277 _DPL0	=	0x0082
                    0083    278 _DPH0	=	0x0083
                    0084    279 _DPL1	=	0x0084
                    0085    280 _DPH1	=	0x0085
                    0086    281 _U0CSR	=	0x0086
                    0087    282 _PCON	=	0x0087
                    0088    283 _TCON	=	0x0088
                    0089    284 _P0IFG	=	0x0089
                    008A    285 _P1IFG	=	0x008a
                    008B    286 _P2IFG	=	0x008b
                    008C    287 _PICTL	=	0x008c
                    008D    288 _P1IEN	=	0x008d
                    008F    289 _P0INP	=	0x008f
                    0090    290 _P1	=	0x0090
                    0091    291 _RFIM	=	0x0091
                    0092    292 _DPS	=	0x0092
                    0093    293 __XPAGE	=	0x0093
                    0094    294 _T2CMP	=	0x0094
                    0095    295 _ST0	=	0x0095
                    0096    296 _ST1	=	0x0096
                    0097    297 _ST2	=	0x0097
                    0098    298 _S0CON	=	0x0098
                    0099    299 _HSRC	=	0x0099
                    009A    300 _IEN2	=	0x009a
                    009B    301 _S1CON	=	0x009b
                    009C    302 _T2PEROF0	=	0x009c
                    009D    303 _T2PEROF1	=	0x009d
                    009E    304 _T2PEROF2	=	0x009e
                    009F    305 _FMAP	=	0x009f
                    009F    306 _PSBANK	=	0x009f
                    00A0    307 _P2	=	0x00a0
                    00A1    308 _T2OF0	=	0x00a1
                    00A2    309 _T2OF1	=	0x00a2
                    00A3    310 _T2OF2	=	0x00a3
                    00A4    311 _T2CAPLPL	=	0x00a4
                    00A5    312 _T2CAPHPH	=	0x00a5
                    00A6    313 _T2TLD	=	0x00a6
                    00A7    314 _T2THD	=	0x00a7
                    00A8    315 _IE	=	0x00a8
                    00A8    316 _IEN0	=	0x00a8
                    00A9    317 _IP0	=	0x00a9
                    00AB    318 _FWT	=	0x00ab
                    00AC    319 _FADDRL	=	0x00ac
                    00AD    320 _FADDRH	=	0x00ad
                    00AE    321 _FCTL	=	0x00ae
                    00AF    322 _FWDATA	=	0x00af
                    00B1    323 _ENCDI	=	0x00b1
                    00B2    324 _ENCDO	=	0x00b2
                    00B3    325 _ENCCS	=	0x00b3
                    00B4    326 _ADCCON1	=	0x00b4
                    00B5    327 _ADCCON2	=	0x00b5
                    00B6    328 _ADCCON3	=	0x00b6
                    00B7    329 _RCCTL	=	0x00b7
                    00B8    330 _IEN1	=	0x00b8
                    00B9    331 _IP1	=	0x00b9
                    00BA    332 _ADCL	=	0x00ba
                    00BB    333 _ADCH	=	0x00bb
                    00BC    334 _RNDL	=	0x00bc
                    00BD    335 _RNDH	=	0x00bd
                    00BE    336 _SLEEP	=	0x00be
                    00C0    337 _IRCON	=	0x00c0
                    00C1    338 _U0BUF	=	0x00c1
                    00C2    339 _U0BAUD	=	0x00c2
                    00C3    340 _T2CNF	=	0x00c3
                    00C4    341 _U0UCR	=	0x00c4
                    00C5    342 _U0GCR	=	0x00c5
                    00C6    343 _CLKCON	=	0x00c6
                    00C7    344 _MEMCTR	=	0x00c7
                    00C8    345 _T2CON	=	0x00c8
                    00C9    346 _WDCTL	=	0x00c9
                    00CA    347 _T3CNT	=	0x00ca
                    00CB    348 _T3CTL	=	0x00cb
                    00CC    349 _T3CCTL0	=	0x00cc
                    00CD    350 _T3CC0	=	0x00cd
                    00CE    351 _T3CCTL1	=	0x00ce
                    00CF    352 _T3CC1	=	0x00cf
                    00D0    353 _PSW	=	0x00d0
                    00D1    354 _DMAIRQ	=	0x00d1
                    00D2    355 _DMA1CFGL	=	0x00d2
                    00D3    356 _DMA1CFGH	=	0x00d3
                    00D4    357 _DMA0CFGL	=	0x00d4
                    00D5    358 _DMA0CFGH	=	0x00d5
                    00D6    359 _DMAARM	=	0x00d6
                    00D7    360 _DMAREQ	=	0x00d7
                    00D8    361 _TIMIF	=	0x00d8
                    00D9    362 _RFD	=	0x00d9
                    00DA    363 _T1CC0L	=	0x00da
                    00DB    364 _T1CC0H	=	0x00db
                    00DC    365 _T1CC1L	=	0x00dc
                    00DD    366 _T1CC1H	=	0x00dd
                    00DE    367 _T1CC2L	=	0x00de
                    00DF    368 _T1CC2H	=	0x00df
                    00E0    369 _ACC	=	0x00e0
                    00E1    370 _RFST	=	0x00e1
                    00E2    371 _T1CNTL	=	0x00e2
                    00E3    372 _T1CNTH	=	0x00e3
                    00E4    373 _T1CTL	=	0x00e4
                    00E5    374 _T1CCTL0	=	0x00e5
                    00E6    375 _T1CCTL1	=	0x00e6
                    00E7    376 _T1CCTL2	=	0x00e7
                    00E8    377 _IRCON2	=	0x00e8
                    00E9    378 _RFIF	=	0x00e9
                    00EA    379 _T4CNT	=	0x00ea
                    00EB    380 _T4CTL	=	0x00eb
                    00EC    381 _T4CCTL0	=	0x00ec
                    00ED    382 _T4CC0	=	0x00ed
                    00EE    383 _T4CCTL1	=	0x00ee
                    00EF    384 _T4CC1	=	0x00ef
                    00F0    385 _B	=	0x00f0
                    00F1    386 _PERCFG	=	0x00f1
                    00F2    387 _ADCCFG	=	0x00f2
                    00F3    388 _P0SEL	=	0x00f3
                    00F4    389 _P1SEL	=	0x00f4
                    00F5    390 _P2SEL	=	0x00f5
                    00F6    391 _P1INP	=	0x00f6
                    00F7    392 _P2INP	=	0x00f7
                    00F8    393 _U1CSR	=	0x00f8
                    00F9    394 _U1BUF	=	0x00f9
                    00FA    395 _U1BAUD	=	0x00fa
                    00FB    396 _U1UCR	=	0x00fb
                    00FC    397 _U1GCR	=	0x00fc
                    00FD    398 _P0DIR	=	0x00fd
                    00FE    399 _P1DIR	=	0x00fe
                    00FF    400 _P2DIR	=	0x00ff
                            401 ;--------------------------------------------------------
                            402 ; special function bits
                            403 ;--------------------------------------------------------
                            404 	.area RSEG    (ABS,DATA)
   0000                     405 	.org 0x0000
                    0087    406 _P0_7	=	0x0087
                    0086    407 _P0_6	=	0x0086
                    0085    408 _P0_5	=	0x0085
                    0084    409 _P0_4	=	0x0084
                    0083    410 _P0_3	=	0x0083
                    0082    411 _P0_2	=	0x0082
                    0081    412 _P0_1	=	0x0081
                    0080    413 _P0_0	=	0x0080
                    008F    414 _TCON_URX1IF	=	0x008f
                    008D    415 _TCON_ADCIF	=	0x008d
                    008B    416 _TCON_URX0IF	=	0x008b
                    008A    417 _TCON_IT1	=	0x008a
                    0089    418 _TCON_RFERRIF	=	0x0089
                    0088    419 _TCON_IT0	=	0x0088
                    0090    420 _P1_0	=	0x0090
                    0091    421 _P1_1	=	0x0091
                    0092    422 _P1_2	=	0x0092
                    0093    423 _P1_3	=	0x0093
                    0094    424 _P1_4	=	0x0094
                    0095    425 _P1_5	=	0x0095
                    0096    426 _P1_6	=	0x0096
                    0097    427 _P1_7	=	0x0097
                    0099    428 _S0CON_ENCIF_1	=	0x0099
                    0098    429 _S0CON_ENCIF_0	=	0x0098
                    00A0    430 _P2_0	=	0x00a0
                    00A1    431 _P2_1	=	0x00a1
                    00A2    432 _P2_2	=	0x00a2
                    00A3    433 _P2_3	=	0x00a3
                    00A4    434 _P2_4	=	0x00a4
                    00AF    435 _EA	=	0x00af
                    00AF    436 _IEN0_EA	=	0x00af
                    00AD    437 _IEN0_STIE	=	0x00ad
                    00AC    438 _IEN0_ENCIE	=	0x00ac
                    00AB    439 _IEN0_URX1IE	=	0x00ab
                    00AA    440 _IEN0_URX0IE	=	0x00aa
                    00A9    441 _IEN0_ADCIE	=	0x00a9
                    00A8    442 _IEN0_RFERRIE	=	0x00a8
                    00BD    443 _IEN1_P0IE	=	0x00bd
                    00BC    444 _IEN1_T4IE	=	0x00bc
                    00BB    445 _IEN1_T3IE	=	0x00bb
                    00BA    446 _IEN1_T2IE	=	0x00ba
                    00B9    447 _IEN1_T1IE	=	0x00b9
                    00B8    448 _IEN1_DMAIE	=	0x00b8
                    00C7    449 _IRCON_STIF	=	0x00c7
                    00C5    450 _IRCON_P0IF	=	0x00c5
                    00C4    451 _IRCON_T4IF	=	0x00c4
                    00C3    452 _IRCON_T3IF	=	0x00c3
                    00C2    453 _IRCON_T2IF	=	0x00c2
                    00C1    454 _IRCON_T1IF	=	0x00c1
                    00C0    455 _IRCON_DMAIF	=	0x00c0
                    00D0    456 _P	=	0x00d0
                    00D1    457 _F1	=	0x00d1
                    00D2    458 _OV	=	0x00d2
                    00D3    459 _RS0	=	0x00d3
                    00D4    460 _RS1	=	0x00d4
                    00D5    461 _F0	=	0x00d5
                    00D6    462 _AC	=	0x00d6
                    00D7    463 _CY	=	0x00d7
                    00EC    464 _IRCON2_WDTIF	=	0x00ec
                    00EB    465 _IRCON2_P1IF	=	0x00eb
                    00EA    466 _IRCON2_UTX1IF	=	0x00ea
                    00E9    467 _IRCON2_UTX0IF	=	0x00e9
                    00E8    468 _IRCON2_P2IF	=	0x00e8
                            469 ;--------------------------------------------------------
                            470 ; overlayable register banks
                            471 ;--------------------------------------------------------
                            472 	.area REG_BANK_0	(REL,OVR,DATA)
   0000                     473 	.ds 8
                            474 ;--------------------------------------------------------
                            475 ; internal ram data
                            476 ;--------------------------------------------------------
                            477 	.area DSEG    (DATA)
                            478 ;--------------------------------------------------------
                            479 ; overlayable items in internal ram 
                            480 ;--------------------------------------------------------
                            481 	.area OSEG    (OVR,DATA)
                            482 ;--------------------------------------------------------
                            483 ; indirectly addressable internal ram data
                            484 ;--------------------------------------------------------
                            485 	.area ISEG    (DATA)
                            486 ;--------------------------------------------------------
                            487 ; absolute internal ram data
                            488 ;--------------------------------------------------------
                            489 	.area IABS    (ABS,DATA)
                            490 	.area IABS    (ABS,DATA)
                            491 ;--------------------------------------------------------
                            492 ; bit data
                            493 ;--------------------------------------------------------
                            494 	.area BSEG    (BIT)
                            495 ;--------------------------------------------------------
                            496 ; paged external ram data
                            497 ;--------------------------------------------------------
                            498 	.area PSEG    (PAG,XDATA)
                            499 ;--------------------------------------------------------
                            500 ; external ram data
                            501 ;--------------------------------------------------------
                            502 	.area XSEG    (XDATA)
                    DF02    503 _MDMCTRL0H	=	0xdf02
                    DF03    504 _MDMCTRL0L	=	0xdf03
                    DF04    505 _MDMCTRL1H	=	0xdf04
                    DF05    506 _MDMCTRL1L	=	0xdf05
                    DF06    507 _RSSIH	=	0xdf06
                    DF07    508 _RSSIL	=	0xdf07
                    DF08    509 _SYNCWORDH	=	0xdf08
                    DF09    510 _SYNCWORDL	=	0xdf09
                    DF0A    511 _TXCTRLH	=	0xdf0a
                    DF0B    512 _TXCTRLL	=	0xdf0b
                    DF0C    513 _RXCTRL0H	=	0xdf0c
                    DF0D    514 _RXCTRL0L	=	0xdf0d
                    DF0E    515 _RXCTRL1H	=	0xdf0e
                    DF0F    516 _RXCTRL1L	=	0xdf0f
                    DF10    517 _FSCTRLH	=	0xdf10
                    DF11    518 _FSCTRLL	=	0xdf11
                    DF12    519 _CSPX	=	0xdf12
                    DF13    520 _CSPY	=	0xdf13
                    DF14    521 _CSPZ	=	0xdf14
                    DF15    522 _CSPCTRL	=	0xdf15
                    DF16    523 _CSPT	=	0xdf16
                    DF17    524 _RFPWR	=	0xdf17
                    DF20    525 _FSMTCH	=	0xdf20
                    DF21    526 _FSMTCL	=	0xdf21
                    DF22    527 _MANANDH	=	0xdf22
                    DF23    528 _MANANDL	=	0xdf23
                    DF24    529 _MANORH	=	0xdf24
                    DF25    530 _MANORL	=	0xdf25
                    DF26    531 _AGCCTRLH	=	0xdf26
                    DF27    532 _AGCCTRLL	=	0xdf27
                    DF39    533 _FSMSTATE	=	0xdf39
                    DF3A    534 _ADCTSTH	=	0xdf3a
                    DF3B    535 _ADCTSTL	=	0xdf3b
                    DF3C    536 _DACTSTH	=	0xdf3c
                    DF3D    537 _DACTSTL	=	0xdf3d
                    DF43    538 _IEEE_ADDR0	=	0xdf43
                    DF44    539 _IEEE_ADDR1	=	0xdf44
                    DF45    540 _IEEE_ADDR2	=	0xdf45
                    DF46    541 _IEEE_ADDR3	=	0xdf46
                    DF47    542 _IEEE_ADDR4	=	0xdf47
                    DF48    543 _IEEE_ADDR5	=	0xdf48
                    DF49    544 _IEEE_ADDR6	=	0xdf49
                    DF4A    545 _IEEE_ADDR7	=	0xdf4a
                    DF4B    546 _PANIDH	=	0xdf4b
                    DF4C    547 _PANIDL	=	0xdf4c
                    DF4D    548 _SHORTADDRH	=	0xdf4d
                    DF4E    549 _SHORTADDRL	=	0xdf4e
                    DF4F    550 _IOCFG0	=	0xdf4f
                    DF50    551 _IOCFG1	=	0xdf50
                    DF51    552 _IOCFG2	=	0xdf51
                    DF52    553 _IOCFG3	=	0xdf52
                    DF53    554 _RXFIFOCNT	=	0xdf53
                    DF54    555 _FSMTC1	=	0xdf54
                    DF60    556 _CHVER	=	0xdf60
                    DF61    557 _CHIPID	=	0xdf61
                    DF62    558 _RFSTATUS	=	0xdf62
                    DFC1    559 _U0BUF_SHADOW	=	0xdfc1
                    DFD9    560 _RFD_SHADOW	=	0xdfd9
                    DFF9    561 _U1BUF_SHADOW	=	0xdff9
                    DFBA    562 _ADC_SHADOW	=	0xdfba
   0000                     563 _recent_packets:
   0000                     564 	.ds 96
   0060                     565 _recent_packet_ptr:
   0060                     566 	.ds 1
   0061                     567 _send_queue_memb_memb_count:
   0061                     568 	.ds 4
   0065                     569 _send_queue_memb_memb_mem:
   0065                     570 	.ds 132
   00E9                     571 _stats::
   00E9                     572 	.ds 56
                            573 ;--------------------------------------------------------
                            574 ; absolute external ram data
                            575 ;--------------------------------------------------------
                            576 	.area XABS    (ABS,XDATA)
                            577 ;--------------------------------------------------------
                            578 ; external initialized ram data
                            579 ;--------------------------------------------------------
                            580 	.area XISEG   (XDATA)
   0000                     581 _send_queue_memb:
   0000                     582 	.ds 10
                            583 	.area HOME    (CODE)
                            584 	.area GSINIT0 (CODE)
                            585 	.area GSINIT1 (CODE)
                            586 	.area GSINIT2 (CODE)
                            587 	.area GSINIT3 (CODE)
                            588 	.area GSINIT4 (CODE)
                            589 	.area GSINIT5 (CODE)
                            590 	.area GSINIT  (CODE)
                            591 	.area GSFINAL (CODE)
                            592 	.area CSEG    (CODE)
                            593 ;--------------------------------------------------------
                            594 ; global & static initialisations
                            595 ;--------------------------------------------------------
                            596 	.area HOME    (CODE)
                            597 	.area GSINIT  (CODE)
                            598 	.area GSFINAL (CODE)
                            599 	.area GSINIT  (CODE)
                            600 ;--------------------------------------------------------
                            601 ; Home
                            602 ;--------------------------------------------------------
                            603 	.area HOME    (CODE)
                            604 	.area HOME    (CODE)
                            605 ;--------------------------------------------------------
                            606 ; code
                            607 ;--------------------------------------------------------
                            608 	.area CSEG    (CODE)
                            609 ;------------------------------------------------------------
                            610 ;Allocation info for local variables in function 'rtmetric_compute'
                            611 ;------------------------------------------------------------
                            612 ;tc                        Allocated to registers r2 r3 r4 
                            613 ;n                         Allocated to registers r2 r3 r4 
                            614 ;rtmetric                  Allocated to registers r5 r6 
                            615 ;------------------------------------------------------------
                            616 ;	../../../core/net/rime/collect.c:227: rtmetric_compute(struct collect_conn *tc)
                            617 ;	-----------------------------------------
                            618 ;	 function rtmetric_compute
                            619 ;	-----------------------------------------
   0000                     620 _rtmetric_compute:
                    0002    621 	ar2 = 0x02
                    0003    622 	ar3 = 0x03
                    0004    623 	ar4 = 0x04
                    0005    624 	ar5 = 0x05
                    0006    625 	ar6 = 0x06
                    0007    626 	ar7 = 0x07
                    0000    627 	ar0 = 0x00
                    0001    628 	ar1 = 0x01
   0000 AA 82               629 	mov	r2,dpl
   0002 AB 83               630 	mov	r3,dph
   0004 AC F0               631 	mov	r4,b
                            632 ;	../../../core/net/rime/collect.c:239: n = collect_neighbor_list_find(&tc->neighbor_list, &tc->parent);
   0006 74 B2               633 	mov	a,#0xB2
   0008 2A                  634 	add	a,r2
   0009 FD                  635 	mov	r5,a
   000A E4                  636 	clr	a
   000B 3B                  637 	addc	a,r3
   000C FE                  638 	mov	r6,a
   000D 8C 07               639 	mov	ar7,r4
   000F 74 7C               640 	mov	a,#0x7C
   0011 2A                  641 	add	a,r2
   0012 FA                  642 	mov	r2,a
   0013 E4                  643 	clr	a
   0014 3B                  644 	addc	a,r3
   0015 FB                  645 	mov	r3,a
   0016 C0 05               646 	push	ar5
   0018 C0 06               647 	push	ar6
   001A C0 07               648 	push	ar7
   001C 8A 82               649 	mov	dpl,r2
   001E 8B 83               650 	mov	dph,r3
   0020 8C F0               651 	mov	b,r4
   0022 12s00r00            652 	lcall	_collect_neighbor_list_find
   0025 AA 82               653 	mov	r2,dpl
   0027 AB 83               654 	mov	r3,dph
   0029 AC F0               655 	mov	r4,b
   002B 15 81               656 	dec	sp
   002D 15 81               657 	dec	sp
   002F 15 81               658 	dec	sp
                            659 ;	../../../core/net/rime/collect.c:243: if(n == NULL) {
   0031 EA                  660 	mov	a,r2
   0032 4B                  661 	orl	a,r3
   0033 4C                  662 	orl	a,r4
   0034 70 06               663 	jnz	00102$
                            664 ;	../../../core/net/rime/collect.c:244: rtmetric = RTMETRIC_MAX;
   0036 7D FF               665 	mov	r5,#0xFF
   0038 7E 0F               666 	mov	r6,#0x0F
   003A 80 11               667 	sjmp	00103$
   003C                     668 00102$:
                            669 ;	../../../core/net/rime/collect.c:248: rtmetric = collect_neighbor_rtmetric_link_estimate(n);
   003C 8A 82               670 	mov	dpl,r2
   003E 8B 83               671 	mov	dph,r3
   0040 8C F0               672 	mov	b,r4
   0042 12s00r00            673 	lcall	_collect_neighbor_rtmetric_link_estimate
   0045 AA 82               674 	mov	r2,dpl
   0047 AB 83               675 	mov	r3,dph
   0049 8A 05               676 	mov	ar5,r2
   004B 8B 06               677 	mov	ar6,r3
   004D                     678 00103$:
                            679 ;	../../../core/net/rime/collect.c:251: return rtmetric;
   004D 8D 82               680 	mov	dpl,r5
   004F 8E 83               681 	mov	dph,r6
   0051 22                  682 	ret
                            683 ;------------------------------------------------------------
                            684 ;Allocation info for local variables in function 'update_parent'
                            685 ;------------------------------------------------------------
                            686 ;tc                        Allocated to stack - offset 1
                            687 ;current                   Allocated to stack - offset 4
                            688 ;best                      Allocated to stack - offset 7
                            689 ;previous_parent           Allocated to stack - offset 10
                            690 ;i                         Allocated to stack - offset 12
                            691 ;etx                       Allocated to stack - offset 14
                            692 ;i                         Allocated to stack - offset 16
                            693 ;etx                       Allocated to stack - offset 18
                            694 ;sloc0                     Allocated to stack - offset 20
                            695 ;sloc1                     Allocated to stack - offset 20
                            696 ;------------------------------------------------------------
                            697 ;	../../../core/net/rime/collect.c:262: update_parent(struct collect_conn *tc)
                            698 ;	-----------------------------------------
                            699 ;	 function update_parent
                            700 ;	-----------------------------------------
   0052                     701 _update_parent:
   0052 C0*00               702 	push	_bp
   0054 85 81*00            703 	mov	_bp,sp
   0057 C0 82               704 	push	dpl
   0059 C0 83               705 	push	dph
   005B C0 F0               706 	push	b
   005D E5 81               707 	mov	a,sp
   005F 24 17               708 	add	a,#0x17
   0061 F5 81               709 	mov	sp,a
                            710 ;	../../../core/net/rime/collect.c:268: current = collect_neighbor_list_find(&tc->neighbor_list, &tc->parent);
   0063 A8*00               711 	mov	r0,_bp
   0065 08                  712 	inc	r0
   0066 74 B2               713 	mov	a,#0xB2
   0068 26                  714 	add	a,@r0
   0069 FD                  715 	mov	r5,a
   006A E4                  716 	clr	a
   006B 08                  717 	inc	r0
   006C 36                  718 	addc	a,@r0
   006D FE                  719 	mov	r6,a
   006E 08                  720 	inc	r0
   006F 86 07               721 	mov	ar7,@r0
   0071 A8*00               722 	mov	r0,_bp
   0073 08                  723 	inc	r0
   0074 74 7C               724 	mov	a,#0x7C
   0076 26                  725 	add	a,@r0
   0077 FA                  726 	mov	r2,a
   0078 E4                  727 	clr	a
   0079 08                  728 	inc	r0
   007A 36                  729 	addc	a,@r0
   007B FB                  730 	mov	r3,a
   007C 08                  731 	inc	r0
   007D 86 04               732 	mov	ar4,@r0
   007F C0 05               733 	push	ar5
   0081 C0 06               734 	push	ar6
   0083 C0 07               735 	push	ar7
   0085 8A 82               736 	mov	dpl,r2
   0087 8B 83               737 	mov	dph,r3
   0089 8C F0               738 	mov	b,r4
   008B 12s00r00            739 	lcall	_collect_neighbor_list_find
   008E AA 82               740 	mov	r2,dpl
   0090 AB 83               741 	mov	r3,dph
   0092 AC F0               742 	mov	r4,b
   0094 15 81               743 	dec	sp
   0096 15 81               744 	dec	sp
   0098 15 81               745 	dec	sp
                            746 ;	../../../core/net/rime/collect.c:272: best = collect_neighbor_list_best(&tc->neighbor_list);
   009A A8*00               747 	mov	r0,_bp
   009C 08                  748 	inc	r0
   009D 74 7C               749 	mov	a,#0x7C
   009F 26                  750 	add	a,@r0
   00A0 FD                  751 	mov	r5,a
   00A1 E4                  752 	clr	a
   00A2 08                  753 	inc	r0
   00A3 36                  754 	addc	a,@r0
   00A4 FE                  755 	mov	r6,a
   00A5 08                  756 	inc	r0
   00A6 86 07               757 	mov	ar7,@r0
   00A8 8D 82               758 	mov	dpl,r5
   00AA 8E 83               759 	mov	dph,r6
   00AC 8F F0               760 	mov	b,r7
   00AE C0 02               761 	push	ar2
   00B0 C0 03               762 	push	ar3
   00B2 C0 04               763 	push	ar4
   00B4 12s00r00            764 	lcall	_collect_neighbor_list_best
   00B7 AD 82               765 	mov	r5,dpl
   00B9 AE 83               766 	mov	r6,dph
   00BB AF F0               767 	mov	r7,b
   00BD D0 04               768 	pop	ar4
   00BF D0 03               769 	pop	ar3
   00C1 D0 02               770 	pop	ar2
   00C3 E5*00               771 	mov	a,_bp
   00C5 24 07               772 	add	a,#0x07
   00C7 F8                  773 	mov	r0,a
   00C8 A6 05               774 	mov	@r0,ar5
   00CA 08                  775 	inc	r0
   00CB A6 06               776 	mov	@r0,ar6
   00CD 08                  777 	inc	r0
   00CE A6 07               778 	mov	@r0,ar7
                            779 ;	../../../core/net/rime/collect.c:291: if(best != NULL) {
   00D0 E5*00               780 	mov	a,_bp
   00D2 24 07               781 	add	a,#0x07
   00D4 F8                  782 	mov	r0,a
   00D5 E6                  783 	mov	a,@r0
   00D6 08                  784 	inc	r0
   00D7 46                  785 	orl	a,@r0
   00D8 08                  786 	inc	r0
   00D9 46                  787 	orl	a,@r0
   00DA 70 03               788 	jnz	00142$
   00DC 02s01rEE            789 	ljmp	00124$
   00DF                     790 00142$:
                            791 ;	../../../core/net/rime/collect.c:298: if(current == NULL) {
   00DF EA                  792 	mov	a,r2
   00E0 4B                  793 	orl	a,r3
   00E1 4C                  794 	orl	a,r4
   00E2 70 5F               795 	jnz	00111$
                            796 ;	../../../core/net/rime/collect.c:302: rimeaddr_copy(&tc->parent, &best->addr);
   00E4 E5*00               797 	mov	a,_bp
   00E6 24 07               798 	add	a,#0x07
   00E8 F8                  799 	mov	r0,a
   00E9 74 03               800 	mov	a,#0x03
   00EB 26                  801 	add	a,@r0
   00EC FA                  802 	mov	r2,a
   00ED E4                  803 	clr	a
   00EE 08                  804 	inc	r0
   00EF 36                  805 	addc	a,@r0
   00F0 FB                  806 	mov	r3,a
   00F1 08                  807 	inc	r0
   00F2 86 04               808 	mov	ar4,@r0
   00F4 A8*00               809 	mov	r0,_bp
   00F6 08                  810 	inc	r0
   00F7 74 B2               811 	mov	a,#0xB2
   00F9 26                  812 	add	a,@r0
   00FA FD                  813 	mov	r5,a
   00FB E4                  814 	clr	a
   00FC 08                  815 	inc	r0
   00FD 36                  816 	addc	a,@r0
   00FE FE                  817 	mov	r6,a
   00FF 08                  818 	inc	r0
   0100 86 07               819 	mov	ar7,@r0
   0102 C0 02               820 	push	ar2
   0104 C0 03               821 	push	ar3
   0106 C0 04               822 	push	ar4
   0108 8D 82               823 	mov	dpl,r5
   010A 8E 83               824 	mov	dph,r6
   010C 8F F0               825 	mov	b,r7
   010E 12s00r00            826 	lcall	_rimeaddr_copy
   0111 15 81               827 	dec	sp
   0113 15 81               828 	dec	sp
   0115 15 81               829 	dec	sp
                            830 ;	../../../core/net/rime/collect.c:303: stats.foundroute++;
   0117 90s00rE9            831 	mov	dptr,#_stats
   011A E0                  832 	movx	a,@dptr
   011B FA                  833 	mov	r2,a
   011C A3                  834 	inc	dptr
   011D E0                  835 	movx	a,@dptr
   011E FB                  836 	mov	r3,a
   011F A3                  837 	inc	dptr
   0120 E0                  838 	movx	a,@dptr
   0121 FC                  839 	mov	r4,a
   0122 A3                  840 	inc	dptr
   0123 E0                  841 	movx	a,@dptr
   0124 FD                  842 	mov	r5,a
   0125 0A                  843 	inc	r2
   0126 BA 00 09            844 	cjne	r2,#0x00,00144$
   0129 0B                  845 	inc	r3
   012A BB 00 05            846 	cjne	r3,#0x00,00144$
   012D 0C                  847 	inc	r4
   012E BC 00 01            848 	cjne	r4,#0x00,00144$
   0131 0D                  849 	inc	r5
   0132                     850 00144$:
   0132 90s00rE9            851 	mov	dptr,#_stats
   0135 EA                  852 	mov	a,r2
   0136 F0                  853 	movx	@dptr,a
   0137 A3                  854 	inc	dptr
   0138 EB                  855 	mov	a,r3
   0139 F0                  856 	movx	@dptr,a
   013A A3                  857 	inc	dptr
   013B EC                  858 	mov	a,r4
   013C F0                  859 	movx	@dptr,a
   013D A3                  860 	inc	dptr
   013E ED                  861 	mov	a,r5
   013F F0                  862 	movx	@dptr,a
   0140 02s02r71            863 	ljmp	00134$
   0143                     864 00111$:
                            865 ;	../../../core/net/rime/collect.c:305: if(collect_neighbor_rtmetric_link_estimate(best) +
   0143 E5*00               866 	mov	a,_bp
   0145 24 07               867 	add	a,#0x07
   0147 F8                  868 	mov	r0,a
   0148 86 82               869 	mov	dpl,@r0
   014A 08                  870 	inc	r0
   014B 86 83               871 	mov	dph,@r0
   014D 08                  872 	inc	r0
   014E 86 F0               873 	mov	b,@r0
   0150 C0 02               874 	push	ar2
   0152 C0 03               875 	push	ar3
   0154 C0 04               876 	push	ar4
   0156 12s00r00            877 	lcall	_collect_neighbor_rtmetric_link_estimate
   0159 E5 82               878 	mov	a,dpl
   015B 85 83 F0            879 	mov	b,dph
   015E D0 04               880 	pop	ar4
   0160 D0 03               881 	pop	ar3
   0162 D0 02               882 	pop	ar2
   0164 C8                  883 	xch	a,r0
   0165 E5*00               884 	mov	a,_bp
   0167 24 14               885 	add	a,#0x14
   0169 C8                  886 	xch	a,r0
   016A 24 0C               887 	add	a,#0x0C
   016C F6                  888 	mov	@r0,a
   016D E4                  889 	clr	a
   016E 35 F0               890 	addc	a,b
   0170 08                  891 	inc	r0
   0171 F6                  892 	mov	@r0,a
                            893 ;	../../../core/net/rime/collect.c:307: collect_neighbor_rtmetric_link_estimate(current)) {
   0172 8A 82               894 	mov	dpl,r2
   0174 8B 83               895 	mov	dph,r3
   0176 8C F0               896 	mov	b,r4
   0178 12s00r00            897 	lcall	_collect_neighbor_rtmetric_link_estimate
   017B AF 82               898 	mov	r7,dpl
   017D AD 83               899 	mov	r5,dph
   017F E5*00               900 	mov	a,_bp
   0181 24 14               901 	add	a,#0x14
   0183 F8                  902 	mov	r0,a
   0184 C3                  903 	clr	c
   0185 E6                  904 	mov	a,@r0
   0186 9F                  905 	subb	a,r7
   0187 08                  906 	inc	r0
   0188 E6                  907 	mov	a,@r0
   0189 9D                  908 	subb	a,r5
   018A 40 03               909 	jc	00145$
   018C 02s02r71            910 	ljmp	00134$
   018F                     911 00145$:
                            912 ;	../../../core/net/rime/collect.c:314: rimeaddr_copy(&tc->parent, &best->addr);
   018F E5*00               913 	mov	a,_bp
   0191 24 07               914 	add	a,#0x07
   0193 F8                  915 	mov	r0,a
   0194 74 03               916 	mov	a,#0x03
   0196 26                  917 	add	a,@r0
   0197 FA                  918 	mov	r2,a
   0198 E4                  919 	clr	a
   0199 08                  920 	inc	r0
   019A 36                  921 	addc	a,@r0
   019B FB                  922 	mov	r3,a
   019C 08                  923 	inc	r0
   019D 86 04               924 	mov	ar4,@r0
   019F A8*00               925 	mov	r0,_bp
   01A1 08                  926 	inc	r0
   01A2 74 B2               927 	mov	a,#0xB2
   01A4 26                  928 	add	a,@r0
   01A5 FD                  929 	mov	r5,a
   01A6 E4                  930 	clr	a
   01A7 08                  931 	inc	r0
   01A8 36                  932 	addc	a,@r0
   01A9 FE                  933 	mov	r6,a
   01AA 08                  934 	inc	r0
   01AB 86 07               935 	mov	ar7,@r0
   01AD C0 02               936 	push	ar2
   01AF C0 03               937 	push	ar3
   01B1 C0 04               938 	push	ar4
   01B3 8D 82               939 	mov	dpl,r5
   01B5 8E 83               940 	mov	dph,r6
   01B7 8F F0               941 	mov	b,r7
   01B9 12s00r00            942 	lcall	_rimeaddr_copy
   01BC 15 81               943 	dec	sp
   01BE 15 81               944 	dec	sp
   01C0 15 81               945 	dec	sp
                            946 ;	../../../core/net/rime/collect.c:315: stats.newparent++;
   01C2 90s00rED            947 	mov	dptr,#(_stats + 0x0004)
   01C5 E0                  948 	movx	a,@dptr
   01C6 FA                  949 	mov	r2,a
   01C7 A3                  950 	inc	dptr
   01C8 E0                  951 	movx	a,@dptr
   01C9 FB                  952 	mov	r3,a
   01CA A3                  953 	inc	dptr
   01CB E0                  954 	movx	a,@dptr
   01CC FC                  955 	mov	r4,a
   01CD A3                  956 	inc	dptr
   01CE E0                  957 	movx	a,@dptr
   01CF FD                  958 	mov	r5,a
   01D0 0A                  959 	inc	r2
   01D1 BA 00 09            960 	cjne	r2,#0x00,00146$
   01D4 0B                  961 	inc	r3
   01D5 BB 00 05            962 	cjne	r3,#0x00,00146$
   01D8 0C                  963 	inc	r4
   01D9 BC 00 01            964 	cjne	r4,#0x00,00146$
   01DC 0D                  965 	inc	r5
   01DD                     966 00146$:
   01DD 90s00rED            967 	mov	dptr,#(_stats + 0x0004)
   01E0 EA                  968 	mov	a,r2
   01E1 F0                  969 	movx	@dptr,a
   01E2 A3                  970 	inc	dptr
   01E3 EB                  971 	mov	a,r3
   01E4 F0                  972 	movx	@dptr,a
   01E5 A3                  973 	inc	dptr
   01E6 EC                  974 	mov	a,r4
   01E7 F0                  975 	movx	@dptr,a
   01E8 A3                  976 	inc	dptr
   01E9 ED                  977 	mov	a,r5
   01EA F0                  978 	movx	@dptr,a
                            979 ;	../../../core/net/rime/collect.c:316: if(DRAW_TREE) {
   01EB 02s02r71            980 	ljmp	00134$
                            981 ;	../../../core/net/rime/collect.c:350: printf("#L %d 1\n", tc->parent.u8[0]);
   01EE                     982 00124$:
                            983 ;	../../../core/net/rime/collect.c:355: if(!rimeaddr_cmp(&tc->parent, &rimeaddr_null)) {
   01EE A8*00               984 	mov	r0,_bp
   01F0 08                  985 	inc	r0
   01F1 74 B2               986 	mov	a,#0xB2
   01F3 26                  987 	add	a,@r0
   01F4 FA                  988 	mov	r2,a
   01F5 E4                  989 	clr	a
   01F6 08                  990 	inc	r0
   01F7 36                  991 	addc	a,@r0
   01F8 FB                  992 	mov	r3,a
   01F9 08                  993 	inc	r0
   01FA 86 04               994 	mov	ar4,@r0
   01FC 74r00               995 	mov	a,#_rimeaddr_null
   01FE C0 E0               996 	push	acc
   0200 74s00               997 	mov	a,#(_rimeaddr_null >> 8)
   0202 C0 E0               998 	push	acc
   0204 74 80               999 	mov	a,#0x80
   0206 C0 E0              1000 	push	acc
   0208 8A 82              1001 	mov	dpl,r2
   020A 8B 83              1002 	mov	dph,r3
   020C 8C F0              1003 	mov	b,r4
   020E 12s00r00           1004 	lcall	_rimeaddr_cmp
   0211 AA 82              1005 	mov	r2,dpl
   0213 AB 83              1006 	mov	r3,dph
   0215 15 81              1007 	dec	sp
   0217 15 81              1008 	dec	sp
   0219 15 81              1009 	dec	sp
   021B EA                 1010 	mov	a,r2
   021C 4B                 1011 	orl	a,r3
   021D 70 29              1012 	jnz	00122$
                           1013 ;	../../../core/net/rime/collect.c:359: stats.routelost++;
   021F 90s00rF1           1014 	mov	dptr,#(_stats + 0x0008)
   0222 E0                 1015 	movx	a,@dptr
   0223 FA                 1016 	mov	r2,a
   0224 A3                 1017 	inc	dptr
   0225 E0                 1018 	movx	a,@dptr
   0226 FB                 1019 	mov	r3,a
   0227 A3                 1020 	inc	dptr
   0228 E0                 1021 	movx	a,@dptr
   0229 FC                 1022 	mov	r4,a
   022A A3                 1023 	inc	dptr
   022B E0                 1024 	movx	a,@dptr
   022C FD                 1025 	mov	r5,a
   022D 0A                 1026 	inc	r2
   022E BA 00 09           1027 	cjne	r2,#0x00,00148$
   0231 0B                 1028 	inc	r3
   0232 BB 00 05           1029 	cjne	r3,#0x00,00148$
   0235 0C                 1030 	inc	r4
   0236 BC 00 01           1031 	cjne	r4,#0x00,00148$
   0239 0D                 1032 	inc	r5
   023A                    1033 00148$:
   023A 90s00rF1           1034 	mov	dptr,#(_stats + 0x0008)
   023D EA                 1035 	mov	a,r2
   023E F0                 1036 	movx	@dptr,a
   023F A3                 1037 	inc	dptr
   0240 EB                 1038 	mov	a,r3
   0241 F0                 1039 	movx	@dptr,a
   0242 A3                 1040 	inc	dptr
   0243 EC                 1041 	mov	a,r4
   0244 F0                 1042 	movx	@dptr,a
   0245 A3                 1043 	inc	dptr
   0246 ED                 1044 	mov	a,r5
   0247 F0                 1045 	movx	@dptr,a
   0248                    1046 00122$:
                           1047 ;	../../../core/net/rime/collect.c:361: rimeaddr_copy(&tc->parent, &rimeaddr_null);
   0248 A8*00              1048 	mov	r0,_bp
   024A 08                 1049 	inc	r0
   024B 74 B2              1050 	mov	a,#0xB2
   024D 26                 1051 	add	a,@r0
   024E FA                 1052 	mov	r2,a
   024F E4                 1053 	clr	a
   0250 08                 1054 	inc	r0
   0251 36                 1055 	addc	a,@r0
   0252 FB                 1056 	mov	r3,a
   0253 08                 1057 	inc	r0
   0254 86 04              1058 	mov	ar4,@r0
   0256 74r00              1059 	mov	a,#_rimeaddr_null
   0258 C0 E0              1060 	push	acc
   025A 74s00              1061 	mov	a,#(_rimeaddr_null >> 8)
   025C C0 E0              1062 	push	acc
   025E 74 80              1063 	mov	a,#0x80
   0260 C0 E0              1064 	push	acc
   0262 8A 82              1065 	mov	dpl,r2
   0264 8B 83              1066 	mov	dph,r3
   0266 8C F0              1067 	mov	b,r4
   0268 12s00r00           1068 	lcall	_rimeaddr_copy
   026B 15 81              1069 	dec	sp
   026D 15 81              1070 	dec	sp
   026F 15 81              1071 	dec	sp
   0271                    1072 00134$:
   0271 85*00 81           1073 	mov	sp,_bp
   0274 D0*00              1074 	pop	_bp
   0276 22                 1075 	ret
                           1076 ;------------------------------------------------------------
                           1077 ;Allocation info for local variables in function 'bump_advertisement'
                           1078 ;------------------------------------------------------------
                           1079 ;c                         Allocated to registers r2 r3 r4 
                           1080 ;------------------------------------------------------------
                           1081 ;	../../../core/net/rime/collect.c:371: bump_advertisement(struct collect_conn *c)
                           1082 ;	-----------------------------------------
                           1083 ;	 function bump_advertisement
                           1084 ;	-----------------------------------------
   0277                    1085 _bump_advertisement:
   0277 AA 82              1086 	mov	r2,dpl
   0279 AB 83              1087 	mov	r3,dph
   027B AC F0              1088 	mov	r4,b
                           1089 ;	../../../core/net/rime/collect.c:374: neighbor_discovery_start(&c->neighbor_discovery_conn, c->rtmetric);
   027D 74 B6              1090 	mov	a,#0xB6
   027F 2A                 1091 	add	a,r2
   0280 FD                 1092 	mov	r5,a
   0281 E4                 1093 	clr	a
   0282 3B                 1094 	addc	a,r3
   0283 FE                 1095 	mov	r6,a
   0284 8C 07              1096 	mov	ar7,r4
   0286 8D 82              1097 	mov	dpl,r5
   0288 8E 83              1098 	mov	dph,r6
   028A 8F F0              1099 	mov	b,r7
   028C 12s00r00           1100 	lcall	__gptrget
   028F FD                 1101 	mov	r5,a
   0290 A3                 1102 	inc	dptr
   0291 12s00r00           1103 	lcall	__gptrget
   0294 FE                 1104 	mov	r6,a
   0295 74 12              1105 	mov	a,#0x12
   0297 2A                 1106 	add	a,r2
   0298 FA                 1107 	mov	r2,a
   0299 E4                 1108 	clr	a
   029A 3B                 1109 	addc	a,r3
   029B FB                 1110 	mov	r3,a
   029C C0 05              1111 	push	ar5
   029E C0 06              1112 	push	ar6
   02A0 8A 82              1113 	mov	dpl,r2
   02A2 8B 83              1114 	mov	dph,r3
   02A4 8C F0              1115 	mov	b,r4
   02A6 12s00r00           1116 	lcall	_neighbor_discovery_start
   02A9 15 81              1117 	dec	sp
   02AB 15 81              1118 	dec	sp
   02AD 22                 1119 	ret
                           1120 ;------------------------------------------------------------
                           1121 ;Allocation info for local variables in function 'update_rtmetric'
                           1122 ;------------------------------------------------------------
                           1123 ;tc                        Allocated to stack - offset 1
                           1124 ;old_rtmetric              Allocated to stack - offset 4
                           1125 ;new_rtmetric              Allocated to stack - offset 6
                           1126 ;sloc0                     Allocated to stack - offset 8
                           1127 ;------------------------------------------------------------
                           1128 ;	../../../core/net/rime/collect.c:389: update_rtmetric(struct collect_conn *tc)
                           1129 ;	-----------------------------------------
                           1130 ;	 function update_rtmetric
                           1131 ;	-----------------------------------------
   02AE                    1132 _update_rtmetric:
   02AE C0*00              1133 	push	_bp
   02B0 85 81*00           1134 	mov	_bp,sp
   02B3 C0 82              1135 	push	dpl
   02B5 C0 83              1136 	push	dph
   02B7 C0 F0              1137 	push	b
   02B9 E5 81              1138 	mov	a,sp
   02BB 24 07              1139 	add	a,#0x07
   02BD F5 81              1140 	mov	sp,a
                           1141 ;	../../../core/net/rime/collect.c:394: if(tc->rtmetric != RTMETRIC_SINK) {
   02BF A8*00              1142 	mov	r0,_bp
   02C1 08                 1143 	inc	r0
   02C2 74 B6              1144 	mov	a,#0xB6
   02C4 26                 1145 	add	a,@r0
   02C5 FD                 1146 	mov	r5,a
   02C6 E4                 1147 	clr	a
   02C7 08                 1148 	inc	r0
   02C8 36                 1149 	addc	a,@r0
   02C9 FE                 1150 	mov	r6,a
   02CA 08                 1151 	inc	r0
   02CB 86 07              1152 	mov	ar7,@r0
   02CD 8D 82              1153 	mov	dpl,r5
   02CF 8E 83              1154 	mov	dph,r6
   02D1 8F F0              1155 	mov	b,r7
   02D3 12s00r00           1156 	lcall	__gptrget
   02D6 FA                 1157 	mov	r2,a
   02D7 A3                 1158 	inc	dptr
   02D8 12s00r00           1159 	lcall	__gptrget
   02DB FB                 1160 	mov	r3,a
   02DC 4A                 1161 	orl	a,r2
   02DD 70 03              1162 	jnz	00126$
   02DF 02s03rFD           1163 	ljmp	00117$
   02E2                    1164 00126$:
                           1165 ;	../../../core/net/rime/collect.c:398: old_rtmetric = tc->rtmetric;
   02E2 E5*00              1166 	mov	a,_bp
   02E4 24 04              1167 	add	a,#0x04
   02E6 F8                 1168 	mov	r0,a
   02E7 A6 02              1169 	mov	@r0,ar2
   02E9 08                 1170 	inc	r0
   02EA A6 03              1171 	mov	@r0,ar3
                           1172 ;	../../../core/net/rime/collect.c:401: update_parent(tc);
   02EC A8*00              1173 	mov	r0,_bp
   02EE 08                 1174 	inc	r0
   02EF 86 82              1175 	mov	dpl,@r0
   02F1 08                 1176 	inc	r0
   02F2 86 83              1177 	mov	dph,@r0
   02F4 08                 1178 	inc	r0
   02F5 86 F0              1179 	mov	b,@r0
   02F7 C0 05              1180 	push	ar5
   02F9 C0 06              1181 	push	ar6
   02FB C0 07              1182 	push	ar7
   02FD 12s00r52           1183 	lcall	_update_parent
                           1184 ;	../../../core/net/rime/collect.c:404: new_rtmetric = rtmetric_compute(tc);
   0300 A8*00              1185 	mov	r0,_bp
   0302 08                 1186 	inc	r0
   0303 86 82              1187 	mov	dpl,@r0
   0305 08                 1188 	inc	r0
   0306 86 83              1189 	mov	dph,@r0
   0308 08                 1190 	inc	r0
   0309 86 F0              1191 	mov	b,@r0
   030B 12s00r00           1192 	lcall	_rtmetric_compute
   030E AA 82              1193 	mov	r2,dpl
   0310 AB 83              1194 	mov	r3,dph
   0312 D0 07              1195 	pop	ar7
   0314 D0 06              1196 	pop	ar6
   0316 D0 05              1197 	pop	ar5
   0318 E5*00              1198 	mov	a,_bp
   031A 24 06              1199 	add	a,#0x06
   031C F8                 1200 	mov	r0,a
   031D A6 02              1201 	mov	@r0,ar2
   031F 08                 1202 	inc	r0
   0320 A6 03              1203 	mov	@r0,ar3
                           1204 ;	../../../core/net/rime/collect.c:407: if(new_rtmetric == RTMETRIC_SINK) {
   0322 E5*00              1205 	mov	a,_bp
   0324 24 06              1206 	add	a,#0x06
   0326 F8                 1207 	mov	r0,a
   0327 E6                 1208 	mov	a,@r0
   0328 08                 1209 	inc	r0
   0329 46                 1210 	orl	a,@r0
   032A 70 0A              1211 	jnz	00102$
                           1212 ;	../../../core/net/rime/collect.c:413: new_rtmetric = RTMETRIC_MAX;
   032C E5*00              1213 	mov	a,_bp
   032E 24 06              1214 	add	a,#0x06
   0330 F8                 1215 	mov	r0,a
   0331 76 FF              1216 	mov	@r0,#0xFF
   0333 08                 1217 	inc	r0
   0334 76 0F              1218 	mov	@r0,#0x0F
   0336                    1219 00102$:
                           1220 ;	../../../core/net/rime/collect.c:418: tc->rtmetric = new_rtmetric;
   0336 8D 82              1221 	mov	dpl,r5
   0338 8E 83              1222 	mov	dph,r6
   033A 8F F0              1223 	mov	b,r7
   033C E5*00              1224 	mov	a,_bp
   033E 24 06              1225 	add	a,#0x06
   0340 F8                 1226 	mov	r0,a
   0341 E6                 1227 	mov	a,@r0
   0342 12s00r00           1228 	lcall	__gptrput
   0345 A3                 1229 	inc	dptr
   0346 08                 1230 	inc	r0
   0347 E6                 1231 	mov	a,@r0
   0348 12s00r00           1232 	lcall	__gptrput
                           1233 ;	../../../core/net/rime/collect.c:420: if(tc->is_router) {
   034B C0 05              1234 	push	ar5
   034D C0 06              1235 	push	ar6
   034F C0 07              1236 	push	ar7
   0351 A8*00              1237 	mov	r0,_bp
   0353 08                 1238 	inc	r0
   0354 74 BD              1239 	mov	a,#0xBD
   0356 26                 1240 	add	a,@r0
   0357 FB                 1241 	mov	r3,a
   0358 E4                 1242 	clr	a
   0359 08                 1243 	inc	r0
   035A 36                 1244 	addc	a,@r0
   035B FD                 1245 	mov	r5,a
   035C 08                 1246 	inc	r0
   035D 86 06              1247 	mov	ar6,@r0
   035F 8B 82              1248 	mov	dpl,r3
   0361 8D 83              1249 	mov	dph,r5
   0363 8E F0              1250 	mov	b,r6
   0365 12s00r00           1251 	lcall	__gptrget
   0368 D0 07              1252 	pop	ar7
   036A D0 06              1253 	pop	ar6
   036C D0 05              1254 	pop	ar5
   036E 60 65              1255 	jz	00107$
                           1256 ;	../../../core/net/rime/collect.c:426: neighbor_discovery_set_val(&tc->neighbor_discovery_conn, tc->rtmetric);
   0370 8D 82              1257 	mov	dpl,r5
   0372 8E 83              1258 	mov	dph,r6
   0374 8F F0              1259 	mov	b,r7
   0376 12s00r00           1260 	lcall	__gptrget
   0379 FD                 1261 	mov	r5,a
   037A A3                 1262 	inc	dptr
   037B 12s00r00           1263 	lcall	__gptrget
   037E FE                 1264 	mov	r6,a
   037F A8*00              1265 	mov	r0,_bp
   0381 08                 1266 	inc	r0
   0382 74 12              1267 	mov	a,#0x12
   0384 26                 1268 	add	a,@r0
   0385 FB                 1269 	mov	r3,a
   0386 E4                 1270 	clr	a
   0387 08                 1271 	inc	r0
   0388 36                 1272 	addc	a,@r0
   0389 FF                 1273 	mov	r7,a
   038A 08                 1274 	inc	r0
   038B 86 02              1275 	mov	ar2,@r0
   038D C0 05              1276 	push	ar5
   038F C0 06              1277 	push	ar6
   0391 8B 82              1278 	mov	dpl,r3
   0393 8F 83              1279 	mov	dph,r7
   0395 8A F0              1280 	mov	b,r2
   0397 12s00r00           1281 	lcall	_neighbor_discovery_set_val
   039A 15 81              1282 	dec	sp
   039C 15 81              1283 	dec	sp
                           1284 ;	../../../core/net/rime/collect.c:432: if((new_rtmetric < old_rtmetric - SIGNIFICANT_RTMETRIC_PARENT_CHANGE) &&
   039E E5*00              1285 	mov	a,_bp
   03A0 24 04              1286 	add	a,#0x04
   03A2 F8                 1287 	mov	r0,a
   03A3 E6                 1288 	mov	a,@r0
   03A4 24 F4              1289 	add	a,#0xf4
   03A6 FA                 1290 	mov	r2,a
   03A7 08                 1291 	inc	r0
   03A8 E6                 1292 	mov	a,@r0
   03A9 34 FF              1293 	addc	a,#0xff
   03AB FB                 1294 	mov	r3,a
   03AC E5*00              1295 	mov	a,_bp
   03AE 24 06              1296 	add	a,#0x06
   03B0 F8                 1297 	mov	r0,a
   03B1 C3                 1298 	clr	c
   03B2 E6                 1299 	mov	a,@r0
   03B3 9A                 1300 	subb	a,r2
   03B4 08                 1301 	inc	r0
   03B5 E6                 1302 	mov	a,@r0
   03B6 9B                 1303 	subb	a,r3
   03B7 50 1C              1304 	jnc	00107$
                           1305 ;	../../../core/net/rime/collect.c:433: (old_rtmetric > SIGNIFICANT_RTMETRIC_PARENT_CHANGE)) {
   03B9 E5*00              1306 	mov	a,_bp
   03BB 24 04              1307 	add	a,#0x04
   03BD F8                 1308 	mov	r0,a
   03BE C3                 1309 	clr	c
   03BF 74 0C              1310 	mov	a,#0x0C
   03C1 96                 1311 	subb	a,@r0
   03C2 E4                 1312 	clr	a
   03C3 08                 1313 	inc	r0
   03C4 96                 1314 	subb	a,@r0
   03C5 50 0E              1315 	jnc	00107$
                           1316 ;	../../../core/net/rime/collect.c:436: bump_advertisement(tc);
   03C7 A8*00              1317 	mov	r0,_bp
   03C9 08                 1318 	inc	r0
   03CA 86 82              1319 	mov	dpl,@r0
   03CC 08                 1320 	inc	r0
   03CD 86 83              1321 	mov	dph,@r0
   03CF 08                 1322 	inc	r0
   03D0 86 F0              1323 	mov	b,@r0
   03D2 12s02r77           1324 	lcall	_bump_advertisement
   03D5                    1325 00107$:
                           1326 ;	../../../core/net/rime/collect.c:445: if(old_rtmetric == RTMETRIC_MAX && new_rtmetric != RTMETRIC_MAX) {
   03D5 E5*00              1327 	mov	a,_bp
   03D7 24 04              1328 	add	a,#0x04
   03D9 F8                 1329 	mov	r0,a
   03DA B6 FF 20           1330 	cjne	@r0,#0xFF,00117$
   03DD 08                 1331 	inc	r0
   03DE B6 0F 1C           1332 	cjne	@r0,#0x0F,00117$
   03E1 E5*00              1333 	mov	a,_bp
   03E3 24 06              1334 	add	a,#0x06
   03E5 F8                 1335 	mov	r0,a
   03E6 B6 FF 06           1336 	cjne	@r0,#0xFF,00133$
   03E9 08                 1337 	inc	r0
   03EA B6 0F 02           1338 	cjne	@r0,#0x0F,00133$
   03ED 80 0E              1339 	sjmp	00117$
   03EF                    1340 00133$:
                           1341 ;	../../../core/net/rime/collect.c:447: send_queued_packet(tc);
   03EF A8*00              1342 	mov	r0,_bp
   03F1 08                 1343 	inc	r0
   03F2 86 82              1344 	mov	dpl,@r0
   03F4 08                 1345 	inc	r0
   03F5 86 83              1346 	mov	dph,@r0
   03F7 08                 1347 	inc	r0
   03F8 86 F0              1348 	mov	b,@r0
   03FA 12s05r16           1349 	lcall	_send_queued_packet
                           1350 ;	../../../core/net/rime/collect.c:451: printf("#A rt=%d,p=%d\n", tc->rtmetric, tc->parent.u8[0]);
   03FD                    1351 00117$:
   03FD 85*00 81           1352 	mov	sp,_bp
   0400 D0*00              1353 	pop	_bp
   0402 22                 1354 	ret
                           1355 ;------------------------------------------------------------
                           1356 ;Allocation info for local variables in function 'enqueue_dummy_packet'
                           1357 ;------------------------------------------------------------
                           1358 ;rexmits                   Allocated to stack - offset -4
                           1359 ;c                         Allocated to stack - offset 1
                           1360 ;n                         Allocated to registers r2 r3 r4 
                           1361 ;------------------------------------------------------------
                           1362 ;	../../../core/net/rime/collect.c:459: enqueue_dummy_packet(struct collect_conn *c, int rexmits)
                           1363 ;	-----------------------------------------
                           1364 ;	 function enqueue_dummy_packet
                           1365 ;	-----------------------------------------
   0403                    1366 _enqueue_dummy_packet:
   0403 C0*00              1367 	push	_bp
   0405 85 81*00           1368 	mov	_bp,sp
   0408 C0 82              1369 	push	dpl
   040A C0 83              1370 	push	dph
   040C C0 F0              1371 	push	b
                           1372 ;	../../../core/net/rime/collect.c:463: packetbuf_clear();
   040E 12s00r00           1373 	lcall	_packetbuf_clear
                           1374 ;	../../../core/net/rime/collect.c:464: packetbuf_set_attr(PACKETBUF_ATTR_EPACKET_ID, c->eseqno - 1);
   0411 A8*00              1375 	mov	r0,_bp
   0413 08                 1376 	inc	r0
   0414 74 BC              1377 	mov	a,#0xBC
   0416 26                 1378 	add	a,@r0
   0417 FD                 1379 	mov	r5,a
   0418 E4                 1380 	clr	a
   0419 08                 1381 	inc	r0
   041A 36                 1382 	addc	a,@r0
   041B FE                 1383 	mov	r6,a
   041C 08                 1384 	inc	r0
   041D 86 07              1385 	mov	ar7,@r0
   041F 8D 82              1386 	mov	dpl,r5
   0421 8E 83              1387 	mov	dph,r6
   0423 8F F0              1388 	mov	b,r7
   0425 12s00r00           1389 	lcall	__gptrget
   0428 FD                 1390 	mov	r5,a
   0429 7E 00              1391 	mov	r6,#0x00
   042B 1D                 1392 	dec	r5
   042C BD FF 01           1393 	cjne	r5,#0xff,00106$
   042F 1E                 1394 	dec	r6
   0430                    1395 00106$:
   0430 C0 05              1396 	push	ar5
   0432 C0 06              1397 	push	ar6
   0434 75 82 15           1398 	mov	dpl,#0x15
   0437 12s00r00           1399 	lcall	_packetbuf_set_attr
   043A 15 81              1400 	dec	sp
   043C 15 81              1401 	dec	sp
                           1402 ;	../../../core/net/rime/collect.c:465: packetbuf_set_addr(PACKETBUF_ADDR_ESENDER, &rimeaddr_node_addr);
   043E 74r00              1403 	mov	a,#_rimeaddr_node_addr
   0440 C0 E0              1404 	push	acc
   0442 74s00              1405 	mov	a,#(_rimeaddr_node_addr >> 8)
   0444 C0 E0              1406 	push	acc
   0446 E4                 1407 	clr	a
   0447 C0 E0              1408 	push	acc
   0449 75 82 1A           1409 	mov	dpl,#0x1A
   044C 12s00r00           1410 	lcall	_packetbuf_set_addr
   044F 15 81              1411 	dec	sp
   0451 15 81              1412 	dec	sp
   0453 15 81              1413 	dec	sp
                           1414 ;	../../../core/net/rime/collect.c:466: packetbuf_set_attr(PACKETBUF_ATTR_HOPS, 1);
   0455 74 01              1415 	mov	a,#0x01
   0457 C0 E0              1416 	push	acc
   0459 E4                 1417 	clr	a
   045A C0 E0              1418 	push	acc
   045C 75 82 13           1419 	mov	dpl,#0x13
   045F 12s00r00           1420 	lcall	_packetbuf_set_attr
   0462 15 81              1421 	dec	sp
   0464 15 81              1422 	dec	sp
                           1423 ;	../../../core/net/rime/collect.c:467: packetbuf_set_attr(PACKETBUF_ATTR_TTL, 1);
   0466 74 01              1424 	mov	a,#0x01
   0468 C0 E0              1425 	push	acc
   046A E4                 1426 	clr	a
   046B C0 E0              1427 	push	acc
   046D 75 82 14           1428 	mov	dpl,#0x14
   0470 12s00r00           1429 	lcall	_packetbuf_set_attr
   0473 15 81              1430 	dec	sp
   0475 15 81              1431 	dec	sp
                           1432 ;	../../../core/net/rime/collect.c:468: packetbuf_set_attr(PACKETBUF_ATTR_MAX_REXMIT, rexmits);
   0477 E5*00              1433 	mov	a,_bp
   0479 24 FC              1434 	add	a,#0xfc
   047B F8                 1435 	mov	r0,a
   047C 86 05              1436 	mov	ar5,@r0
   047E 08                 1437 	inc	r0
   047F 86 06              1438 	mov	ar6,@r0
   0481 C0 05              1439 	push	ar5
   0483 C0 06              1440 	push	ar6
   0485 75 82 10           1441 	mov	dpl,#0x10
   0488 12s00r00           1442 	lcall	_packetbuf_set_attr
   048B 15 81              1443 	dec	sp
   048D 15 81              1444 	dec	sp
                           1445 ;	../../../core/net/rime/collect.c:476: packetbuf_hdralloc(sizeof(struct data_msg_hdr));
   048F 90 00 04           1446 	mov	dptr,#0x0004
   0492 12s00r00           1447 	lcall	_packetbuf_hdralloc
                           1448 ;	../../../core/net/rime/collect.c:478: n = collect_neighbor_list_find(&c->neighbor_list, &c->parent);
   0495 A8*00              1449 	mov	r0,_bp
   0497 08                 1450 	inc	r0
   0498 74 B2              1451 	mov	a,#0xB2
   049A 26                 1452 	add	a,@r0
   049B FD                 1453 	mov	r5,a
   049C E4                 1454 	clr	a
   049D 08                 1455 	inc	r0
   049E 36                 1456 	addc	a,@r0
   049F FE                 1457 	mov	r6,a
   04A0 08                 1458 	inc	r0
   04A1 86 07              1459 	mov	ar7,@r0
   04A3 A8*00              1460 	mov	r0,_bp
   04A5 08                 1461 	inc	r0
   04A6 74 7C              1462 	mov	a,#0x7C
   04A8 26                 1463 	add	a,@r0
   04A9 FA                 1464 	mov	r2,a
   04AA E4                 1465 	clr	a
   04AB 08                 1466 	inc	r0
   04AC 36                 1467 	addc	a,@r0
   04AD FB                 1468 	mov	r3,a
   04AE 08                 1469 	inc	r0
   04AF 86 04              1470 	mov	ar4,@r0
   04B1 C0 05              1471 	push	ar5
   04B3 C0 06              1472 	push	ar6
   04B5 C0 07              1473 	push	ar7
   04B7 8A 82              1474 	mov	dpl,r2
   04B9 8B 83              1475 	mov	dph,r3
   04BB 8C F0              1476 	mov	b,r4
   04BD 12s00r00           1477 	lcall	_collect_neighbor_list_find
   04C0 AA 82              1478 	mov	r2,dpl
   04C2 AB 83              1479 	mov	r3,dph
   04C4 AC F0              1480 	mov	r4,b
   04C6 15 81              1481 	dec	sp
   04C8 15 81              1482 	dec	sp
   04CA 15 81              1483 	dec	sp
                           1484 ;	../../../core/net/rime/collect.c:479: if(n != NULL) {
   04CC EA                 1485 	mov	a,r2
   04CD 4B                 1486 	orl	a,r3
   04CE 4C                 1487 	orl	a,r4
   04CF 60 3C              1488 	jz	00102$
                           1489 ;	../../../core/net/rime/collect.c:480: return packetqueue_enqueue_packetbuf(&c->send_queue,
   04D1 A8*00              1490 	mov	r0,_bp
   04D3 08                 1491 	inc	r0
   04D4 74 76              1492 	mov	a,#0x76
   04D6 26                 1493 	add	a,@r0
   04D7 FA                 1494 	mov	r2,a
   04D8 E4                 1495 	clr	a
   04D9 08                 1496 	inc	r0
   04DA 36                 1497 	addc	a,@r0
   04DB FB                 1498 	mov	r3,a
   04DC 08                 1499 	inc	r0
   04DD 86 04              1500 	mov	ar4,@r0
   04DF A8*00              1501 	mov	r0,_bp
   04E1 08                 1502 	inc	r0
   04E2 E6                 1503 	mov	a,@r0
   04E3 C0 E0              1504 	push	acc
   04E5 08                 1505 	inc	r0
   04E6 E6                 1506 	mov	a,@r0
   04E7 C0 E0              1507 	push	acc
   04E9 08                 1508 	inc	r0
   04EA E6                 1509 	mov	a,@r0
   04EB C0 E0              1510 	push	acc
   04ED E4                 1511 	clr	a
   04EE C0 E0              1512 	push	acc
   04F0 74 3C              1513 	mov	a,#0x3C
   04F2 C0 E0              1514 	push	acc
   04F4 8A 82              1515 	mov	dpl,r2
   04F6 8B 83              1516 	mov	dph,r3
   04F8 8C F0              1517 	mov	b,r4
   04FA 12s00r00           1518 	lcall	_packetqueue_enqueue_packetbuf
   04FD AA 82              1519 	mov	r2,dpl
   04FF AB 83              1520 	mov	r3,dph
   0501 E5 81              1521 	mov	a,sp
   0503 24 FB              1522 	add	a,#0xfb
   0505 F5 81              1523 	mov	sp,a
   0507 8A 82              1524 	mov	dpl,r2
   0509 8B 83              1525 	mov	dph,r3
   050B 80 03              1526 	sjmp	00103$
   050D                    1527 00102$:
                           1528 ;	../../../core/net/rime/collect.c:484: return 0;
   050D 90 00 00           1529 	mov	dptr,#0x0000
   0510                    1530 00103$:
   0510 85*00 81           1531 	mov	sp,_bp
   0513 D0*00              1532 	pop	_bp
   0515 22                 1533 	ret
                           1534 ;------------------------------------------------------------
                           1535 ;Allocation info for local variables in function 'send_queued_packet'
                           1536 ;------------------------------------------------------------
                           1537 ;c                         Allocated to stack - offset 1
                           1538 ;q                         Allocated to registers r2 r3 r4 
                           1539 ;n                         Allocated to stack - offset 4
                           1540 ;i                         Allocated to registers r2 r3 r4 
                           1541 ;hdr                       Allocated to stack - offset 7
                           1542 ;max_mac_rexmits           Allocated to registers r3 r2 
                           1543 ;n                         Allocated to registers r5 r6 r7 
                           1544 ;current_parent            Allocated to stack - offset 11
                           1545 ;sloc0                     Allocated to stack - offset 13
                           1546 ;sloc1                     Allocated to stack - offset 16
                           1547 ;sloc2                     Allocated to stack - offset 18
                           1548 ;------------------------------------------------------------
                           1549 ;	../../../core/net/rime/collect.c:495: send_queued_packet(struct collect_conn *c)
                           1550 ;	-----------------------------------------
                           1551 ;	 function send_queued_packet
                           1552 ;	-----------------------------------------
   0516                    1553 _send_queued_packet:
   0516 C0*00              1554 	push	_bp
   0518 85 81*00           1555 	mov	_bp,sp
   051B C0 82              1556 	push	dpl
   051D C0 83              1557 	push	dph
   051F C0 F0              1558 	push	b
   0521 E5 81              1559 	mov	a,sp
   0523 24 14              1560 	add	a,#0x14
   0525 F5 81              1561 	mov	sp,a
                           1562 ;	../../../core/net/rime/collect.c:505: if(c->sending) {
   0527 A8*00              1563 	mov	r0,_bp
   0529 08                 1564 	inc	r0
   052A 74 B9              1565 	mov	a,#0xB9
   052C 26                 1566 	add	a,@r0
   052D FD                 1567 	mov	r5,a
   052E E4                 1568 	clr	a
   052F 08                 1569 	inc	r0
   0530 36                 1570 	addc	a,@r0
   0531 FE                 1571 	mov	r6,a
   0532 08                 1572 	inc	r0
   0533 86 07              1573 	mov	ar7,@r0
   0535 8D 82              1574 	mov	dpl,r5
   0537 8E 83              1575 	mov	dph,r6
   0539 8F F0              1576 	mov	b,r7
   053B 12s00r00           1577 	lcall	__gptrget
   053E 60 03              1578 	jz	00102$
                           1579 ;	../../../core/net/rime/collect.c:508: return;
   0540 02s09rDE           1580 	ljmp	00120$
   0543                    1581 00102$:
                           1582 ;	../../../core/net/rime/collect.c:513: i = packetqueue_first(&c->send_queue);
   0543 C0 05              1583 	push	ar5
   0545 C0 06              1584 	push	ar6
   0547 C0 07              1585 	push	ar7
   0549 A8*00              1586 	mov	r0,_bp
   054B 08                 1587 	inc	r0
   054C 74 76              1588 	mov	a,#0x76
   054E 26                 1589 	add	a,@r0
   054F FD                 1590 	mov	r5,a
   0550 E4                 1591 	clr	a
   0551 08                 1592 	inc	r0
   0552 36                 1593 	addc	a,@r0
   0553 FE                 1594 	mov	r6,a
   0554 08                 1595 	inc	r0
   0555 86 07              1596 	mov	ar7,@r0
   0557 8D 82              1597 	mov	dpl,r5
   0559 8E 83              1598 	mov	dph,r6
   055B 8F F0              1599 	mov	b,r7
   055D 12s00r00           1600 	lcall	_packetqueue_first
   0560 AD 82              1601 	mov	r5,dpl
   0562 AE 83              1602 	mov	r6,dph
   0564 AF F0              1603 	mov	r7,b
   0566 8D 02              1604 	mov	ar2,r5
   0568 8E 03              1605 	mov	ar3,r6
   056A 8F 04              1606 	mov	ar4,r7
                           1607 ;	../../../core/net/rime/collect.c:514: if(i == NULL) {
   056C D0 07              1608 	pop	ar7
   056E D0 06              1609 	pop	ar6
   0570 D0 05              1610 	pop	ar5
   0572 EA                 1611 	mov	a,r2
   0573 4B                 1612 	orl	a,r3
   0574 4C                 1613 	orl	a,r4
   0575 60 03              1614 	jz	00136$
   0577 02s07r7A           1615 	ljmp	00111$
   057A                    1616 00136$:
                           1617 ;	../../../core/net/rime/collect.c:523: if(timer_expired(&c->proactive_maintenence_timer)) {
   057A A8*00              1618 	mov	r0,_bp
   057C 08                 1619 	inc	r0
   057D 74 AE              1620 	mov	a,#0xAE
   057F 26                 1621 	add	a,@r0
   0580 FA                 1622 	mov	r2,a
   0581 E4                 1623 	clr	a
   0582 08                 1624 	inc	r0
   0583 36                 1625 	addc	a,@r0
   0584 FB                 1626 	mov	r3,a
   0585 08                 1627 	inc	r0
   0586 86 04              1628 	mov	ar4,@r0
   0588 8A 82              1629 	mov	dpl,r2
   058A 8B 83              1630 	mov	dph,r3
   058C 8C F0              1631 	mov	b,r4
   058E 12s00r00           1632 	lcall	_timer_expired
   0591 E5 82              1633 	mov	a,dpl
   0593 85 83 F0           1634 	mov	b,dph
   0596 45 F0              1635 	orl	a,b
   0598 70 03              1636 	jnz	00137$
   059A 02s07r77           1637 	ljmp	00109$
   059D                    1638 00137$:
                           1639 ;	../../../core/net/rime/collect.c:526: timer_set(&c->proactive_maintenence_timer,
   059D A8*00              1640 	mov	r0,_bp
   059F 08                 1641 	inc	r0
   05A0 74 AE              1642 	mov	a,#0xAE
   05A2 26                 1643 	add	a,@r0
   05A3 FA                 1644 	mov	r2,a
   05A4 E4                 1645 	clr	a
   05A5 08                 1646 	inc	r0
   05A6 36                 1647 	addc	a,@r0
   05A7 FB                 1648 	mov	r3,a
   05A8 08                 1649 	inc	r0
   05A9 86 04              1650 	mov	ar4,@r0
   05AB E4                 1651 	clr	a
   05AC C0 E0              1652 	push	acc
   05AE 74 1E              1653 	mov	a,#0x1E
   05B0 C0 E0              1654 	push	acc
   05B2 8A 82              1655 	mov	dpl,r2
   05B4 8B 83              1656 	mov	dph,r3
   05B6 8C F0              1657 	mov	b,r4
   05B8 12s00r00           1658 	lcall	_timer_set
   05BB 15 81              1659 	dec	sp
   05BD 15 81              1660 	dec	sp
                           1661 ;	../../../core/net/rime/collect.c:530: for(n = list_head(collect_neighbor_list(&c->neighbor_list));
   05BF A8*00              1662 	mov	r0,_bp
   05C1 08                 1663 	inc	r0
   05C2 74 7C              1664 	mov	a,#0x7C
   05C4 26                 1665 	add	a,@r0
   05C5 FA                 1666 	mov	r2,a
   05C6 E4                 1667 	clr	a
   05C7 08                 1668 	inc	r0
   05C8 36                 1669 	addc	a,@r0
   05C9 FB                 1670 	mov	r3,a
   05CA 08                 1671 	inc	r0
   05CB 86 04              1672 	mov	ar4,@r0
   05CD 8A 82              1673 	mov	dpl,r2
   05CF 8B 83              1674 	mov	dph,r3
   05D1 8C F0              1675 	mov	b,r4
   05D3 12s00r00           1676 	lcall	_collect_neighbor_list
   05D6 12s00r00           1677 	lcall	_list_head
   05D9 AA 82              1678 	mov	r2,dpl
   05DB AB 83              1679 	mov	r3,dph
   05DD AC F0              1680 	mov	r4,b
   05DF 8A 05              1681 	mov	ar5,r2
   05E1 8B 06              1682 	mov	ar6,r3
   05E3 8C 07              1683 	mov	ar7,r4
   05E5 A8*00              1684 	mov	r0,_bp
   05E7 08                 1685 	inc	r0
   05E8 E5*00              1686 	mov	a,_bp
   05EA 24 0D              1687 	add	a,#0x0d
   05EC F9                 1688 	mov	r1,a
   05ED 74 B6              1689 	mov	a,#0xB6
   05EF 26                 1690 	add	a,@r0
   05F0 F7                 1691 	mov	@r1,a
   05F1 E4                 1692 	clr	a
   05F2 08                 1693 	inc	r0
   05F3 36                 1694 	addc	a,@r0
   05F4 09                 1695 	inc	r1
   05F5 F7                 1696 	mov	@r1,a
   05F6 08                 1697 	inc	r0
   05F7 09                 1698 	inc	r1
   05F8 E6                 1699 	mov	a,@r0
   05F9 F7                 1700 	mov	@r1,a
   05FA                    1701 00116$:
                           1702 ;	../../../core/net/rime/collect.c:531: n != NULL; n = list_item_next(n)) {
   05FA BD 00 09           1703 	cjne	r5,#0x00,00138$
   05FD BE 00 06           1704 	cjne	r6,#0x00,00138$
   0600 BF 00 03           1705 	cjne	r7,#0x00,00138$
   0603 02s07r77           1706 	ljmp	00109$
   0606                    1707 00138$:
                           1708 ;	../../../core/net/rime/collect.c:532: if(n->rtmetric + COLLECT_LINK_ESTIMATE_UNIT < c->rtmetric &&
   0606 74 05              1709 	mov	a,#0x05
   0608 2D                 1710 	add	a,r5
   0609 FA                 1711 	mov	r2,a
   060A E4                 1712 	clr	a
   060B 3E                 1713 	addc	a,r6
   060C FB                 1714 	mov	r3,a
   060D 8F 04              1715 	mov	ar4,r7
   060F 8A 82              1716 	mov	dpl,r2
   0611 8B 83              1717 	mov	dph,r3
   0613 8C F0              1718 	mov	b,r4
   0615 12s00r00           1719 	lcall	__gptrget
   0618 FA                 1720 	mov	r2,a
   0619 A3                 1721 	inc	dptr
   061A 12s00r00           1722 	lcall	__gptrget
   061D FB                 1723 	mov	r3,a
   061E E5*00              1724 	mov	a,_bp
   0620 24 10              1725 	add	a,#0x10
   0622 F8                 1726 	mov	r0,a
   0623 74 08              1727 	mov	a,#0x08
   0625 2A                 1728 	add	a,r2
   0626 F6                 1729 	mov	@r0,a
   0627 E4                 1730 	clr	a
   0628 3B                 1731 	addc	a,r3
   0629 08                 1732 	inc	r0
   062A F6                 1733 	mov	@r0,a
   062B E5*00              1734 	mov	a,_bp
   062D 24 0D              1735 	add	a,#0x0d
   062F F8                 1736 	mov	r0,a
   0630 86 82              1737 	mov	dpl,@r0
   0632 08                 1738 	inc	r0
   0633 86 83              1739 	mov	dph,@r0
   0635 08                 1740 	inc	r0
   0636 86 F0              1741 	mov	b,@r0
   0638 12s00r00           1742 	lcall	__gptrget
   063B FC                 1743 	mov	r4,a
   063C A3                 1744 	inc	dptr
   063D 12s00r00           1745 	lcall	__gptrget
   0640 FA                 1746 	mov	r2,a
   0641 E5*00              1747 	mov	a,_bp
   0643 24 10              1748 	add	a,#0x10
   0645 F8                 1749 	mov	r0,a
   0646 C3                 1750 	clr	c
   0647 E6                 1751 	mov	a,@r0
   0648 9C                 1752 	subb	a,r4
   0649 08                 1753 	inc	r0
   064A E6                 1754 	mov	a,@r0
   064B 9A                 1755 	subb	a,r2
   064C 40 03              1756 	jc	00139$
   064E 02s07r5F           1757 	ljmp	00118$
   0651                    1758 00139$:
                           1759 ;	../../../core/net/rime/collect.c:533: collect_link_estimate_num_estimates(&n->le) == 0) {
   0651 74 0B              1760 	mov	a,#0x0B
   0653 2D                 1761 	add	a,r5
   0654 FA                 1762 	mov	r2,a
   0655 E4                 1763 	clr	a
   0656 3E                 1764 	addc	a,r6
   0657 FB                 1765 	mov	r3,a
   0658 8F 04              1766 	mov	ar4,r7
   065A 8A 82              1767 	mov	dpl,r2
   065C 8B 83              1768 	mov	dph,r3
   065E 8C F0              1769 	mov	b,r4
   0660 C0 05              1770 	push	ar5
   0662 C0 06              1771 	push	ar6
   0664 C0 07              1772 	push	ar7
   0666 12s00r00           1773 	lcall	_collect_link_estimate_num_estimates
   0669 E5 82              1774 	mov	a,dpl
   066B 85 83 F0           1775 	mov	b,dph
   066E D0 07              1776 	pop	ar7
   0670 D0 06              1777 	pop	ar6
   0672 D0 05              1778 	pop	ar5
   0674 45 F0              1779 	orl	a,b
   0676 60 03              1780 	jz	00140$
   0678 02s07r5F           1781 	ljmp	00118$
   067B                    1782 00140$:
                           1783 ;	../../../core/net/rime/collect.c:539: rimeaddr_copy(&current_parent, &c->parent);
   067B A8*00              1784 	mov	r0,_bp
   067D 08                 1785 	inc	r0
   067E E5*00              1786 	mov	a,_bp
   0680 24 12              1787 	add	a,#0x12
   0682 F9                 1788 	mov	r1,a
   0683 74 B2              1789 	mov	a,#0xB2
   0685 26                 1790 	add	a,@r0
   0686 F7                 1791 	mov	@r1,a
   0687 E4                 1792 	clr	a
   0688 08                 1793 	inc	r0
   0689 36                 1794 	addc	a,@r0
   068A 09                 1795 	inc	r1
   068B F7                 1796 	mov	@r1,a
   068C 08                 1797 	inc	r0
   068D 09                 1798 	inc	r1
   068E E6                 1799 	mov	a,@r0
   068F F7                 1800 	mov	@r1,a
   0690 E5*00              1801 	mov	a,_bp
   0692 24 0B              1802 	add	a,#0x0b
   0694 FA                 1803 	mov	r2,a
   0695 7B 00              1804 	mov	r3,#0x00
   0697 7C 40              1805 	mov	r4,#0x40
   0699 C0 05              1806 	push	ar5
   069B C0 06              1807 	push	ar6
   069D C0 07              1808 	push	ar7
   069F E5*00              1809 	mov	a,_bp
   06A1 24 12              1810 	add	a,#0x12
   06A3 F8                 1811 	mov	r0,a
   06A4 E6                 1812 	mov	a,@r0
   06A5 C0 E0              1813 	push	acc
   06A7 08                 1814 	inc	r0
   06A8 E6                 1815 	mov	a,@r0
   06A9 C0 E0              1816 	push	acc
   06AB 08                 1817 	inc	r0
   06AC E6                 1818 	mov	a,@r0
   06AD C0 E0              1819 	push	acc
   06AF 8A 82              1820 	mov	dpl,r2
   06B1 8B 83              1821 	mov	dph,r3
   06B3 8C F0              1822 	mov	b,r4
   06B5 12s00r00           1823 	lcall	_rimeaddr_copy
   06B8 15 81              1824 	dec	sp
   06BA 15 81              1825 	dec	sp
   06BC 15 81              1826 	dec	sp
   06BE D0 07              1827 	pop	ar7
   06C0 D0 06              1828 	pop	ar6
   06C2 D0 05              1829 	pop	ar5
                           1830 ;	../../../core/net/rime/collect.c:540: rimeaddr_copy(&c->parent, &n->addr);
   06C4 E5*00              1831 	mov	a,_bp
   06C6 24 12              1832 	add	a,#0x12
   06C8 F8                 1833 	mov	r0,a
   06C9 74 03              1834 	mov	a,#0x03
   06CB 2D                 1835 	add	a,r5
   06CC F6                 1836 	mov	@r0,a
   06CD E4                 1837 	clr	a
   06CE 3E                 1838 	addc	a,r6
   06CF 08                 1839 	inc	r0
   06D0 F6                 1840 	mov	@r0,a
   06D1 08                 1841 	inc	r0
   06D2 A6 07              1842 	mov	@r0,ar7
   06D4 A8*00              1843 	mov	r0,_bp
   06D6 08                 1844 	inc	r0
   06D7 74 B2              1845 	mov	a,#0xB2
   06D9 26                 1846 	add	a,@r0
   06DA FA                 1847 	mov	r2,a
   06DB E4                 1848 	clr	a
   06DC 08                 1849 	inc	r0
   06DD 36                 1850 	addc	a,@r0
   06DE FB                 1851 	mov	r3,a
   06DF 08                 1852 	inc	r0
   06E0 86 04              1853 	mov	ar4,@r0
   06E2 E5*00              1854 	mov	a,_bp
   06E4 24 12              1855 	add	a,#0x12
   06E6 F8                 1856 	mov	r0,a
   06E7 E6                 1857 	mov	a,@r0
   06E8 C0 E0              1858 	push	acc
   06EA 08                 1859 	inc	r0
   06EB E6                 1860 	mov	a,@r0
   06EC C0 E0              1861 	push	acc
   06EE 08                 1862 	inc	r0
   06EF E6                 1863 	mov	a,@r0
   06F0 C0 E0              1864 	push	acc
   06F2 8A 82              1865 	mov	dpl,r2
   06F4 8B 83              1866 	mov	dph,r3
   06F6 8C F0              1867 	mov	b,r4
   06F8 12s00r00           1868 	lcall	_rimeaddr_copy
   06FB 15 81              1869 	dec	sp
   06FD 15 81              1870 	dec	sp
   06FF 15 81              1871 	dec	sp
                           1872 ;	../../../core/net/rime/collect.c:541: if(enqueue_dummy_packet(c, PROACTIVE_MAINTENANCE_REXMITS)) {
   0701 74 08              1873 	mov	a,#0x08
   0703 C0 E0              1874 	push	acc
   0705 E4                 1875 	clr	a
   0706 C0 E0              1876 	push	acc
   0708 A8*00              1877 	mov	r0,_bp
   070A 08                 1878 	inc	r0
   070B 86 82              1879 	mov	dpl,@r0
   070D 08                 1880 	inc	r0
   070E 86 83              1881 	mov	dph,@r0
   0710 08                 1882 	inc	r0
   0711 86 F0              1883 	mov	b,@r0
   0713 12s04r03           1884 	lcall	_enqueue_dummy_packet
   0716 AA 82              1885 	mov	r2,dpl
   0718 AB 83              1886 	mov	r3,dph
   071A 15 81              1887 	dec	sp
   071C 15 81              1888 	dec	sp
   071E EA                 1889 	mov	a,r2
   071F 4B                 1890 	orl	a,r3
   0720 60 0E              1891 	jz	00104$
                           1892 ;	../../../core/net/rime/collect.c:542: send_queued_packet(c);
   0722 A8*00              1893 	mov	r0,_bp
   0724 08                 1894 	inc	r0
   0725 86 82              1895 	mov	dpl,@r0
   0727 08                 1896 	inc	r0
   0728 86 83              1897 	mov	dph,@r0
   072A 08                 1898 	inc	r0
   072B 86 F0              1899 	mov	b,@r0
   072D 12s05r16           1900 	lcall	_send_queued_packet
   0730                    1901 00104$:
                           1902 ;	../../../core/net/rime/collect.c:544: rimeaddr_copy(&c->parent, &current_parent);
   0730 E5*00              1903 	mov	a,_bp
   0732 24 0B              1904 	add	a,#0x0b
   0734 FD                 1905 	mov	r5,a
   0735 7E 00              1906 	mov	r6,#0x00
   0737 7F 40              1907 	mov	r7,#0x40
   0739 A8*00              1908 	mov	r0,_bp
   073B 08                 1909 	inc	r0
   073C 74 B2              1910 	mov	a,#0xB2
   073E 26                 1911 	add	a,@r0
   073F FA                 1912 	mov	r2,a
   0740 E4                 1913 	clr	a
   0741 08                 1914 	inc	r0
   0742 36                 1915 	addc	a,@r0
   0743 FB                 1916 	mov	r3,a
   0744 08                 1917 	inc	r0
   0745 86 04              1918 	mov	ar4,@r0
   0747 C0 05              1919 	push	ar5
   0749 C0 06              1920 	push	ar6
   074B C0 07              1921 	push	ar7
   074D 8A 82              1922 	mov	dpl,r2
   074F 8B 83              1923 	mov	dph,r3
   0751 8C F0              1924 	mov	b,r4
   0753 12s00r00           1925 	lcall	_rimeaddr_copy
   0756 15 81              1926 	dec	sp
   0758 15 81              1927 	dec	sp
   075A 15 81              1928 	dec	sp
                           1929 ;	../../../core/net/rime/collect.c:545: return;
   075C 02s09rDE           1930 	ljmp	00120$
   075F                    1931 00118$:
                           1932 ;	../../../core/net/rime/collect.c:531: n != NULL; n = list_item_next(n)) {
   075F 8D 82              1933 	mov	dpl,r5
   0761 8E 83              1934 	mov	dph,r6
   0763 8F F0              1935 	mov	b,r7
   0765 12s00r00           1936 	lcall	_list_item_next
   0768 AA 82              1937 	mov	r2,dpl
   076A AB 83              1938 	mov	r3,dph
   076C AC F0              1939 	mov	r4,b
   076E 8A 05              1940 	mov	ar5,r2
   0770 8B 06              1941 	mov	ar6,r3
   0772 8C 07              1942 	mov	ar7,r4
   0774 02s05rFA           1943 	ljmp	00116$
   0777                    1944 00109$:
                           1945 ;	../../../core/net/rime/collect.c:549: return;
   0777 02s09rDE           1946 	ljmp	00120$
   077A                    1947 00111$:
                           1948 ;	../../../core/net/rime/collect.c:553: q = packetqueue_queuebuf(i);
   077A 8A 82              1949 	mov	dpl,r2
   077C 8B 83              1950 	mov	dph,r3
   077E 8C F0              1951 	mov	b,r4
   0780 C0 05              1952 	push	ar5
   0782 C0 06              1953 	push	ar6
   0784 C0 07              1954 	push	ar7
   0786 12s00r00           1955 	lcall	_packetqueue_queuebuf
   0789 AA 82              1956 	mov	r2,dpl
   078B AB 83              1957 	mov	r3,dph
   078D AC F0              1958 	mov	r4,b
   078F D0 07              1959 	pop	ar7
   0791 D0 06              1960 	pop	ar6
   0793 D0 05              1961 	pop	ar5
                           1962 ;	../../../core/net/rime/collect.c:554: if(q != NULL) {
   0795 EA                 1963 	mov	a,r2
   0796 4B                 1964 	orl	a,r3
   0797 4C                 1965 	orl	a,r4
   0798 70 03              1966 	jnz	00142$
   079A 02s09rDE           1967 	ljmp	00120$
   079D                    1968 00142$:
                           1969 ;	../../../core/net/rime/collect.c:556: queuebuf_to_packetbuf(q);
   079D C0 05              1970 	push	ar5
   079F C0 06              1971 	push	ar6
   07A1 C0 07              1972 	push	ar7
   07A3 8A 82              1973 	mov	dpl,r2
   07A5 8B 83              1974 	mov	dph,r3
   07A7 8C F0              1975 	mov	b,r4
   07A9 C0 05              1976 	push	ar5
   07AB C0 06              1977 	push	ar6
   07AD C0 07              1978 	push	ar7
   07AF 12s00r00           1979 	lcall	_queuebuf_to_packetbuf
   07B2 D0 07              1980 	pop	ar7
   07B4 D0 06              1981 	pop	ar6
   07B6 D0 05              1982 	pop	ar5
                           1983 ;	../../../core/net/rime/collect.c:560: n = collect_neighbor_list_find(&c->neighbor_list, &c->parent);
   07B8 A8*00              1984 	mov	r0,_bp
   07BA 08                 1985 	inc	r0
   07BB 74 B2              1986 	mov	a,#0xB2
   07BD 26                 1987 	add	a,@r0
   07BE FA                 1988 	mov	r2,a
   07BF E4                 1989 	clr	a
   07C0 08                 1990 	inc	r0
   07C1 36                 1991 	addc	a,@r0
   07C2 FB                 1992 	mov	r3,a
   07C3 08                 1993 	inc	r0
   07C4 86 04              1994 	mov	ar4,@r0
   07C6 A8*00              1995 	mov	r0,_bp
   07C8 08                 1996 	inc	r0
   07C9 74 7C              1997 	mov	a,#0x7C
   07CB 26                 1998 	add	a,@r0
   07CC FD                 1999 	mov	r5,a
   07CD E4                 2000 	clr	a
   07CE 08                 2001 	inc	r0
   07CF 36                 2002 	addc	a,@r0
   07D0 FE                 2003 	mov	r6,a
   07D1 08                 2004 	inc	r0
   07D2 86 07              2005 	mov	ar7,@r0
   07D4 C0 05              2006 	push	ar5
   07D6 C0 06              2007 	push	ar6
   07D8 C0 07              2008 	push	ar7
   07DA C0 02              2009 	push	ar2
   07DC C0 03              2010 	push	ar3
   07DE C0 04              2011 	push	ar4
   07E0 8D 82              2012 	mov	dpl,r5
   07E2 8E 83              2013 	mov	dph,r6
   07E4 8F F0              2014 	mov	b,r7
   07E6 12s00r00           2015 	lcall	_collect_neighbor_list_find
   07E9 AA 82              2016 	mov	r2,dpl
   07EB AB 83              2017 	mov	r3,dph
   07ED AC F0              2018 	mov	r4,b
   07EF 15 81              2019 	dec	sp
   07F1 15 81              2020 	dec	sp
   07F3 15 81              2021 	dec	sp
   07F5 D0 07              2022 	pop	ar7
   07F7 D0 06              2023 	pop	ar6
   07F9 D0 05              2024 	pop	ar5
   07FB E5*00              2025 	mov	a,_bp
   07FD 24 04              2026 	add	a,#0x04
   07FF F8                 2027 	mov	r0,a
   0800 A6 02              2028 	mov	@r0,ar2
   0802 08                 2029 	inc	r0
   0803 A6 03              2030 	mov	@r0,ar3
   0805 08                 2031 	inc	r0
   0806 A6 04              2032 	mov	@r0,ar4
                           2033 ;	../../../core/net/rime/collect.c:562: if(n != NULL) {
   0808 D0 07              2034 	pop	ar7
   080A D0 06              2035 	pop	ar6
   080C D0 05              2036 	pop	ar5
   080E E5*00              2037 	mov	a,_bp
   0810 24 04              2038 	add	a,#0x04
   0812 F8                 2039 	mov	r0,a
   0813 E6                 2040 	mov	a,@r0
   0814 08                 2041 	inc	r0
   0815 46                 2042 	orl	a,@r0
   0816 08                 2043 	inc	r0
   0817 46                 2044 	orl	a,@r0
   0818 70 03              2045 	jnz	00143$
   081A 02s09rDE           2046 	ljmp	00120$
   081D                    2047 00143$:
                           2048 ;	../../../core/net/rime/collect.c:574: c->sending = 1;
   081D 8D 82              2049 	mov	dpl,r5
   081F 8E 83              2050 	mov	dph,r6
   0821 8F F0              2051 	mov	b,r7
   0823 74 01              2052 	mov	a,#0x01
   0825 12s00r00           2053 	lcall	__gptrput
                           2054 ;	../../../core/net/rime/collect.c:577: rimeaddr_copy(&c->current_parent, &c->parent);
   0828 A8*00              2055 	mov	r0,_bp
   082A 08                 2056 	inc	r0
   082B 74 B2              2057 	mov	a,#0xB2
   082D 26                 2058 	add	a,@r0
   082E FA                 2059 	mov	r2,a
   082F E4                 2060 	clr	a
   0830 08                 2061 	inc	r0
   0831 36                 2062 	addc	a,@r0
   0832 FB                 2063 	mov	r3,a
   0833 08                 2064 	inc	r0
   0834 86 04              2065 	mov	ar4,@r0
   0836 A8*00              2066 	mov	r0,_bp
   0838 08                 2067 	inc	r0
   0839 74 B4              2068 	mov	a,#0xB4
   083B 26                 2069 	add	a,@r0
   083C FD                 2070 	mov	r5,a
   083D E4                 2071 	clr	a
   083E 08                 2072 	inc	r0
   083F 36                 2073 	addc	a,@r0
   0840 FE                 2074 	mov	r6,a
   0841 08                 2075 	inc	r0
   0842 86 07              2076 	mov	ar7,@r0
   0844 C0 02              2077 	push	ar2
   0846 C0 03              2078 	push	ar3
   0848 C0 04              2079 	push	ar4
   084A 8D 82              2080 	mov	dpl,r5
   084C 8E 83              2081 	mov	dph,r6
   084E 8F F0              2082 	mov	b,r7
   0850 12s00r00           2083 	lcall	_rimeaddr_copy
   0853 15 81              2084 	dec	sp
   0855 15 81              2085 	dec	sp
   0857 15 81              2086 	dec	sp
                           2087 ;	../../../core/net/rime/collect.c:581: c->transmissions = 0;
   0859 A8*00              2088 	mov	r0,_bp
   085B 08                 2089 	inc	r0
   085C 74 BA              2090 	mov	a,#0xBA
   085E 26                 2091 	add	a,@r0
   085F FA                 2092 	mov	r2,a
   0860 E4                 2093 	clr	a
   0861 08                 2094 	inc	r0
   0862 36                 2095 	addc	a,@r0
   0863 FB                 2096 	mov	r3,a
   0864 08                 2097 	inc	r0
   0865 86 04              2098 	mov	ar4,@r0
   0867 8A 82              2099 	mov	dpl,r2
   0869 8B 83              2100 	mov	dph,r3
   086B 8C F0              2101 	mov	b,r4
   086D E4                 2102 	clr	a
   086E 12s00r00           2103 	lcall	__gptrput
                           2104 ;	../../../core/net/rime/collect.c:586: c->max_rexmits = packetbuf_attr(PACKETBUF_ATTR_MAX_REXMIT);
   0871 A8*00              2105 	mov	r0,_bp
   0873 08                 2106 	inc	r0
   0874 74 BB              2107 	mov	a,#0xBB
   0876 26                 2108 	add	a,@r0
   0877 FA                 2109 	mov	r2,a
   0878 E4                 2110 	clr	a
   0879 08                 2111 	inc	r0
   087A 36                 2112 	addc	a,@r0
   087B FB                 2113 	mov	r3,a
   087C 08                 2114 	inc	r0
   087D 86 04              2115 	mov	ar4,@r0
   087F 75 82 10           2116 	mov	dpl,#0x10
   0882 C0 02              2117 	push	ar2
   0884 C0 03              2118 	push	ar3
   0886 C0 04              2119 	push	ar4
   0888 12s00r00           2120 	lcall	_packetbuf_attr
   088B AD 82              2121 	mov	r5,dpl
   088D D0 04              2122 	pop	ar4
   088F D0 03              2123 	pop	ar3
   0891 D0 02              2124 	pop	ar2
   0893 8A 82              2125 	mov	dpl,r2
   0895 8B 83              2126 	mov	dph,r3
   0897 8C F0              2127 	mov	b,r4
   0899 ED                 2128 	mov	a,r5
   089A 12s00r00           2129 	lcall	__gptrput
                           2130 ;	../../../core/net/rime/collect.c:592: packetbuf_set_attr(PACKETBUF_ATTR_RELIABLE, 1);
   089D C0 02              2131 	push	ar2
   089F C0 03              2132 	push	ar3
   08A1 C0 04              2133 	push	ar4
   08A3 74 01              2134 	mov	a,#0x01
   08A5 C0 E0              2135 	push	acc
   08A7 E4                 2136 	clr	a
   08A8 C0 E0              2137 	push	acc
   08AA 75 82 0C           2138 	mov	dpl,#0x0C
   08AD 12s00r00           2139 	lcall	_packetbuf_set_attr
   08B0 15 81              2140 	dec	sp
   08B2 15 81              2141 	dec	sp
   08B4 D0 04              2142 	pop	ar4
   08B6 D0 03              2143 	pop	ar3
   08B8 D0 02              2144 	pop	ar2
                           2145 ;	../../../core/net/rime/collect.c:594: max_mac_rexmits = c->max_rexmits > MAX_MAC_REXMITS?
   08BA 8A 82              2146 	mov	dpl,r2
   08BC 8B 83              2147 	mov	dph,r3
   08BE 8C F0              2148 	mov	b,r4
   08C0 12s00r00           2149 	lcall	__gptrget
   08C3 FA                 2150 	mov	r2,a
   08C4 74 02              2151 	mov	a,#0x02
   08C6 B5 02 00           2152 	cjne	a,ar2,00144$
   08C9                    2153 00144$:
   08C9 50 04              2154 	jnc	00122$
                           2155 ;	../../../core/net/rime/collect.c:595: MAX_MAC_REXMITS : c->max_rexmits;
   08CB 7B 02              2156 	mov	r3,#0x02
   08CD 80 02              2157 	sjmp	00123$
   08CF                    2158 00122$:
   08CF 8A 03              2159 	mov	ar3,r2
   08D1                    2160 00123$:
   08D1 7A 00              2161 	mov	r2,#0x00
                           2162 ;	../../../core/net/rime/collect.c:596: packetbuf_set_attr(PACKETBUF_ATTR_MAX_MAC_TRANSMISSIONS, max_mac_rexmits);
   08D3 C0 03              2163 	push	ar3
   08D5 C0 02              2164 	push	ar2
   08D7 75 82 09           2165 	mov	dpl,#0x09
   08DA 12s00r00           2166 	lcall	_packetbuf_set_attr
   08DD 15 81              2167 	dec	sp
   08DF 15 81              2168 	dec	sp
                           2169 ;	../../../core/net/rime/collect.c:597: packetbuf_set_attr(PACKETBUF_ATTR_PACKET_ID, c->seqno);
   08E1 A8*00              2170 	mov	r0,_bp
   08E3 08                 2171 	inc	r0
   08E4 74 B8              2172 	mov	a,#0xB8
   08E6 26                 2173 	add	a,@r0
   08E7 FA                 2174 	mov	r2,a
   08E8 E4                 2175 	clr	a
   08E9 08                 2176 	inc	r0
   08EA 36                 2177 	addc	a,@r0
   08EB FB                 2178 	mov	r3,a
   08EC 08                 2179 	inc	r0
   08ED 86 04              2180 	mov	ar4,@r0
   08EF 8A 82              2181 	mov	dpl,r2
   08F1 8B 83              2182 	mov	dph,r3
   08F3 8C F0              2183 	mov	b,r4
   08F5 12s00r00           2184 	lcall	__gptrget
   08F8 FA                 2185 	mov	r2,a
   08F9 7B 00              2186 	mov	r3,#0x00
   08FB C0 02              2187 	push	ar2
   08FD C0 03              2188 	push	ar3
   08FF 75 82 0D           2189 	mov	dpl,#0x0D
   0902 12s00r00           2190 	lcall	_packetbuf_set_attr
   0905 15 81              2191 	dec	sp
   0907 15 81              2192 	dec	sp
                           2193 ;	../../../core/net/rime/collect.c:599: stats.datasent++;
   0909 90s00rF9           2194 	mov	dptr,#(_stats + 0x0010)
   090C E0                 2195 	movx	a,@dptr
   090D FA                 2196 	mov	r2,a
   090E A3                 2197 	inc	dptr
   090F E0                 2198 	movx	a,@dptr
   0910 FB                 2199 	mov	r3,a
   0911 A3                 2200 	inc	dptr
   0912 E0                 2201 	movx	a,@dptr
   0913 FC                 2202 	mov	r4,a
   0914 A3                 2203 	inc	dptr
   0915 E0                 2204 	movx	a,@dptr
   0916 FD                 2205 	mov	r5,a
   0917 0A                 2206 	inc	r2
   0918 BA 00 09           2207 	cjne	r2,#0x00,00146$
   091B 0B                 2208 	inc	r3
   091C BB 00 05           2209 	cjne	r3,#0x00,00146$
   091F 0C                 2210 	inc	r4
   0920 BC 00 01           2211 	cjne	r4,#0x00,00146$
   0923 0D                 2212 	inc	r5
   0924                    2213 00146$:
   0924 90s00rF9           2214 	mov	dptr,#(_stats + 0x0010)
   0927 EA                 2215 	mov	a,r2
   0928 F0                 2216 	movx	@dptr,a
   0929 A3                 2217 	inc	dptr
   092A EB                 2218 	mov	a,r3
   092B F0                 2219 	movx	@dptr,a
   092C A3                 2220 	inc	dptr
   092D EC                 2221 	mov	a,r4
   092E F0                 2222 	movx	@dptr,a
   092F A3                 2223 	inc	dptr
   0930 ED                 2224 	mov	a,r5
   0931 F0                 2225 	movx	@dptr,a
                           2226 ;	../../../core/net/rime/collect.c:603: memset(&hdr, 0, sizeof(hdr));
   0932 E5*00              2227 	mov	a,_bp
   0934 24 07              2228 	add	a,#0x07
   0936 FA                 2229 	mov	r2,a
   0937 7B 00              2230 	mov	r3,#0x00
   0939 7C 40              2231 	mov	r4,#0x40
   093B 74 04              2232 	mov	a,#0x04
   093D C0 E0              2233 	push	acc
   093F E4                 2234 	clr	a
   0940 C0 E0              2235 	push	acc
   0942 E4                 2236 	clr	a
   0943 C0 E0              2237 	push	acc
   0945 8A 82              2238 	mov	dpl,r2
   0947 8B 83              2239 	mov	dph,r3
   0949 8C F0              2240 	mov	b,r4
   094B 12s00r00           2241 	lcall	_memset
   094E 15 81              2242 	dec	sp
   0950 15 81              2243 	dec	sp
   0952 15 81              2244 	dec	sp
                           2245 ;	../../../core/net/rime/collect.c:604: hdr.rtmetric = c->rtmetric;
   0954 E5*00              2246 	mov	a,_bp
   0956 24 07              2247 	add	a,#0x07
   0958 FA                 2248 	mov	r2,a
   0959 74 02              2249 	mov	a,#0x02
   095B 2A                 2250 	add	a,r2
   095C F8                 2251 	mov	r0,a
   095D A9*00              2252 	mov	r1,_bp
   095F 09                 2253 	inc	r1
   0960 74 B6              2254 	mov	a,#0xB6
   0962 27                 2255 	add	a,@r1
   0963 FB                 2256 	mov	r3,a
   0964 E4                 2257 	clr	a
   0965 09                 2258 	inc	r1
   0966 37                 2259 	addc	a,@r1
   0967 FC                 2260 	mov	r4,a
   0968 09                 2261 	inc	r1
   0969 87 05              2262 	mov	ar5,@r1
   096B 8B 82              2263 	mov	dpl,r3
   096D 8C 83              2264 	mov	dph,r4
   096F 8D F0              2265 	mov	b,r5
   0971 12s00r00           2266 	lcall	__gptrget
   0974 FB                 2267 	mov	r3,a
   0975 A3                 2268 	inc	dptr
   0976 12s00r00           2269 	lcall	__gptrget
   0979 FC                 2270 	mov	r4,a
   097A A6 03              2271 	mov	@r0,ar3
   097C 08                 2272 	inc	r0
   097D A6 04              2273 	mov	@r0,ar4
                           2274 ;	../../../core/net/rime/collect.c:605: memcpy(packetbuf_dataptr(), &hdr, sizeof(struct data_msg_hdr));
   097F 7B 00              2275 	mov	r3,#0x00
   0981 7C 40              2276 	mov	r4,#0x40
   0983 C0 02              2277 	push	ar2
   0985 C0 03              2278 	push	ar3
   0987 C0 04              2279 	push	ar4
   0989 12s00r00           2280 	lcall	_packetbuf_dataptr
   098C AD 82              2281 	mov	r5,dpl
   098E AE 83              2282 	mov	r6,dph
   0990 AF F0              2283 	mov	r7,b
   0992 D0 04              2284 	pop	ar4
   0994 D0 03              2285 	pop	ar3
   0996 D0 02              2286 	pop	ar2
   0998 74 04              2287 	mov	a,#0x04
   099A C0 E0              2288 	push	acc
   099C E4                 2289 	clr	a
   099D C0 E0              2290 	push	acc
   099F C0 02              2291 	push	ar2
   09A1 C0 03              2292 	push	ar3
   09A3 C0 04              2293 	push	ar4
   09A5 8D 82              2294 	mov	dpl,r5
   09A7 8E 83              2295 	mov	dph,r6
   09A9 8F F0              2296 	mov	b,r7
   09AB 12s00r00           2297 	lcall	_memcpy
   09AE E5 81              2298 	mov	a,sp
   09B0 24 FB              2299 	add	a,#0xfb
   09B2 F5 81              2300 	mov	sp,a
                           2301 ;	../../../core/net/rime/collect.c:608: unicast_send(&c->unicast_conn, &n->addr);
   09B4 E5*00              2302 	mov	a,_bp
   09B6 24 04              2303 	add	a,#0x04
   09B8 F8                 2304 	mov	r0,a
   09B9 74 03              2305 	mov	a,#0x03
   09BB 26                 2306 	add	a,@r0
   09BC FA                 2307 	mov	r2,a
   09BD E4                 2308 	clr	a
   09BE 08                 2309 	inc	r0
   09BF 36                 2310 	addc	a,@r0
   09C0 FB                 2311 	mov	r3,a
   09C1 08                 2312 	inc	r0
   09C2 86 04              2313 	mov	ar4,@r0
   09C4 C0 02              2314 	push	ar2
   09C6 C0 03              2315 	push	ar3
   09C8 C0 04              2316 	push	ar4
   09CA A8*00              2317 	mov	r0,_bp
   09CC 08                 2318 	inc	r0
   09CD 86 82              2319 	mov	dpl,@r0
   09CF 08                 2320 	inc	r0
   09D0 86 83              2321 	mov	dph,@r0
   09D2 08                 2322 	inc	r0
   09D3 86 F0              2323 	mov	b,@r0
   09D5 12s00r00           2324 	lcall	_unicast_send
   09D8 15 81              2325 	dec	sp
   09DA 15 81              2326 	dec	sp
   09DC 15 81              2327 	dec	sp
   09DE                    2328 00120$:
   09DE 85*00 81           2329 	mov	sp,_bp
   09E1 D0*00              2330 	pop	_bp
   09E3 22                 2331 	ret
                           2332 ;------------------------------------------------------------
                           2333 ;Allocation info for local variables in function 'retransmit_current_packet'
                           2334 ;------------------------------------------------------------
                           2335 ;c                         Allocated to stack - offset 1
                           2336 ;q                         Allocated to registers r5 r6 r7 
                           2337 ;n                         Allocated to stack - offset 4
                           2338 ;i                         Allocated to registers r5 r6 r7 
                           2339 ;hdr                       Allocated to stack - offset 7
                           2340 ;max_mac_rexmits           Allocated to registers 
                           2341 ;sloc0                     Allocated to stack - offset 19
                           2342 ;------------------------------------------------------------
                           2343 ;	../../../core/net/rime/collect.c:632: retransmit_current_packet(struct collect_conn *c)
                           2344 ;	-----------------------------------------
                           2345 ;	 function retransmit_current_packet
                           2346 ;	-----------------------------------------
   09E4                    2347 _retransmit_current_packet:
   09E4 C0*00              2348 	push	_bp
   09E6 85 81*00           2349 	mov	_bp,sp
   09E9 C0 82              2350 	push	dpl
   09EB C0 83              2351 	push	dph
   09ED C0 F0              2352 	push	b
   09EF E5 81              2353 	mov	a,sp
   09F1 24 0A              2354 	add	a,#0x0a
   09F3 F5 81              2355 	mov	sp,a
                           2356 ;	../../../core/net/rime/collect.c:642: i = packetqueue_first(&c->send_queue);
   09F5 A8*00              2357 	mov	r0,_bp
   09F7 08                 2358 	inc	r0
   09F8 74 76              2359 	mov	a,#0x76
   09FA 26                 2360 	add	a,@r0
   09FB FD                 2361 	mov	r5,a
   09FC E4                 2362 	clr	a
   09FD 08                 2363 	inc	r0
   09FE 36                 2364 	addc	a,@r0
   09FF FE                 2365 	mov	r6,a
   0A00 08                 2366 	inc	r0
   0A01 86 07              2367 	mov	ar7,@r0
   0A03 8D 82              2368 	mov	dpl,r5
   0A05 8E 83              2369 	mov	dph,r6
   0A07 8F F0              2370 	mov	b,r7
   0A09 12s00r00           2371 	lcall	_packetqueue_first
   0A0C AD 82              2372 	mov	r5,dpl
   0A0E AE 83              2373 	mov	r6,dph
   0A10 AF F0              2374 	mov	r7,b
                           2375 ;	../../../core/net/rime/collect.c:643: if(i == NULL) {
   0A12 ED                 2376 	mov	a,r5
   0A13 4E                 2377 	orl	a,r6
   0A14 4F                 2378 	orl	a,r7
   0A15 70 03              2379 	jnz	00102$
                           2380 ;	../../../core/net/rime/collect.c:647: return;
   0A17 02s0Cr8A           2381 	ljmp	00109$
   0A1A                    2382 00102$:
                           2383 ;	../../../core/net/rime/collect.c:651: q = packetqueue_queuebuf(i);
   0A1A 8D 82              2384 	mov	dpl,r5
   0A1C 8E 83              2385 	mov	dph,r6
   0A1E 8F F0              2386 	mov	b,r7
   0A20 12s00r00           2387 	lcall	_packetqueue_queuebuf
   0A23 AD 82              2388 	mov	r5,dpl
   0A25 AE 83              2389 	mov	r6,dph
   0A27 AF F0              2390 	mov	r7,b
                           2391 ;	../../../core/net/rime/collect.c:652: if(q != NULL) {
   0A29 ED                 2392 	mov	a,r5
   0A2A 4E                 2393 	orl	a,r6
   0A2B 4F                 2394 	orl	a,r7
   0A2C 70 03              2395 	jnz	00119$
   0A2E 02s0Cr8A           2396 	ljmp	00109$
   0A31                    2397 00119$:
                           2398 ;	../../../core/net/rime/collect.c:654: update_rtmetric(c);
   0A31 A8*00              2399 	mov	r0,_bp
   0A33 08                 2400 	inc	r0
   0A34 86 82              2401 	mov	dpl,@r0
   0A36 08                 2402 	inc	r0
   0A37 86 83              2403 	mov	dph,@r0
   0A39 08                 2404 	inc	r0
   0A3A 86 F0              2405 	mov	b,@r0
   0A3C C0 05              2406 	push	ar5
   0A3E C0 06              2407 	push	ar6
   0A40 C0 07              2408 	push	ar7
   0A42 12s02rAE           2409 	lcall	_update_rtmetric
   0A45 D0 07              2410 	pop	ar7
   0A47 D0 06              2411 	pop	ar6
   0A49 D0 05              2412 	pop	ar5
                           2413 ;	../../../core/net/rime/collect.c:657: queuebuf_to_packetbuf(q);
   0A4B 8D 82              2414 	mov	dpl,r5
   0A4D 8E 83              2415 	mov	dph,r6
   0A4F 8F F0              2416 	mov	b,r7
   0A51 12s00r00           2417 	lcall	_queuebuf_to_packetbuf
                           2418 ;	../../../core/net/rime/collect.c:663: if(!rimeaddr_cmp(&c->current_parent, &c->parent)) {
   0A54 A8*00              2419 	mov	r0,_bp
   0A56 08                 2420 	inc	r0
   0A57 74 B2              2421 	mov	a,#0xB2
   0A59 26                 2422 	add	a,@r0
   0A5A FD                 2423 	mov	r5,a
   0A5B E4                 2424 	clr	a
   0A5C 08                 2425 	inc	r0
   0A5D 36                 2426 	addc	a,@r0
   0A5E FE                 2427 	mov	r6,a
   0A5F 08                 2428 	inc	r0
   0A60 86 07              2429 	mov	ar7,@r0
   0A62 A8*00              2430 	mov	r0,_bp
   0A64 08                 2431 	inc	r0
   0A65 74 B4              2432 	mov	a,#0xB4
   0A67 26                 2433 	add	a,@r0
   0A68 FA                 2434 	mov	r2,a
   0A69 E4                 2435 	clr	a
   0A6A 08                 2436 	inc	r0
   0A6B 36                 2437 	addc	a,@r0
   0A6C FB                 2438 	mov	r3,a
   0A6D 08                 2439 	inc	r0
   0A6E 86 04              2440 	mov	ar4,@r0
   0A70 C0 05              2441 	push	ar5
   0A72 C0 06              2442 	push	ar6
   0A74 C0 07              2443 	push	ar7
   0A76 8A 82              2444 	mov	dpl,r2
   0A78 8B 83              2445 	mov	dph,r3
   0A7A 8C F0              2446 	mov	b,r4
   0A7C 12s00r00           2447 	lcall	_rimeaddr_cmp
   0A7F AA 82              2448 	mov	r2,dpl
   0A81 AB 83              2449 	mov	r3,dph
   0A83 15 81              2450 	dec	sp
   0A85 15 81              2451 	dec	sp
   0A87 15 81              2452 	dec	sp
   0A89 EA                 2453 	mov	a,r2
   0A8A 4B                 2454 	orl	a,r3
   0A8B 70 49              2455 	jnz	00104$
                           2456 ;	../../../core/net/rime/collect.c:676: rimeaddr_copy(&c->current_parent, &c->parent);
   0A8D A8*00              2457 	mov	r0,_bp
   0A8F 08                 2458 	inc	r0
   0A90 74 B2              2459 	mov	a,#0xB2
   0A92 26                 2460 	add	a,@r0
   0A93 FA                 2461 	mov	r2,a
   0A94 E4                 2462 	clr	a
   0A95 08                 2463 	inc	r0
   0A96 36                 2464 	addc	a,@r0
   0A97 FB                 2465 	mov	r3,a
   0A98 08                 2466 	inc	r0
   0A99 86 04              2467 	mov	ar4,@r0
   0A9B A8*00              2468 	mov	r0,_bp
   0A9D 08                 2469 	inc	r0
   0A9E 74 B4              2470 	mov	a,#0xB4
   0AA0 26                 2471 	add	a,@r0
   0AA1 FD                 2472 	mov	r5,a
   0AA2 E4                 2473 	clr	a
   0AA3 08                 2474 	inc	r0
   0AA4 36                 2475 	addc	a,@r0
   0AA5 FE                 2476 	mov	r6,a
   0AA6 08                 2477 	inc	r0
   0AA7 86 07              2478 	mov	ar7,@r0
   0AA9 C0 02              2479 	push	ar2
   0AAB C0 03              2480 	push	ar3
   0AAD C0 04              2481 	push	ar4
   0AAF 8D 82              2482 	mov	dpl,r5
   0AB1 8E 83              2483 	mov	dph,r6
   0AB3 8F F0              2484 	mov	b,r7
   0AB5 12s00r00           2485 	lcall	_rimeaddr_copy
   0AB8 15 81              2486 	dec	sp
   0ABA 15 81              2487 	dec	sp
   0ABC 15 81              2488 	dec	sp
                           2489 ;	../../../core/net/rime/collect.c:677: c->transmissions = 0;
   0ABE A8*00              2490 	mov	r0,_bp
   0AC0 08                 2491 	inc	r0
   0AC1 74 BA              2492 	mov	a,#0xBA
   0AC3 26                 2493 	add	a,@r0
   0AC4 FA                 2494 	mov	r2,a
   0AC5 E4                 2495 	clr	a
   0AC6 08                 2496 	inc	r0
   0AC7 36                 2497 	addc	a,@r0
   0AC8 FB                 2498 	mov	r3,a
   0AC9 08                 2499 	inc	r0
   0ACA 86 04              2500 	mov	ar4,@r0
   0ACC 8A 82              2501 	mov	dpl,r2
   0ACE 8B 83              2502 	mov	dph,r3
   0AD0 8C F0              2503 	mov	b,r4
   0AD2 E4                 2504 	clr	a
   0AD3 12s00r00           2505 	lcall	__gptrput
   0AD6                    2506 00104$:
                           2507 ;	../../../core/net/rime/collect.c:679: n = collect_neighbor_list_find(&c->neighbor_list, &c->current_parent);
   0AD6 A8*00              2508 	mov	r0,_bp
   0AD8 08                 2509 	inc	r0
   0AD9 74 B4              2510 	mov	a,#0xB4
   0ADB 26                 2511 	add	a,@r0
   0ADC FA                 2512 	mov	r2,a
   0ADD E4                 2513 	clr	a
   0ADE 08                 2514 	inc	r0
   0ADF 36                 2515 	addc	a,@r0
   0AE0 FB                 2516 	mov	r3,a
   0AE1 08                 2517 	inc	r0
   0AE2 86 04              2518 	mov	ar4,@r0
   0AE4 A8*00              2519 	mov	r0,_bp
   0AE6 08                 2520 	inc	r0
   0AE7 74 7C              2521 	mov	a,#0x7C
   0AE9 26                 2522 	add	a,@r0
   0AEA FD                 2523 	mov	r5,a
   0AEB E4                 2524 	clr	a
   0AEC 08                 2525 	inc	r0
   0AED 36                 2526 	addc	a,@r0
   0AEE FE                 2527 	mov	r6,a
   0AEF 08                 2528 	inc	r0
   0AF0 86 07              2529 	mov	ar7,@r0
   0AF2 C0 02              2530 	push	ar2
   0AF4 C0 03              2531 	push	ar3
   0AF6 C0 04              2532 	push	ar4
   0AF8 8D 82              2533 	mov	dpl,r5
   0AFA 8E 83              2534 	mov	dph,r6
   0AFC 8F F0              2535 	mov	b,r7
   0AFE 12s00r00           2536 	lcall	_collect_neighbor_list_find
   0B01 AA 82              2537 	mov	r2,dpl
   0B03 AB 83              2538 	mov	r3,dph
   0B05 AC F0              2539 	mov	r4,b
   0B07 15 81              2540 	dec	sp
   0B09 15 81              2541 	dec	sp
   0B0B 15 81              2542 	dec	sp
   0B0D E5*00              2543 	mov	a,_bp
   0B0F 24 04              2544 	add	a,#0x04
   0B11 F8                 2545 	mov	r0,a
   0B12 A6 02              2546 	mov	@r0,ar2
   0B14 08                 2547 	inc	r0
   0B15 A6 03              2548 	mov	@r0,ar3
   0B17 08                 2549 	inc	r0
   0B18 A6 04              2550 	mov	@r0,ar4
                           2551 ;	../../../core/net/rime/collect.c:681: if(n != NULL) {
   0B1A E5*00              2552 	mov	a,_bp
   0B1C 24 04              2553 	add	a,#0x04
   0B1E F8                 2554 	mov	r0,a
   0B1F E6                 2555 	mov	a,@r0
   0B20 08                 2556 	inc	r0
   0B21 46                 2557 	orl	a,@r0
   0B22 08                 2558 	inc	r0
   0B23 46                 2559 	orl	a,@r0
   0B24 70 03              2560 	jnz	00121$
   0B26 02s0Cr8A           2561 	ljmp	00109$
   0B29                    2562 00121$:
                           2563 ;	../../../core/net/rime/collect.c:693: c->sending = 1;
   0B29 A8*00              2564 	mov	r0,_bp
   0B2B 08                 2565 	inc	r0
   0B2C 74 B9              2566 	mov	a,#0xB9
   0B2E 26                 2567 	add	a,@r0
   0B2F FD                 2568 	mov	r5,a
   0B30 E4                 2569 	clr	a
   0B31 08                 2570 	inc	r0
   0B32 36                 2571 	addc	a,@r0
   0B33 FE                 2572 	mov	r6,a
   0B34 08                 2573 	inc	r0
   0B35 86 07              2574 	mov	ar7,@r0
   0B37 8D 82              2575 	mov	dpl,r5
   0B39 8E 83              2576 	mov	dph,r6
   0B3B 8F F0              2577 	mov	b,r7
                           2578 ;	../../../core/net/rime/collect.c:694: packetbuf_set_attr(PACKETBUF_ATTR_RELIABLE, 1);
   0B3D 74 01              2579 	mov	a,#0x01
   0B3F 12s00r00           2580 	lcall	__gptrput
   0B42 C0 E0              2581 	push	acc
   0B44 E4                 2582 	clr	a
   0B45 C0 E0              2583 	push	acc
   0B47 75 82 0C           2584 	mov	dpl,#0x0C
   0B4A 12s00r00           2585 	lcall	_packetbuf_set_attr
   0B4D 15 81              2586 	dec	sp
   0B4F 15 81              2587 	dec	sp
                           2588 ;	../../../core/net/rime/collect.c:695: max_mac_rexmits = c->max_rexmits - c->transmissions > MAX_MAC_REXMITS?
   0B51 A8*00              2589 	mov	r0,_bp
   0B53 08                 2590 	inc	r0
   0B54 74 BB              2591 	mov	a,#0xBB
   0B56 26                 2592 	add	a,@r0
   0B57 FD                 2593 	mov	r5,a
   0B58 E4                 2594 	clr	a
   0B59 08                 2595 	inc	r0
   0B5A 36                 2596 	addc	a,@r0
   0B5B FE                 2597 	mov	r6,a
   0B5C 08                 2598 	inc	r0
   0B5D 86 07              2599 	mov	ar7,@r0
   0B5F 8D 82              2600 	mov	dpl,r5
   0B61 8E 83              2601 	mov	dph,r6
   0B63 8F F0              2602 	mov	b,r7
   0B65 12s00r00           2603 	lcall	__gptrget
   0B68 FD                 2604 	mov	r5,a
   0B69 7E 00              2605 	mov	r6,#0x00
   0B6B A8*00              2606 	mov	r0,_bp
   0B6D 08                 2607 	inc	r0
   0B6E 74 BA              2608 	mov	a,#0xBA
   0B70 26                 2609 	add	a,@r0
   0B71 FF                 2610 	mov	r7,a
   0B72 E4                 2611 	clr	a
   0B73 08                 2612 	inc	r0
   0B74 36                 2613 	addc	a,@r0
   0B75 FA                 2614 	mov	r2,a
   0B76 08                 2615 	inc	r0
   0B77 86 03              2616 	mov	ar3,@r0
   0B79 8F 82              2617 	mov	dpl,r7
   0B7B 8A 83              2618 	mov	dph,r2
   0B7D 8B F0              2619 	mov	b,r3
   0B7F 12s00r00           2620 	lcall	__gptrget
   0B82 FF                 2621 	mov	r7,a
   0B83 7C 00              2622 	mov	r4,#0x00
   0B85 ED                 2623 	mov	a,r5
   0B86 C3                 2624 	clr	c
   0B87 9F                 2625 	subb	a,r7
   0B88 FA                 2626 	mov	r2,a
   0B89 EE                 2627 	mov	a,r6
   0B8A 9C                 2628 	subb	a,r4
   0B8B FB                 2629 	mov	r3,a
   0B8C C3                 2630 	clr	c
   0B8D 74 02              2631 	mov	a,#0x02
   0B8F 9A                 2632 	subb	a,r2
   0B90 74 80              2633 	mov	a,#(0x00 ^ 0x80)
   0B92 8B F0              2634 	mov	b,r3
   0B94 63 F0 80           2635 	xrl	b,#0x80
   0B97 95 F0              2636 	subb	a,b
   0B99 50 06              2637 	jnc	00111$
                           2638 ;	../../../core/net/rime/collect.c:696: MAX_MAC_REXMITS : c->max_rexmits - c->transmissions;
   0B9B 7A 02              2639 	mov	r2,#0x02
   0B9D 7B 00              2640 	mov	r3,#0x00
   0B9F 80 07              2641 	sjmp	00112$
   0BA1                    2642 00111$:
   0BA1 ED                 2643 	mov	a,r5
   0BA2 C3                 2644 	clr	c
   0BA3 9F                 2645 	subb	a,r7
   0BA4 FA                 2646 	mov	r2,a
   0BA5 EE                 2647 	mov	a,r6
   0BA6 9C                 2648 	subb	a,r4
   0BA7 FB                 2649 	mov	r3,a
   0BA8                    2650 00112$:
                           2651 ;	../../../core/net/rime/collect.c:697: packetbuf_set_attr(PACKETBUF_ATTR_MAX_MAC_TRANSMISSIONS, max_mac_rexmits);
   0BA8 C0 02              2652 	push	ar2
   0BAA C0 03              2653 	push	ar3
   0BAC 75 82 09           2654 	mov	dpl,#0x09
   0BAF 12s00r00           2655 	lcall	_packetbuf_set_attr
   0BB2 15 81              2656 	dec	sp
   0BB4 15 81              2657 	dec	sp
                           2658 ;	../../../core/net/rime/collect.c:698: packetbuf_set_attr(PACKETBUF_ATTR_PACKET_ID, c->seqno);
   0BB6 A8*00              2659 	mov	r0,_bp
   0BB8 08                 2660 	inc	r0
   0BB9 74 B8              2661 	mov	a,#0xB8
   0BBB 26                 2662 	add	a,@r0
   0BBC FD                 2663 	mov	r5,a
   0BBD E4                 2664 	clr	a
   0BBE 08                 2665 	inc	r0
   0BBF 36                 2666 	addc	a,@r0
   0BC0 FE                 2667 	mov	r6,a
   0BC1 08                 2668 	inc	r0
   0BC2 86 07              2669 	mov	ar7,@r0
   0BC4 8D 82              2670 	mov	dpl,r5
   0BC6 8E 83              2671 	mov	dph,r6
   0BC8 8F F0              2672 	mov	b,r7
   0BCA 12s00r00           2673 	lcall	__gptrget
   0BCD FD                 2674 	mov	r5,a
   0BCE 7E 00              2675 	mov	r6,#0x00
   0BD0 C0 05              2676 	push	ar5
   0BD2 C0 06              2677 	push	ar6
   0BD4 75 82 0D           2678 	mov	dpl,#0x0D
   0BD7 12s00r00           2679 	lcall	_packetbuf_set_attr
   0BDA 15 81              2680 	dec	sp
   0BDC 15 81              2681 	dec	sp
                           2682 ;	../../../core/net/rime/collect.c:702: memset(&hdr, 0, sizeof(hdr));
   0BDE E5*00              2683 	mov	a,_bp
   0BE0 24 07              2684 	add	a,#0x07
   0BE2 FD                 2685 	mov	r5,a
   0BE3 7E 00              2686 	mov	r6,#0x00
   0BE5 7F 40              2687 	mov	r7,#0x40
   0BE7 74 04              2688 	mov	a,#0x04
   0BE9 C0 E0              2689 	push	acc
   0BEB E4                 2690 	clr	a
   0BEC C0 E0              2691 	push	acc
   0BEE E4                 2692 	clr	a
   0BEF C0 E0              2693 	push	acc
   0BF1 8D 82              2694 	mov	dpl,r5
   0BF3 8E 83              2695 	mov	dph,r6
   0BF5 8F F0              2696 	mov	b,r7
   0BF7 12s00r00           2697 	lcall	_memset
   0BFA 15 81              2698 	dec	sp
   0BFC 15 81              2699 	dec	sp
   0BFE 15 81              2700 	dec	sp
                           2701 ;	../../../core/net/rime/collect.c:703: hdr.rtmetric = c->rtmetric;
   0C00 E5*00              2702 	mov	a,_bp
   0C02 24 07              2703 	add	a,#0x07
   0C04 FD                 2704 	mov	r5,a
   0C05 74 02              2705 	mov	a,#0x02
   0C07 2D                 2706 	add	a,r5
   0C08 F8                 2707 	mov	r0,a
   0C09 A9*00              2708 	mov	r1,_bp
   0C0B 09                 2709 	inc	r1
   0C0C 74 B6              2710 	mov	a,#0xB6
   0C0E 27                 2711 	add	a,@r1
   0C0F FE                 2712 	mov	r6,a
   0C10 E4                 2713 	clr	a
   0C11 09                 2714 	inc	r1
   0C12 37                 2715 	addc	a,@r1
   0C13 FF                 2716 	mov	r7,a
   0C14 09                 2717 	inc	r1
   0C15 87 02              2718 	mov	ar2,@r1
   0C17 8E 82              2719 	mov	dpl,r6
   0C19 8F 83              2720 	mov	dph,r7
   0C1B 8A F0              2721 	mov	b,r2
   0C1D 12s00r00           2722 	lcall	__gptrget
   0C20 FE                 2723 	mov	r6,a
   0C21 A3                 2724 	inc	dptr
   0C22 12s00r00           2725 	lcall	__gptrget
   0C25 FF                 2726 	mov	r7,a
   0C26 A6 06              2727 	mov	@r0,ar6
   0C28 08                 2728 	inc	r0
   0C29 A6 07              2729 	mov	@r0,ar7
                           2730 ;	../../../core/net/rime/collect.c:704: memcpy(packetbuf_dataptr(), &hdr, sizeof(struct data_msg_hdr));
   0C2B 7A 00              2731 	mov	r2,#0x00
   0C2D 7B 40              2732 	mov	r3,#0x40
   0C2F C0 02              2733 	push	ar2
   0C31 C0 03              2734 	push	ar3
   0C33 C0 05              2735 	push	ar5
   0C35 12s00r00           2736 	lcall	_packetbuf_dataptr
   0C38 AC 82              2737 	mov	r4,dpl
   0C3A AE 83              2738 	mov	r6,dph
   0C3C AF F0              2739 	mov	r7,b
   0C3E D0 05              2740 	pop	ar5
   0C40 D0 03              2741 	pop	ar3
   0C42 D0 02              2742 	pop	ar2
   0C44 74 04              2743 	mov	a,#0x04
   0C46 C0 E0              2744 	push	acc
   0C48 E4                 2745 	clr	a
   0C49 C0 E0              2746 	push	acc
   0C4B C0 05              2747 	push	ar5
   0C4D C0 02              2748 	push	ar2
   0C4F C0 03              2749 	push	ar3
   0C51 8C 82              2750 	mov	dpl,r4
   0C53 8E 83              2751 	mov	dph,r6
   0C55 8F F0              2752 	mov	b,r7
   0C57 12s00r00           2753 	lcall	_memcpy
   0C5A E5 81              2754 	mov	a,sp
   0C5C 24 FB              2755 	add	a,#0xfb
   0C5E F5 81              2756 	mov	sp,a
                           2757 ;	../../../core/net/rime/collect.c:707: unicast_send(&c->unicast_conn, &n->addr);
   0C60 E5*00              2758 	mov	a,_bp
   0C62 24 04              2759 	add	a,#0x04
   0C64 F8                 2760 	mov	r0,a
   0C65 74 03              2761 	mov	a,#0x03
   0C67 26                 2762 	add	a,@r0
   0C68 FA                 2763 	mov	r2,a
   0C69 E4                 2764 	clr	a
   0C6A 08                 2765 	inc	r0
   0C6B 36                 2766 	addc	a,@r0
   0C6C FB                 2767 	mov	r3,a
   0C6D 08                 2768 	inc	r0
   0C6E 86 04              2769 	mov	ar4,@r0
   0C70 C0 02              2770 	push	ar2
   0C72 C0 03              2771 	push	ar3
   0C74 C0 04              2772 	push	ar4
   0C76 A8*00              2773 	mov	r0,_bp
   0C78 08                 2774 	inc	r0
   0C79 86 82              2775 	mov	dpl,@r0
   0C7B 08                 2776 	inc	r0
   0C7C 86 83              2777 	mov	dph,@r0
   0C7E 08                 2778 	inc	r0
   0C7F 86 F0              2779 	mov	b,@r0
   0C81 12s00r00           2780 	lcall	_unicast_send
   0C84 15 81              2781 	dec	sp
   0C86 15 81              2782 	dec	sp
   0C88 15 81              2783 	dec	sp
   0C8A                    2784 00109$:
   0C8A 85*00 81           2785 	mov	sp,_bp
   0C8D D0*00              2786 	pop	_bp
   0C8F 22                 2787 	ret
                           2788 ;------------------------------------------------------------
                           2789 ;Allocation info for local variables in function 'send_next_packet'
                           2790 ;------------------------------------------------------------
                           2791 ;tc                        Allocated to registers r2 r3 r4 
                           2792 ;------------------------------------------------------------
                           2793 ;	../../../core/net/rime/collect.c:715: send_next_packet(struct collect_conn *tc)
                           2794 ;	-----------------------------------------
                           2795 ;	 function send_next_packet
                           2796 ;	-----------------------------------------
   0C90                    2797 _send_next_packet:
   0C90 AA 82              2798 	mov	r2,dpl
   0C92 AB 83              2799 	mov	r3,dph
   0C94 AC F0              2800 	mov	r4,b
                           2801 ;	../../../core/net/rime/collect.c:718: ctimer_stop(&tc->retransmission_timer);
   0C96 74 5B              2802 	mov	a,#0x5B
   0C98 2A                 2803 	add	a,r2
   0C99 FD                 2804 	mov	r5,a
   0C9A E4                 2805 	clr	a
   0C9B 3B                 2806 	addc	a,r3
   0C9C FE                 2807 	mov	r6,a
   0C9D 8C 07              2808 	mov	ar7,r4
   0C9F 8D 82              2809 	mov	dpl,r5
   0CA1 8E 83              2810 	mov	dph,r6
   0CA3 8F F0              2811 	mov	b,r7
   0CA5 C0 02              2812 	push	ar2
   0CA7 C0 03              2813 	push	ar3
   0CA9 C0 04              2814 	push	ar4
   0CAB 12s00r00           2815 	lcall	_ctimer_stop
   0CAE D0 04              2816 	pop	ar4
   0CB0 D0 03              2817 	pop	ar3
   0CB2 D0 02              2818 	pop	ar2
                           2819 ;	../../../core/net/rime/collect.c:721: packetqueue_dequeue(&tc->send_queue);
   0CB4 74 76              2820 	mov	a,#0x76
   0CB6 2A                 2821 	add	a,r2
   0CB7 FD                 2822 	mov	r5,a
   0CB8 E4                 2823 	clr	a
   0CB9 3B                 2824 	addc	a,r3
   0CBA FE                 2825 	mov	r6,a
   0CBB 8C 07              2826 	mov	ar7,r4
   0CBD 8D 82              2827 	mov	dpl,r5
   0CBF 8E 83              2828 	mov	dph,r6
   0CC1 8F F0              2829 	mov	b,r7
   0CC3 C0 02              2830 	push	ar2
   0CC5 C0 03              2831 	push	ar3
   0CC7 C0 04              2832 	push	ar4
   0CC9 12s00r00           2833 	lcall	_packetqueue_dequeue
   0CCC D0 04              2834 	pop	ar4
   0CCE D0 03              2835 	pop	ar3
   0CD0 D0 02              2836 	pop	ar2
                           2837 ;	../../../core/net/rime/collect.c:722: tc->seqno = (tc->seqno + 1) % (1 << COLLECT_PACKET_ID_BITS);
   0CD2 74 B8              2838 	mov	a,#0xB8
   0CD4 2A                 2839 	add	a,r2
   0CD5 FD                 2840 	mov	r5,a
   0CD6 E4                 2841 	clr	a
   0CD7 3B                 2842 	addc	a,r3
   0CD8 FE                 2843 	mov	r6,a
   0CD9 8C 07              2844 	mov	ar7,r4
   0CDB 8D 82              2845 	mov	dpl,r5
   0CDD 8E 83              2846 	mov	dph,r6
   0CDF 8F F0              2847 	mov	b,r7
   0CE1 12s00r00           2848 	lcall	__gptrget
   0CE4 F8                 2849 	mov	r0,a
   0CE5 79 00              2850 	mov	r1,#0x00
   0CE7 08                 2851 	inc	r0
   0CE8 B8 00 01           2852 	cjne	r0,#0x00,00103$
   0CEB 09                 2853 	inc	r1
   0CEC                    2854 00103$:
   0CEC C0 02              2855 	push	ar2
   0CEE C0 03              2856 	push	ar3
   0CF0 C0 04              2857 	push	ar4
   0CF2 C0 05              2858 	push	ar5
   0CF4 C0 06              2859 	push	ar6
   0CF6 C0 07              2860 	push	ar7
   0CF8 E4                 2861 	clr	a
   0CF9 C0 E0              2862 	push	acc
   0CFB 74 01              2863 	mov	a,#0x01
   0CFD C0 E0              2864 	push	acc
   0CFF 88 82              2865 	mov	dpl,r0
   0D01 89 83              2866 	mov	dph,r1
   0D03 12s00r00           2867 	lcall	__modsint
   0D06 A8 82              2868 	mov	r0,dpl
   0D08 15 81              2869 	dec	sp
   0D0A 15 81              2870 	dec	sp
   0D0C D0 07              2871 	pop	ar7
   0D0E D0 06              2872 	pop	ar6
   0D10 D0 05              2873 	pop	ar5
   0D12 D0 04              2874 	pop	ar4
   0D14 D0 03              2875 	pop	ar3
   0D16 D0 02              2876 	pop	ar2
   0D18 8D 82              2877 	mov	dpl,r5
   0D1A 8E 83              2878 	mov	dph,r6
   0D1C 8F F0              2879 	mov	b,r7
   0D1E E8                 2880 	mov	a,r0
   0D1F 12s00r00           2881 	lcall	__gptrput
                           2882 ;	../../../core/net/rime/collect.c:723: tc->sending = 0;
   0D22 74 B9              2883 	mov	a,#0xB9
   0D24 2A                 2884 	add	a,r2
   0D25 FD                 2885 	mov	r5,a
   0D26 E4                 2886 	clr	a
   0D27 3B                 2887 	addc	a,r3
   0D28 FE                 2888 	mov	r6,a
   0D29 8C 07              2889 	mov	ar7,r4
   0D2B 8D 82              2890 	mov	dpl,r5
   0D2D 8E 83              2891 	mov	dph,r6
   0D2F 8F F0              2892 	mov	b,r7
   0D31 E4                 2893 	clr	a
   0D32 12s00r00           2894 	lcall	__gptrput
                           2895 ;	../../../core/net/rime/collect.c:724: tc->transmissions = 0;
   0D35 74 BA              2896 	mov	a,#0xBA
   0D37 2A                 2897 	add	a,r2
   0D38 FD                 2898 	mov	r5,a
   0D39 E4                 2899 	clr	a
   0D3A 3B                 2900 	addc	a,r3
   0D3B FE                 2901 	mov	r6,a
   0D3C 8C 07              2902 	mov	ar7,r4
   0D3E 8D 82              2903 	mov	dpl,r5
   0D40 8E 83              2904 	mov	dph,r6
   0D42 8F F0              2905 	mov	b,r7
   0D44 E4                 2906 	clr	a
   0D45 12s00r00           2907 	lcall	__gptrput
                           2908 ;	../../../core/net/rime/collect.c:730: send_queued_packet(tc);
   0D48 8A 82              2909 	mov	dpl,r2
   0D4A 8B 83              2910 	mov	dph,r3
   0D4C 8C F0              2911 	mov	b,r4
   0D4E 02s05r16           2912 	ljmp	_send_queued_packet
                           2913 ;------------------------------------------------------------
                           2914 ;Allocation info for local variables in function 'handle_ack'
                           2915 ;------------------------------------------------------------
                           2916 ;tc                        Allocated to stack - offset 1
                           2917 ;msg                       Allocated to stack - offset 4
                           2918 ;rtmetric                  Allocated to stack - offset 7
                           2919 ;n                         Allocated to registers r5 r6 r7 
                           2920 ;------------------------------------------------------------
                           2921 ;	../../../core/net/rime/collect.c:734: handle_ack(struct collect_conn *tc)
                           2922 ;	-----------------------------------------
                           2923 ;	 function handle_ack
                           2924 ;	-----------------------------------------
   0D51                    2925 _handle_ack:
   0D51 C0*00              2926 	push	_bp
   0D53 85 81*00           2927 	mov	_bp,sp
   0D56 C0 82              2928 	push	dpl
   0D58 C0 83              2929 	push	dph
   0D5A C0 F0              2930 	push	b
   0D5C E5 81              2931 	mov	a,sp
   0D5E 24 08              2932 	add	a,#0x08
   0D60 F5 81              2933 	mov	sp,a
                           2934 ;	../../../core/net/rime/collect.c:746: &tc->current_parent) &&
   0D62 A8*00              2935 	mov	r0,_bp
   0D64 08                 2936 	inc	r0
   0D65 74 B4              2937 	mov	a,#0xB4
   0D67 26                 2938 	add	a,@r0
   0D68 FD                 2939 	mov	r5,a
   0D69 E4                 2940 	clr	a
   0D6A 08                 2941 	inc	r0
   0D6B 36                 2942 	addc	a,@r0
   0D6C FE                 2943 	mov	r6,a
   0D6D 08                 2944 	inc	r0
   0D6E 86 07              2945 	mov	ar7,@r0
                           2946 ;	../../../core/net/rime/collect.c:745: if(rimeaddr_cmp(packetbuf_addr(PACKETBUF_ADDR_SENDER),
   0D70 75 82 18           2947 	mov	dpl,#0x18
   0D73 C0 05              2948 	push	ar5
   0D75 C0 06              2949 	push	ar6
   0D77 C0 07              2950 	push	ar7
   0D79 12s00r00           2951 	lcall	_packetbuf_addr
   0D7C 12s00r00           2952 	lcall	_rimeaddr_cmp
   0D7F AA 82              2953 	mov	r2,dpl
   0D81 AB 83              2954 	mov	r3,dph
   0D83 15 81              2955 	dec	sp
   0D85 15 81              2956 	dec	sp
   0D87 15 81              2957 	dec	sp
   0D89 EA                 2958 	mov	a,r2
   0D8A 4B                 2959 	orl	a,r3
   0D8B 70 03              2960 	jnz	00129$
   0D8D 02s10r30           2961 	ljmp	00116$
   0D90                    2962 00129$:
                           2963 ;	../../../core/net/rime/collect.c:747: packetbuf_attr(PACKETBUF_ATTR_PACKET_ID) == tc->seqno) {
   0D90 75 82 0D           2964 	mov	dpl,#0x0D
   0D93 12s00r00           2965 	lcall	_packetbuf_attr
   0D96 AA 82              2966 	mov	r2,dpl
   0D98 AB 83              2967 	mov	r3,dph
   0D9A A8*00              2968 	mov	r0,_bp
   0D9C 08                 2969 	inc	r0
   0D9D 74 B8              2970 	mov	a,#0xB8
   0D9F 26                 2971 	add	a,@r0
   0DA0 FC                 2972 	mov	r4,a
   0DA1 E4                 2973 	clr	a
   0DA2 08                 2974 	inc	r0
   0DA3 36                 2975 	addc	a,@r0
   0DA4 FD                 2976 	mov	r5,a
   0DA5 08                 2977 	inc	r0
   0DA6 86 06              2978 	mov	ar6,@r0
   0DA8 8C 82              2979 	mov	dpl,r4
   0DAA 8D 83              2980 	mov	dph,r5
   0DAC 8E F0              2981 	mov	b,r6
   0DAE 12s00r00           2982 	lcall	__gptrget
   0DB1 FC                 2983 	mov	r4,a
   0DB2 7D 00              2984 	mov	r5,#0x00
   0DB4 EA                 2985 	mov	a,r2
   0DB5 B5 04 06           2986 	cjne	a,ar4,00130$
   0DB8 EB                 2987 	mov	a,r3
   0DB9 B5 05 02           2988 	cjne	a,ar5,00130$
   0DBC 80 03              2989 	sjmp	00131$
   0DBE                    2990 00130$:
   0DBE 02s10r30           2991 	ljmp	00116$
   0DC1                    2992 00131$:
                           2993 ;	../../../core/net/rime/collect.c:749: stats.ackrecv++;
   0DC1 90s01r01           2994 	mov	dptr,#(_stats + 0x0018)
   0DC4 E0                 2995 	movx	a,@dptr
   0DC5 FA                 2996 	mov	r2,a
   0DC6 A3                 2997 	inc	dptr
   0DC7 E0                 2998 	movx	a,@dptr
   0DC8 FB                 2999 	mov	r3,a
   0DC9 A3                 3000 	inc	dptr
   0DCA E0                 3001 	movx	a,@dptr
   0DCB FC                 3002 	mov	r4,a
   0DCC A3                 3003 	inc	dptr
   0DCD E0                 3004 	movx	a,@dptr
   0DCE FD                 3005 	mov	r5,a
   0DCF 0A                 3006 	inc	r2
   0DD0 BA 00 09           3007 	cjne	r2,#0x00,00132$
   0DD3 0B                 3008 	inc	r3
   0DD4 BB 00 05           3009 	cjne	r3,#0x00,00132$
   0DD7 0C                 3010 	inc	r4
   0DD8 BC 00 01           3011 	cjne	r4,#0x00,00132$
   0DDB 0D                 3012 	inc	r5
   0DDC                    3013 00132$:
   0DDC 90s01r01           3014 	mov	dptr,#(_stats + 0x0018)
   0DDF EA                 3015 	mov	a,r2
   0DE0 F0                 3016 	movx	@dptr,a
   0DE1 A3                 3017 	inc	dptr
   0DE2 EB                 3018 	mov	a,r3
   0DE3 F0                 3019 	movx	@dptr,a
   0DE4 A3                 3020 	inc	dptr
   0DE5 EC                 3021 	mov	a,r4
   0DE6 F0                 3022 	movx	@dptr,a
   0DE7 A3                 3023 	inc	dptr
   0DE8 ED                 3024 	mov	a,r5
   0DE9 F0                 3025 	movx	@dptr,a
                           3026 ;	../../../core/net/rime/collect.c:750: msg = packetbuf_dataptr();
   0DEA 12s00r00           3027 	lcall	_packetbuf_dataptr
   0DED AA 82              3028 	mov	r2,dpl
   0DEF AB 83              3029 	mov	r3,dph
   0DF1 AC F0              3030 	mov	r4,b
   0DF3 E5*00              3031 	mov	a,_bp
   0DF5 24 04              3032 	add	a,#0x04
   0DF7 F8                 3033 	mov	r0,a
   0DF8 A6 02              3034 	mov	@r0,ar2
   0DFA 08                 3035 	inc	r0
   0DFB A6 03              3036 	mov	@r0,ar3
   0DFD 08                 3037 	inc	r0
   0DFE A6 04              3038 	mov	@r0,ar4
                           3039 ;	../../../core/net/rime/collect.c:751: memcpy(&rtmetric, &msg->rtmetric, sizeof(uint16_t));
   0E00 E5*00              3040 	mov	a,_bp
   0E02 24 04              3041 	add	a,#0x04
   0E04 F8                 3042 	mov	r0,a
   0E05 74 02              3043 	mov	a,#0x02
   0E07 26                 3044 	add	a,@r0
   0E08 FD                 3045 	mov	r5,a
   0E09 E4                 3046 	clr	a
   0E0A 08                 3047 	inc	r0
   0E0B 36                 3048 	addc	a,@r0
   0E0C FE                 3049 	mov	r6,a
   0E0D 08                 3050 	inc	r0
   0E0E 86 07              3051 	mov	ar7,@r0
   0E10 E5*00              3052 	mov	a,_bp
   0E12 24 07              3053 	add	a,#0x07
   0E14 FA                 3054 	mov	r2,a
   0E15 7B 00              3055 	mov	r3,#0x00
   0E17 7C 40              3056 	mov	r4,#0x40
   0E19 74 02              3057 	mov	a,#0x02
   0E1B C0 E0              3058 	push	acc
   0E1D E4                 3059 	clr	a
   0E1E C0 E0              3060 	push	acc
   0E20 C0 05              3061 	push	ar5
   0E22 C0 06              3062 	push	ar6
   0E24 C0 07              3063 	push	ar7
   0E26 8A 82              3064 	mov	dpl,r2
   0E28 8B 83              3065 	mov	dph,r3
   0E2A 8C F0              3066 	mov	b,r4
   0E2C 12s00r00           3067 	lcall	_memcpy
   0E2F E5 81              3068 	mov	a,sp
   0E31 24 FB              3069 	add	a,#0xfb
   0E33 F5 81              3070 	mov	sp,a
                           3071 ;	../../../core/net/rime/collect.c:759: if(tc->transmissions == 0) {
   0E35 A8*00              3072 	mov	r0,_bp
   0E37 08                 3073 	inc	r0
   0E38 74 BA              3074 	mov	a,#0xBA
   0E3A 26                 3075 	add	a,@r0
   0E3B FA                 3076 	mov	r2,a
   0E3C E4                 3077 	clr	a
   0E3D 08                 3078 	inc	r0
   0E3E 36                 3079 	addc	a,@r0
   0E3F FB                 3080 	mov	r3,a
   0E40 08                 3081 	inc	r0
   0E41 86 04              3082 	mov	ar4,@r0
   0E43 8A 82              3083 	mov	dpl,r2
   0E45 8B 83              3084 	mov	dph,r3
   0E47 8C F0              3085 	mov	b,r4
   0E49 12s00r00           3086 	lcall	__gptrget
   0E4C 70 0B              3087 	jnz	00102$
                           3088 ;	../../../core/net/rime/collect.c:760: tc->transmissions = MAX_MAC_REXMITS;
   0E4E 8A 82              3089 	mov	dpl,r2
   0E50 8B 83              3090 	mov	dph,r3
   0E52 8C F0              3091 	mov	b,r4
   0E54 74 02              3092 	mov	a,#0x02
   0E56 12s00r00           3093 	lcall	__gptrput
   0E59                    3094 00102$:
                           3095 ;	../../../core/net/rime/collect.c:765: packetbuf_addr(PACKETBUF_ADDR_SENDER));
   0E59 C0 02              3096 	push	ar2
   0E5B C0 03              3097 	push	ar3
   0E5D C0 04              3098 	push	ar4
   0E5F 75 82 18           3099 	mov	dpl,#0x18
   0E62 C0 02              3100 	push	ar2
   0E64 C0 03              3101 	push	ar3
   0E66 C0 04              3102 	push	ar4
   0E68 12s00r00           3103 	lcall	_packetbuf_addr
   0E6B AD 82              3104 	mov	r5,dpl
   0E6D AE 83              3105 	mov	r6,dph
   0E6F AF F0              3106 	mov	r7,b
   0E71 D0 04              3107 	pop	ar4
   0E73 D0 03              3108 	pop	ar3
   0E75 D0 02              3109 	pop	ar2
                           3110 ;	../../../core/net/rime/collect.c:764: n = collect_neighbor_list_find(&tc->neighbor_list,
   0E77 A8*00              3111 	mov	r0,_bp
   0E79 08                 3112 	inc	r0
   0E7A 74 7C              3113 	mov	a,#0x7C
   0E7C 26                 3114 	add	a,@r0
   0E7D FA                 3115 	mov	r2,a
   0E7E E4                 3116 	clr	a
   0E7F 08                 3117 	inc	r0
   0E80 36                 3118 	addc	a,@r0
   0E81 FB                 3119 	mov	r3,a
   0E82 08                 3120 	inc	r0
   0E83 86 04              3121 	mov	ar4,@r0
   0E85 C0 05              3122 	push	ar5
   0E87 C0 06              3123 	push	ar6
   0E89 C0 07              3124 	push	ar7
   0E8B 8A 82              3125 	mov	dpl,r2
   0E8D 8B 83              3126 	mov	dph,r3
   0E8F 8C F0              3127 	mov	b,r4
   0E91 12s00r00           3128 	lcall	_collect_neighbor_list_find
   0E94 AA 82              3129 	mov	r2,dpl
   0E96 AB 83              3130 	mov	r3,dph
   0E98 AC F0              3131 	mov	r4,b
   0E9A 15 81              3132 	dec	sp
   0E9C 15 81              3133 	dec	sp
   0E9E 15 81              3134 	dec	sp
   0EA0 8A 05              3135 	mov	ar5,r2
   0EA2 8B 06              3136 	mov	ar6,r3
   0EA4 8C 07              3137 	mov	ar7,r4
                           3138 ;	../../../core/net/rime/collect.c:767: if(n != NULL) {
   0EA6 D0 04              3139 	pop	ar4
   0EA8 D0 03              3140 	pop	ar3
   0EAA D0 02              3141 	pop	ar2
   0EAC ED                 3142 	mov	a,r5
   0EAD 4E                 3143 	orl	a,r6
   0EAE 4F                 3144 	orl	a,r7
   0EAF 60 5C              3145 	jz	00104$
                           3146 ;	../../../core/net/rime/collect.c:768: collect_neighbor_tx(n, tc->transmissions);
   0EB1 8A 82              3147 	mov	dpl,r2
   0EB3 8B 83              3148 	mov	dph,r3
   0EB5 8C F0              3149 	mov	b,r4
   0EB7 12s00r00           3150 	lcall	__gptrget
   0EBA FA                 3151 	mov	r2,a
   0EBB 7B 00              3152 	mov	r3,#0x00
   0EBD C0 05              3153 	push	ar5
   0EBF C0 06              3154 	push	ar6
   0EC1 C0 07              3155 	push	ar7
   0EC3 C0 02              3156 	push	ar2
   0EC5 C0 03              3157 	push	ar3
   0EC7 8D 82              3158 	mov	dpl,r5
   0EC9 8E 83              3159 	mov	dph,r6
   0ECB 8F F0              3160 	mov	b,r7
   0ECD 12s00r00           3161 	lcall	_collect_neighbor_tx
   0ED0 15 81              3162 	dec	sp
   0ED2 15 81              3163 	dec	sp
   0ED4 D0 07              3164 	pop	ar7
   0ED6 D0 06              3165 	pop	ar6
   0ED8 D0 05              3166 	pop	ar5
                           3167 ;	../../../core/net/rime/collect.c:769: collect_neighbor_update_rtmetric(n, rtmetric);
   0EDA C0 05              3168 	push	ar5
   0EDC C0 06              3169 	push	ar6
   0EDE C0 07              3170 	push	ar7
   0EE0 E5*00              3171 	mov	a,_bp
   0EE2 24 07              3172 	add	a,#0x07
   0EE4 F8                 3173 	mov	r0,a
   0EE5 E6                 3174 	mov	a,@r0
   0EE6 C0 E0              3175 	push	acc
   0EE8 08                 3176 	inc	r0
   0EE9 E6                 3177 	mov	a,@r0
   0EEA C0 E0              3178 	push	acc
   0EEC 8D 82              3179 	mov	dpl,r5
   0EEE 8E 83              3180 	mov	dph,r6
   0EF0 8F F0              3181 	mov	b,r7
   0EF2 12s00r00           3182 	lcall	_collect_neighbor_update_rtmetric
   0EF5 15 81              3183 	dec	sp
   0EF7 15 81              3184 	dec	sp
                           3185 ;	../../../core/net/rime/collect.c:770: update_rtmetric(tc);
   0EF9 A8*00              3186 	mov	r0,_bp
   0EFB 08                 3187 	inc	r0
   0EFC 86 82              3188 	mov	dpl,@r0
   0EFE 08                 3189 	inc	r0
   0EFF 86 83              3190 	mov	dph,@r0
   0F01 08                 3191 	inc	r0
   0F02 86 F0              3192 	mov	b,@r0
   0F04 12s02rAE           3193 	lcall	_update_rtmetric
   0F07 D0 07              3194 	pop	ar7
   0F09 D0 06              3195 	pop	ar6
   0F0B D0 05              3196 	pop	ar5
   0F0D                    3197 00104$:
                           3198 ;	../../../core/net/rime/collect.c:786: if(msg->flags & ACK_FLAGS_CONGESTED) {
   0F0D E5*00              3199 	mov	a,_bp
   0F0F 24 04              3200 	add	a,#0x04
   0F11 F8                 3201 	mov	r0,a
   0F12 86 82              3202 	mov	dpl,@r0
   0F14 08                 3203 	inc	r0
   0F15 86 83              3204 	mov	dph,@r0
   0F17 08                 3205 	inc	r0
   0F18 86 F0              3206 	mov	b,@r0
   0F1A 12s00r00           3207 	lcall	__gptrget
   0F1D FA                 3208 	mov	r2,a
   0F1E 30 E7 5E           3209 	jnb	acc.7,00106$
                           3210 ;	../../../core/net/rime/collect.c:787: collect_neighbor_set_congested(n);
   0F21 8D 82              3211 	mov	dpl,r5
   0F23 8E 83              3212 	mov	dph,r6
   0F25 8F F0              3213 	mov	b,r7
   0F27 C0 05              3214 	push	ar5
   0F29 C0 06              3215 	push	ar6
   0F2B C0 07              3216 	push	ar7
   0F2D 12s00r00           3217 	lcall	_collect_neighbor_set_congested
   0F30 D0 07              3218 	pop	ar7
   0F32 D0 06              3219 	pop	ar6
   0F34 D0 05              3220 	pop	ar5
                           3221 ;	../../../core/net/rime/collect.c:788: collect_neighbor_tx(n, tc->max_rexmits * 2);
   0F36 A8*00              3222 	mov	r0,_bp
   0F38 08                 3223 	inc	r0
   0F39 74 BB              3224 	mov	a,#0xBB
   0F3B 26                 3225 	add	a,@r0
   0F3C FA                 3226 	mov	r2,a
   0F3D E4                 3227 	clr	a
   0F3E 08                 3228 	inc	r0
   0F3F 36                 3229 	addc	a,@r0
   0F40 FB                 3230 	mov	r3,a
   0F41 08                 3231 	inc	r0
   0F42 86 04              3232 	mov	ar4,@r0
   0F44 8A 82              3233 	mov	dpl,r2
   0F46 8B 83              3234 	mov	dph,r3
   0F48 8C F0              3235 	mov	b,r4
   0F4A 12s00r00           3236 	lcall	__gptrget
   0F4D 75 F0 02           3237 	mov	b,#0x02
   0F50 A4                 3238 	mul	ab
   0F51 FA                 3239 	mov	r2,a
   0F52 AB F0              3240 	mov	r3,b
   0F54 C0 05              3241 	push	ar5
   0F56 C0 06              3242 	push	ar6
   0F58 C0 07              3243 	push	ar7
   0F5A C0 02              3244 	push	ar2
   0F5C C0 03              3245 	push	ar3
   0F5E 8D 82              3246 	mov	dpl,r5
   0F60 8E 83              3247 	mov	dph,r6
   0F62 8F F0              3248 	mov	b,r7
   0F64 12s00r00           3249 	lcall	_collect_neighbor_tx
   0F67 15 81              3250 	dec	sp
   0F69 15 81              3251 	dec	sp
                           3252 ;	../../../core/net/rime/collect.c:789: update_rtmetric(tc);
   0F6B A8*00              3253 	mov	r0,_bp
   0F6D 08                 3254 	inc	r0
   0F6E 86 82              3255 	mov	dpl,@r0
   0F70 08                 3256 	inc	r0
   0F71 86 83              3257 	mov	dph,@r0
   0F73 08                 3258 	inc	r0
   0F74 86 F0              3259 	mov	b,@r0
   0F76 12s02rAE           3260 	lcall	_update_rtmetric
   0F79 D0 07              3261 	pop	ar7
   0F7B D0 06              3262 	pop	ar6
   0F7D D0 05              3263 	pop	ar5
   0F7F                    3264 00106$:
                           3265 ;	../../../core/net/rime/collect.c:791: if((msg->flags & ACK_FLAGS_DROPPED) == 0) {
   0F7F E5*00              3266 	mov	a,_bp
   0F81 24 04              3267 	add	a,#0x04
   0F83 F8                 3268 	mov	r0,a
   0F84 86 82              3269 	mov	dpl,@r0
   0F86 08                 3270 	inc	r0
   0F87 86 83              3271 	mov	dph,@r0
   0F89 08                 3272 	inc	r0
   0F8A 86 F0              3273 	mov	b,@r0
   0F8C 12s00r00           3274 	lcall	__gptrget
   0F8F FA                 3275 	mov	r2,a
   0F90 20 E6 10           3276 	jb	acc.6,00111$
                           3277 ;	../../../core/net/rime/collect.c:793: send_next_packet(tc);
   0F93 A8*00              3278 	mov	r0,_bp
   0F95 08                 3279 	inc	r0
   0F96 86 82              3280 	mov	dpl,@r0
   0F98 08                 3281 	inc	r0
   0F99 86 83              3282 	mov	dph,@r0
   0F9B 08                 3283 	inc	r0
   0F9C 86 F0              3284 	mov	b,@r0
   0F9E 12s0Cr90           3285 	lcall	_send_next_packet
   0FA1 80 5B              3286 	sjmp	00112$
   0FA3                    3287 00111$:
                           3288 ;	../../../core/net/rime/collect.c:798: if((msg->flags & ACK_FLAGS_LIFETIME_EXCEEDED)) {
   0FA3 EA                 3289 	mov	a,r2
   0FA4 30 E5 10           3290 	jnb	acc.5,00108$
                           3291 ;	../../../core/net/rime/collect.c:799: send_next_packet(tc);
   0FA7 A8*00              3292 	mov	r0,_bp
   0FA9 08                 3293 	inc	r0
   0FAA 86 82              3294 	mov	dpl,@r0
   0FAC 08                 3295 	inc	r0
   0FAD 86 83              3296 	mov	dph,@r0
   0FAF 08                 3297 	inc	r0
   0FB0 86 F0              3298 	mov	b,@r0
   0FB2 12s0Cr90           3299 	lcall	_send_next_packet
   0FB5 80 47              3300 	sjmp	00112$
   0FB7                    3301 00108$:
                           3302 ;	../../../core/net/rime/collect.c:804: collect_neighbor_tx(n, tc->max_rexmits);
   0FB7 A8*00              3303 	mov	r0,_bp
   0FB9 08                 3304 	inc	r0
   0FBA 74 BB              3305 	mov	a,#0xBB
   0FBC 26                 3306 	add	a,@r0
   0FBD FA                 3307 	mov	r2,a
   0FBE E4                 3308 	clr	a
   0FBF 08                 3309 	inc	r0
   0FC0 36                 3310 	addc	a,@r0
   0FC1 FB                 3311 	mov	r3,a
   0FC2 08                 3312 	inc	r0
   0FC3 86 04              3313 	mov	ar4,@r0
   0FC5 8A 82              3314 	mov	dpl,r2
   0FC7 8B 83              3315 	mov	dph,r3
   0FC9 8C F0              3316 	mov	b,r4
   0FCB 12s00r00           3317 	lcall	__gptrget
   0FCE FA                 3318 	mov	r2,a
   0FCF 7B 00              3319 	mov	r3,#0x00
   0FD1 C0 02              3320 	push	ar2
   0FD3 C0 03              3321 	push	ar3
   0FD5 8D 82              3322 	mov	dpl,r5
   0FD7 8E 83              3323 	mov	dph,r6
   0FD9 8F F0              3324 	mov	b,r7
   0FDB 12s00r00           3325 	lcall	_collect_neighbor_tx
   0FDE 15 81              3326 	dec	sp
   0FE0 15 81              3327 	dec	sp
                           3328 ;	../../../core/net/rime/collect.c:805: update_rtmetric(tc);
   0FE2 A8*00              3329 	mov	r0,_bp
   0FE4 08                 3330 	inc	r0
   0FE5 86 82              3331 	mov	dpl,@r0
   0FE7 08                 3332 	inc	r0
   0FE8 86 83              3333 	mov	dph,@r0
   0FEA 08                 3334 	inc	r0
   0FEB 86 F0              3335 	mov	b,@r0
   0FED 12s02rAE           3336 	lcall	_update_rtmetric
                           3337 ;	../../../core/net/rime/collect.c:806: send_queued_packet(tc);
   0FF0 A8*00              3338 	mov	r0,_bp
   0FF2 08                 3339 	inc	r0
   0FF3 86 82              3340 	mov	dpl,@r0
   0FF5 08                 3341 	inc	r0
   0FF6 86 83              3342 	mov	dph,@r0
   0FF8 08                 3343 	inc	r0
   0FF9 86 F0              3344 	mov	b,@r0
   0FFB 12s05r16           3345 	lcall	_send_queued_packet
   0FFE                    3346 00112$:
                           3347 ;	../../../core/net/rime/collect.c:812: if(msg->flags & ACK_FLAGS_RTMETRIC_NEEDS_UPDATE) {
   0FFE E5*00              3348 	mov	a,_bp
   1000 24 04              3349 	add	a,#0x04
   1002 F8                 3350 	mov	r0,a
   1003 86 82              3351 	mov	dpl,@r0
   1005 08                 3352 	inc	r0
   1006 86 83              3353 	mov	dph,@r0
   1008 08                 3354 	inc	r0
   1009 86 F0              3355 	mov	b,@r0
   100B 12s00r00           3356 	lcall	__gptrget
   100E FA                 3357 	mov	r2,a
   100F 30 E4 0E           3358 	jnb	acc.4,00114$
                           3359 ;	../../../core/net/rime/collect.c:813: bump_advertisement(tc);
   1012 A8*00              3360 	mov	r0,_bp
   1014 08                 3361 	inc	r0
   1015 86 82              3362 	mov	dpl,@r0
   1017 08                 3363 	inc	r0
   1018 86 83              3364 	mov	dph,@r0
   101A 08                 3365 	inc	r0
   101B 86 F0              3366 	mov	b,@r0
   101D 12s02r77           3367 	lcall	_bump_advertisement
   1020                    3368 00114$:
                           3369 ;	../../../core/net/rime/collect.c:815: set_keepalive_timer(tc);
   1020 A8*00              3370 	mov	r0,_bp
   1022 08                 3371 	inc	r0
   1023 86 82              3372 	mov	dpl,@r0
   1025 08                 3373 	inc	r0
   1026 86 83              3374 	mov	dph,@r0
   1028 08                 3375 	inc	r0
   1029 86 F0              3376 	mov	b,@r0
   102B 12s20r7B           3377 	lcall	_set_keepalive_timer
   102E 80 29              3378 	sjmp	00119$
   1030                    3379 00116$:
                           3380 ;	../../../core/net/rime/collect.c:817: stats.badack++;
   1030 90s01r05           3381 	mov	dptr,#(_stats + 0x001c)
   1033 E0                 3382 	movx	a,@dptr
   1034 FA                 3383 	mov	r2,a
   1035 A3                 3384 	inc	dptr
   1036 E0                 3385 	movx	a,@dptr
   1037 FB                 3386 	mov	r3,a
   1038 A3                 3387 	inc	dptr
   1039 E0                 3388 	movx	a,@dptr
   103A FC                 3389 	mov	r4,a
   103B A3                 3390 	inc	dptr
   103C E0                 3391 	movx	a,@dptr
   103D FD                 3392 	mov	r5,a
   103E 0A                 3393 	inc	r2
   103F BA 00 09           3394 	cjne	r2,#0x00,00139$
   1042 0B                 3395 	inc	r3
   1043 BB 00 05           3396 	cjne	r3,#0x00,00139$
   1046 0C                 3397 	inc	r4
   1047 BC 00 01           3398 	cjne	r4,#0x00,00139$
   104A 0D                 3399 	inc	r5
   104B                    3400 00139$:
   104B 90s01r05           3401 	mov	dptr,#(_stats + 0x001c)
   104E EA                 3402 	mov	a,r2
   104F F0                 3403 	movx	@dptr,a
   1050 A3                 3404 	inc	dptr
   1051 EB                 3405 	mov	a,r3
   1052 F0                 3406 	movx	@dptr,a
   1053 A3                 3407 	inc	dptr
   1054 EC                 3408 	mov	a,r4
   1055 F0                 3409 	movx	@dptr,a
   1056 A3                 3410 	inc	dptr
   1057 ED                 3411 	mov	a,r5
   1058 F0                 3412 	movx	@dptr,a
   1059                    3413 00119$:
   1059 85*00 81           3414 	mov	sp,_bp
   105C D0*00              3415 	pop	_bp
   105E 22                 3416 	ret
                           3417 ;------------------------------------------------------------
                           3418 ;Allocation info for local variables in function 'send_ack'
                           3419 ;------------------------------------------------------------
                           3420 ;to                        Allocated to stack - offset -5
                           3421 ;flags                     Allocated to stack - offset -7
                           3422 ;tc                        Allocated to stack - offset 1
                           3423 ;ack                       Allocated to stack - offset 4
                           3424 ;packet_seqno              Allocated to stack - offset 7
                           3425 ;------------------------------------------------------------
                           3426 ;	../../../core/net/rime/collect.c:822: send_ack(struct collect_conn *tc, const rimeaddr_t *to, int flags)
                           3427 ;	-----------------------------------------
                           3428 ;	 function send_ack
                           3429 ;	-----------------------------------------
   105F                    3430 _send_ack:
   105F C0*00              3431 	push	_bp
   1061 85 81*00           3432 	mov	_bp,sp
   1064 C0 82              3433 	push	dpl
   1066 C0 83              3434 	push	dph
   1068 C0 F0              3435 	push	b
   106A E5 81              3436 	mov	a,sp
   106C 24 08              3437 	add	a,#0x08
   106E F5 81              3438 	mov	sp,a
                           3439 ;	../../../core/net/rime/collect.c:825: uint16_t packet_seqno = packetbuf_attr(PACKETBUF_ATTR_PACKET_ID);
   1070 75 82 0D           3440 	mov	dpl,#0x0D
   1073 12s00r00           3441 	lcall	_packetbuf_attr
   1076 C8                 3442 	xch	a,r0
   1077 E5*00              3443 	mov	a,_bp
   1079 24 07              3444 	add	a,#0x07
   107B C8                 3445 	xch	a,r0
   107C A6 82              3446 	mov	@r0,dpl
   107E 08                 3447 	inc	r0
   107F A6 83              3448 	mov	@r0,dph
                           3449 ;	../../../core/net/rime/collect.c:827: packetbuf_clear();
   1081 12s00r00           3450 	lcall	_packetbuf_clear
                           3451 ;	../../../core/net/rime/collect.c:828: packetbuf_set_datalen(sizeof(struct ack_msg));
   1084 90 00 04           3452 	mov	dptr,#0x0004
   1087 12s00r00           3453 	lcall	_packetbuf_set_datalen
                           3454 ;	../../../core/net/rime/collect.c:829: ack = packetbuf_dataptr();
   108A 12s00r00           3455 	lcall	_packetbuf_dataptr
   108D AF 82              3456 	mov	r7,dpl
   108F AD 83              3457 	mov	r5,dph
   1091 AE F0              3458 	mov	r6,b
   1093 E5*00              3459 	mov	a,_bp
   1095 24 04              3460 	add	a,#0x04
   1097 F8                 3461 	mov	r0,a
   1098 A6 07              3462 	mov	@r0,ar7
   109A 08                 3463 	inc	r0
   109B A6 05              3464 	mov	@r0,ar5
   109D 08                 3465 	inc	r0
   109E A6 06              3466 	mov	@r0,ar6
                           3467 ;	../../../core/net/rime/collect.c:830: memset(ack, 0, sizeof(struct ack_msg));
   10A0 74 04              3468 	mov	a,#0x04
   10A2 C0 E0              3469 	push	acc
   10A4 E4                 3470 	clr	a
   10A5 C0 E0              3471 	push	acc
   10A7 E4                 3472 	clr	a
   10A8 C0 E0              3473 	push	acc
   10AA E5*00              3474 	mov	a,_bp
   10AC 24 04              3475 	add	a,#0x04
   10AE F8                 3476 	mov	r0,a
   10AF 86 82              3477 	mov	dpl,@r0
   10B1 08                 3478 	inc	r0
   10B2 86 83              3479 	mov	dph,@r0
   10B4 08                 3480 	inc	r0
   10B5 86 F0              3481 	mov	b,@r0
   10B7 12s00r00           3482 	lcall	_memset
   10BA 15 81              3483 	dec	sp
   10BC 15 81              3484 	dec	sp
   10BE 15 81              3485 	dec	sp
                           3486 ;	../../../core/net/rime/collect.c:831: ack->rtmetric = tc->rtmetric;
   10C0 E5*00              3487 	mov	a,_bp
   10C2 24 04              3488 	add	a,#0x04
   10C4 F8                 3489 	mov	r0,a
   10C5 74 02              3490 	mov	a,#0x02
   10C7 26                 3491 	add	a,@r0
   10C8 FA                 3492 	mov	r2,a
   10C9 E4                 3493 	clr	a
   10CA 08                 3494 	inc	r0
   10CB 36                 3495 	addc	a,@r0
   10CC FB                 3496 	mov	r3,a
   10CD 08                 3497 	inc	r0
   10CE 86 04              3498 	mov	ar4,@r0
   10D0 A8*00              3499 	mov	r0,_bp
   10D2 08                 3500 	inc	r0
   10D3 74 B6              3501 	mov	a,#0xB6
   10D5 26                 3502 	add	a,@r0
   10D6 FD                 3503 	mov	r5,a
   10D7 E4                 3504 	clr	a
   10D8 08                 3505 	inc	r0
   10D9 36                 3506 	addc	a,@r0
   10DA FE                 3507 	mov	r6,a
   10DB 08                 3508 	inc	r0
   10DC 86 07              3509 	mov	ar7,@r0
   10DE 8D 82              3510 	mov	dpl,r5
   10E0 8E 83              3511 	mov	dph,r6
   10E2 8F F0              3512 	mov	b,r7
   10E4 12s00r00           3513 	lcall	__gptrget
   10E7 FD                 3514 	mov	r5,a
   10E8 A3                 3515 	inc	dptr
   10E9 12s00r00           3516 	lcall	__gptrget
   10EC FE                 3517 	mov	r6,a
   10ED 8A 82              3518 	mov	dpl,r2
   10EF 8B 83              3519 	mov	dph,r3
   10F1 8C F0              3520 	mov	b,r4
   10F3 ED                 3521 	mov	a,r5
   10F4 12s00r00           3522 	lcall	__gptrput
   10F7 A3                 3523 	inc	dptr
   10F8 EE                 3524 	mov	a,r6
   10F9 12s00r00           3525 	lcall	__gptrput
                           3526 ;	../../../core/net/rime/collect.c:832: ack->flags = flags;
   10FC E5*00              3527 	mov	a,_bp
   10FE 24 F9              3528 	add	a,#0xf9
   1100 F8                 3529 	mov	r0,a
   1101 86 02              3530 	mov	ar2,@r0
   1103 E5*00              3531 	mov	a,_bp
   1105 24 04              3532 	add	a,#0x04
   1107 F8                 3533 	mov	r0,a
   1108 86 82              3534 	mov	dpl,@r0
   110A 08                 3535 	inc	r0
   110B 86 83              3536 	mov	dph,@r0
   110D 08                 3537 	inc	r0
   110E 86 F0              3538 	mov	b,@r0
   1110 EA                 3539 	mov	a,r2
   1111 12s00r00           3540 	lcall	__gptrput
                           3541 ;	../../../core/net/rime/collect.c:834: packetbuf_set_addr(PACKETBUF_ADDR_RECEIVER, to);
   1114 E5*00              3542 	mov	a,_bp
   1116 24 FB              3543 	add	a,#0xfb
   1118 F8                 3544 	mov	r0,a
   1119 E6                 3545 	mov	a,@r0
   111A C0 E0              3546 	push	acc
   111C 08                 3547 	inc	r0
   111D E6                 3548 	mov	a,@r0
   111E C0 E0              3549 	push	acc
   1120 08                 3550 	inc	r0
   1121 E6                 3551 	mov	a,@r0
   1122 C0 E0              3552 	push	acc
   1124 75 82 19           3553 	mov	dpl,#0x19
   1127 12s00r00           3554 	lcall	_packetbuf_set_addr
   112A 15 81              3555 	dec	sp
   112C 15 81              3556 	dec	sp
   112E 15 81              3557 	dec	sp
                           3558 ;	../../../core/net/rime/collect.c:835: packetbuf_set_attr(PACKETBUF_ATTR_PACKET_TYPE, PACKETBUF_ATTR_PACKET_TYPE_ACK);
   1130 74 01              3559 	mov	a,#0x01
   1132 C0 E0              3560 	push	acc
   1134 E4                 3561 	clr	a
   1135 C0 E0              3562 	push	acc
   1137 75 82 0E           3563 	mov	dpl,#0x0E
   113A 12s00r00           3564 	lcall	_packetbuf_set_attr
   113D 15 81              3565 	dec	sp
   113F 15 81              3566 	dec	sp
                           3567 ;	../../../core/net/rime/collect.c:836: packetbuf_set_attr(PACKETBUF_ATTR_RELIABLE, 0);
   1141 E4                 3568 	clr	a
   1142 C0 E0              3569 	push	acc
   1144 C0 E0              3570 	push	acc
   1146 75 82 0C           3571 	mov	dpl,#0x0C
   1149 12s00r00           3572 	lcall	_packetbuf_set_attr
   114C 15 81              3573 	dec	sp
   114E 15 81              3574 	dec	sp
                           3575 ;	../../../core/net/rime/collect.c:837: packetbuf_set_attr(PACKETBUF_ATTR_ERELIABLE, 0);
   1150 E4                 3576 	clr	a
   1151 C0 E0              3577 	push	acc
   1153 C0 E0              3578 	push	acc
   1155 75 82 17           3579 	mov	dpl,#0x17
   1158 12s00r00           3580 	lcall	_packetbuf_set_attr
   115B 15 81              3581 	dec	sp
   115D 15 81              3582 	dec	sp
                           3583 ;	../../../core/net/rime/collect.c:838: packetbuf_set_attr(PACKETBUF_ATTR_PACKET_ID, packet_seqno);
   115F E5*00              3584 	mov	a,_bp
   1161 24 07              3585 	add	a,#0x07
   1163 F8                 3586 	mov	r0,a
   1164 E6                 3587 	mov	a,@r0
   1165 C0 E0              3588 	push	acc
   1167 08                 3589 	inc	r0
   1168 E6                 3590 	mov	a,@r0
   1169 C0 E0              3591 	push	acc
   116B 75 82 0D           3592 	mov	dpl,#0x0D
   116E 12s00r00           3593 	lcall	_packetbuf_set_attr
   1171 15 81              3594 	dec	sp
   1173 15 81              3595 	dec	sp
                           3596 ;	../../../core/net/rime/collect.c:839: packetbuf_set_attr(PACKETBUF_ATTR_MAX_MAC_TRANSMISSIONS, MAX_ACK_MAC_REXMITS);
   1175 74 03              3597 	mov	a,#0x03
   1177 C0 E0              3598 	push	acc
   1179 E4                 3599 	clr	a
   117A C0 E0              3600 	push	acc
   117C 75 82 09           3601 	mov	dpl,#0x09
   117F 12s00r00           3602 	lcall	_packetbuf_set_attr
   1182 15 81              3603 	dec	sp
   1184 15 81              3604 	dec	sp
                           3605 ;	../../../core/net/rime/collect.c:840: unicast_send(&tc->unicast_conn, to);
   1186 E5*00              3606 	mov	a,_bp
   1188 24 FB              3607 	add	a,#0xfb
   118A F8                 3608 	mov	r0,a
   118B E6                 3609 	mov	a,@r0
   118C C0 E0              3610 	push	acc
   118E 08                 3611 	inc	r0
   118F E6                 3612 	mov	a,@r0
   1190 C0 E0              3613 	push	acc
   1192 08                 3614 	inc	r0
   1193 E6                 3615 	mov	a,@r0
   1194 C0 E0              3616 	push	acc
   1196 A8*00              3617 	mov	r0,_bp
   1198 08                 3618 	inc	r0
   1199 86 82              3619 	mov	dpl,@r0
   119B 08                 3620 	inc	r0
   119C 86 83              3621 	mov	dph,@r0
   119E 08                 3622 	inc	r0
   119F 86 F0              3623 	mov	b,@r0
   11A1 12s00r00           3624 	lcall	_unicast_send
   11A4 15 81              3625 	dec	sp
   11A6 15 81              3626 	dec	sp
   11A8 15 81              3627 	dec	sp
                           3628 ;	../../../core/net/rime/collect.c:847: RIMESTATS_ADD(acktx);
   11AA 90s00r14           3629 	mov	dptr,#(_rimestats + 0x0014)
   11AD E0                 3630 	movx	a,@dptr
   11AE FA                 3631 	mov	r2,a
   11AF A3                 3632 	inc	dptr
   11B0 E0                 3633 	movx	a,@dptr
   11B1 FB                 3634 	mov	r3,a
   11B2 A3                 3635 	inc	dptr
   11B3 E0                 3636 	movx	a,@dptr
   11B4 FC                 3637 	mov	r4,a
   11B5 A3                 3638 	inc	dptr
   11B6 E0                 3639 	movx	a,@dptr
   11B7 FD                 3640 	mov	r5,a
   11B8 0A                 3641 	inc	r2
   11B9 BA 00 09           3642 	cjne	r2,#0x00,00103$
   11BC 0B                 3643 	inc	r3
   11BD BB 00 05           3644 	cjne	r3,#0x00,00103$
   11C0 0C                 3645 	inc	r4
   11C1 BC 00 01           3646 	cjne	r4,#0x00,00103$
   11C4 0D                 3647 	inc	r5
   11C5                    3648 00103$:
   11C5 90s00r14           3649 	mov	dptr,#(_rimestats + 0x0014)
   11C8 EA                 3650 	mov	a,r2
   11C9 F0                 3651 	movx	@dptr,a
   11CA A3                 3652 	inc	dptr
   11CB EB                 3653 	mov	a,r3
   11CC F0                 3654 	movx	@dptr,a
   11CD A3                 3655 	inc	dptr
   11CE EC                 3656 	mov	a,r4
   11CF F0                 3657 	movx	@dptr,a
   11D0 A3                 3658 	inc	dptr
   11D1 ED                 3659 	mov	a,r5
   11D2 F0                 3660 	movx	@dptr,a
                           3661 ;	../../../core/net/rime/collect.c:848: stats.acksent++;
   11D3 90s00rF5           3662 	mov	dptr,#(_stats + 0x000c)
   11D6 E0                 3663 	movx	a,@dptr
   11D7 FA                 3664 	mov	r2,a
   11D8 A3                 3665 	inc	dptr
   11D9 E0                 3666 	movx	a,@dptr
   11DA FB                 3667 	mov	r3,a
   11DB A3                 3668 	inc	dptr
   11DC E0                 3669 	movx	a,@dptr
   11DD FC                 3670 	mov	r4,a
   11DE A3                 3671 	inc	dptr
   11DF E0                 3672 	movx	a,@dptr
   11E0 FD                 3673 	mov	r5,a
   11E1 0A                 3674 	inc	r2
   11E2 BA 00 09           3675 	cjne	r2,#0x00,00104$
   11E5 0B                 3676 	inc	r3
   11E6 BB 00 05           3677 	cjne	r3,#0x00,00104$
   11E9 0C                 3678 	inc	r4
   11EA BC 00 01           3679 	cjne	r4,#0x00,00104$
   11ED 0D                 3680 	inc	r5
   11EE                    3681 00104$:
   11EE 90s00rF5           3682 	mov	dptr,#(_stats + 0x000c)
   11F1 EA                 3683 	mov	a,r2
   11F2 F0                 3684 	movx	@dptr,a
   11F3 A3                 3685 	inc	dptr
   11F4 EB                 3686 	mov	a,r3
   11F5 F0                 3687 	movx	@dptr,a
   11F6 A3                 3688 	inc	dptr
   11F7 EC                 3689 	mov	a,r4
   11F8 F0                 3690 	movx	@dptr,a
   11F9 A3                 3691 	inc	dptr
   11FA ED                 3692 	mov	a,r5
   11FB F0                 3693 	movx	@dptr,a
   11FC 85*00 81           3694 	mov	sp,_bp
   11FF D0*00              3695 	pop	_bp
   1201 22                 3696 	ret
                           3697 ;------------------------------------------------------------
                           3698 ;Allocation info for local variables in function 'node_packet_received'
                           3699 ;------------------------------------------------------------
                           3700 ;from                      Allocated to stack - offset -5
                           3701 ;c                         Allocated to stack - offset 1
                           3702 ;tc                        Allocated to stack - offset 4
                           3703 ;i                         Allocated to registers r2 r3 
                           3704 ;hdr                       Allocated to stack - offset 7
                           3705 ;ackflags                  Allocated to stack - offset 11
                           3706 ;n                         Allocated to registers r2 r3 r4 
                           3707 ;ack_to                    Allocated to stack - offset 12
                           3708 ;packet_seqno              Allocated to registers 
                           3709 ;q                         Allocated to registers r2 r3 r4 
                           3710 ;sloc0                     Allocated to stack - offset 14
                           3711 ;sloc1                     Allocated to stack - offset 17
                           3712 ;sloc2                     Allocated to stack - offset 29
                           3713 ;------------------------------------------------------------
                           3714 ;	../../../core/net/rime/collect.c:852: node_packet_received(struct unicast_conn *c, const rimeaddr_t *from)
                           3715 ;	-----------------------------------------
                           3716 ;	 function node_packet_received
                           3717 ;	-----------------------------------------
   1202                    3718 _node_packet_received:
   1202 C0*00              3719 	push	_bp
   1204 85 81*00           3720 	mov	_bp,sp
   1207 C0 82              3721 	push	dpl
   1209 C0 83              3722 	push	dph
   120B C0 F0              3723 	push	b
   120D E5 81              3724 	mov	a,sp
   120F 24 13              3725 	add	a,#0x13
   1211 F5 81              3726 	mov	sp,a
                           3727 ;	../../../core/net/rime/collect.c:854: struct collect_conn *tc = (struct collect_conn *)
   1213 A8*00              3728 	mov	r0,_bp
   1215 08                 3729 	inc	r0
   1216 E5*00              3730 	mov	a,_bp
   1218 24 04              3731 	add	a,#0x04
   121A F9                 3732 	mov	r1,a
   121B E6                 3733 	mov	a,@r0
   121C F7                 3734 	mov	@r1,a
   121D 08                 3735 	inc	r0
   121E 09                 3736 	inc	r1
   121F E6                 3737 	mov	a,@r0
   1220 F7                 3738 	mov	@r1,a
   1221 08                 3739 	inc	r0
   1222 09                 3740 	inc	r1
   1223 E6                 3741 	mov	a,@r0
   1224 F7                 3742 	mov	@r1,a
                           3743 ;	../../../core/net/rime/collect.c:858: uint8_t ackflags = 0;
   1225 E5*00              3744 	mov	a,_bp
   1227 24 0B              3745 	add	a,#0x0b
   1229 F8                 3746 	mov	r0,a
   122A 76 00              3747 	mov	@r0,#0x00
                           3748 ;	../../../core/net/rime/collect.c:861: memcpy(&hdr, packetbuf_dataptr(), sizeof(struct data_msg_hdr));
   122C 12s00r00           3749 	lcall	_packetbuf_dataptr
   122F AB 82              3750 	mov	r3,dpl
   1231 AC 83              3751 	mov	r4,dph
   1233 AA F0              3752 	mov	r2,b
   1235 E5*00              3753 	mov	a,_bp
   1237 24 07              3754 	add	a,#0x07
   1239 FD                 3755 	mov	r5,a
   123A 7E 00              3756 	mov	r6,#0x00
   123C 7F 40              3757 	mov	r7,#0x40
   123E 74 04              3758 	mov	a,#0x04
   1240 C0 E0              3759 	push	acc
   1242 E4                 3760 	clr	a
   1243 C0 E0              3761 	push	acc
   1245 C0 03              3762 	push	ar3
   1247 C0 04              3763 	push	ar4
   1249 C0 02              3764 	push	ar2
   124B 8D 82              3765 	mov	dpl,r5
   124D 8E 83              3766 	mov	dph,r6
   124F 8F F0              3767 	mov	b,r7
   1251 12s00r00           3768 	lcall	_memcpy
   1254 E5 81              3769 	mov	a,sp
   1256 24 FB              3770 	add	a,#0xfb
   1258 F5 81              3771 	mov	sp,a
                           3772 ;	../../../core/net/rime/collect.c:868: packetbuf_addr(PACKETBUF_ADDR_SENDER));
   125A 75 82 18           3773 	mov	dpl,#0x18
   125D 12s00r00           3774 	lcall	_packetbuf_addr
   1260 AA 82              3775 	mov	r2,dpl
   1262 AB 83              3776 	mov	r3,dph
   1264 AC F0              3777 	mov	r4,b
                           3778 ;	../../../core/net/rime/collect.c:867: n = collect_neighbor_list_find(&tc->neighbor_list,
   1266 A8*00              3779 	mov	r0,_bp
   1268 08                 3780 	inc	r0
   1269 74 7C              3781 	mov	a,#0x7C
   126B 26                 3782 	add	a,@r0
   126C FD                 3783 	mov	r5,a
   126D E4                 3784 	clr	a
   126E 08                 3785 	inc	r0
   126F 36                 3786 	addc	a,@r0
   1270 FE                 3787 	mov	r6,a
   1271 08                 3788 	inc	r0
   1272 86 07              3789 	mov	ar7,@r0
   1274 C0 02              3790 	push	ar2
   1276 C0 03              3791 	push	ar3
   1278 C0 04              3792 	push	ar4
   127A 8D 82              3793 	mov	dpl,r5
   127C 8E 83              3794 	mov	dph,r6
   127E 8F F0              3795 	mov	b,r7
   1280 12s00r00           3796 	lcall	_collect_neighbor_list_find
   1283 AA 82              3797 	mov	r2,dpl
   1285 AB 83              3798 	mov	r3,dph
   1287 AC F0              3799 	mov	r4,b
   1289 15 81              3800 	dec	sp
   128B 15 81              3801 	dec	sp
   128D 15 81              3802 	dec	sp
                           3803 ;	../../../core/net/rime/collect.c:869: if(n != NULL) {
   128F EA                 3804 	mov	a,r2
   1290 4B                 3805 	orl	a,r3
   1291 4C                 3806 	orl	a,r4
   1292 60 2B              3807 	jz	00102$
                           3808 ;	../../../core/net/rime/collect.c:870: collect_neighbor_update_rtmetric(n, hdr.rtmetric);
   1294 E5*00              3809 	mov	a,_bp
   1296 24 07              3810 	add	a,#0x07
   1298 24 02              3811 	add	a,#0x02
   129A F8                 3812 	mov	r0,a
   129B 86 05              3813 	mov	ar5,@r0
   129D 08                 3814 	inc	r0
   129E 86 06              3815 	mov	ar6,@r0
   12A0 C0 05              3816 	push	ar5
   12A2 C0 06              3817 	push	ar6
   12A4 8A 82              3818 	mov	dpl,r2
   12A6 8B 83              3819 	mov	dph,r3
   12A8 8C F0              3820 	mov	b,r4
   12AA 12s00r00           3821 	lcall	_collect_neighbor_update_rtmetric
   12AD 15 81              3822 	dec	sp
   12AF 15 81              3823 	dec	sp
                           3824 ;	../../../core/net/rime/collect.c:871: update_rtmetric(tc);
   12B1 A8*00              3825 	mov	r0,_bp
   12B3 08                 3826 	inc	r0
   12B4 86 82              3827 	mov	dpl,@r0
   12B6 08                 3828 	inc	r0
   12B7 86 83              3829 	mov	dph,@r0
   12B9 08                 3830 	inc	r0
   12BA 86 F0              3831 	mov	b,@r0
   12BC 12s02rAE           3832 	lcall	_update_rtmetric
   12BF                    3833 00102$:
                           3834 ;	../../../core/net/rime/collect.c:878: if(packetbuf_attr(PACKETBUF_ATTR_PACKET_TYPE) ==
   12BF 75 82 0E           3835 	mov	dpl,#0x0E
   12C2 12s00r00           3836 	lcall	_packetbuf_attr
   12C5 E5 82              3837 	mov	a,dpl
   12C7 85 83 F0           3838 	mov	b,dph
   12CA 45 F0              3839 	orl	a,b
   12CC 60 03              3840 	jz	00164$
   12CE 02s18rF4           3841 	ljmp	00136$
   12D1                    3842 00164$:
                           3843 ;	../../../core/net/rime/collect.c:883: stats.datarecv++;
   12D1 90s00rFD           3844 	mov	dptr,#(_stats + 0x0014)
   12D4 E0                 3845 	movx	a,@dptr
   12D5 FA                 3846 	mov	r2,a
   12D6 A3                 3847 	inc	dptr
   12D7 E0                 3848 	movx	a,@dptr
   12D8 FB                 3849 	mov	r3,a
   12D9 A3                 3850 	inc	dptr
   12DA E0                 3851 	movx	a,@dptr
   12DB FC                 3852 	mov	r4,a
   12DC A3                 3853 	inc	dptr
   12DD E0                 3854 	movx	a,@dptr
   12DE FD                 3855 	mov	r5,a
   12DF 0A                 3856 	inc	r2
   12E0 BA 00 09           3857 	cjne	r2,#0x00,00165$
   12E3 0B                 3858 	inc	r3
   12E4 BB 00 05           3859 	cjne	r3,#0x00,00165$
   12E7 0C                 3860 	inc	r4
   12E8 BC 00 01           3861 	cjne	r4,#0x00,00165$
   12EB 0D                 3862 	inc	r5
   12EC                    3863 00165$:
   12EC 90s00rFD           3864 	mov	dptr,#(_stats + 0x0014)
   12EF EA                 3865 	mov	a,r2
   12F0 F0                 3866 	movx	@dptr,a
   12F1 A3                 3867 	inc	dptr
   12F2 EB                 3868 	mov	a,r3
   12F3 F0                 3869 	movx	@dptr,a
   12F4 A3                 3870 	inc	dptr
   12F5 EC                 3871 	mov	a,r4
   12F6 F0                 3872 	movx	@dptr,a
   12F7 A3                 3873 	inc	dptr
   12F8 ED                 3874 	mov	a,r5
   12F9 F0                 3875 	movx	@dptr,a
                           3876 ;	../../../core/net/rime/collect.c:887: rimeaddr_copy(&ack_to, packetbuf_addr(PACKETBUF_ADDR_SENDER));
   12FA 75 82 18           3877 	mov	dpl,#0x18
   12FD 12s00r00           3878 	lcall	_packetbuf_addr
   1300 AA 82              3879 	mov	r2,dpl
   1302 AB 83              3880 	mov	r3,dph
   1304 AC F0              3881 	mov	r4,b
   1306 E5*00              3882 	mov	a,_bp
   1308 24 0C              3883 	add	a,#0x0c
   130A FD                 3884 	mov	r5,a
   130B 7E 00              3885 	mov	r6,#0x00
   130D 7F 40              3886 	mov	r7,#0x40
   130F C0 02              3887 	push	ar2
   1311 C0 03              3888 	push	ar3
   1313 C0 04              3889 	push	ar4
   1315 8D 82              3890 	mov	dpl,r5
   1317 8E 83              3891 	mov	dph,r6
   1319 8F F0              3892 	mov	b,r7
   131B 12s00r00           3893 	lcall	_rimeaddr_copy
   131E 15 81              3894 	dec	sp
   1320 15 81              3895 	dec	sp
   1322 15 81              3896 	dec	sp
                           3897 ;	../../../core/net/rime/collect.c:888: packet_seqno = packetbuf_attr(PACKETBUF_ATTR_PACKET_ID);
   1324 75 82 0D           3898 	mov	dpl,#0x0D
   1327 12s00r00           3899 	lcall	_packetbuf_attr
                           3900 ;	../../../core/net/rime/collect.c:895: if(packetqueue_len(&tc->send_queue) >= MAX_SENDING_QUEUE / 2) {
   132A E5*00              3901 	mov	a,_bp
   132C 24 04              3902 	add	a,#0x04
   132E F8                 3903 	mov	r0,a
   132F 74 76              3904 	mov	a,#0x76
   1331 26                 3905 	add	a,@r0
   1332 FA                 3906 	mov	r2,a
   1333 E4                 3907 	clr	a
   1334 08                 3908 	inc	r0
   1335 36                 3909 	addc	a,@r0
   1336 FB                 3910 	mov	r3,a
   1337 08                 3911 	inc	r0
   1338 86 04              3912 	mov	ar4,@r0
   133A 8A 82              3913 	mov	dpl,r2
   133C 8B 83              3914 	mov	dph,r3
   133E 8C F0              3915 	mov	b,r4
   1340 12s00r00           3916 	lcall	_packetqueue_len
   1343 AA 82              3917 	mov	r2,dpl
   1345 AB 83              3918 	mov	r3,dph
   1347 C3                 3919 	clr	c
   1348 EA                 3920 	mov	a,r2
   1349 94 02              3921 	subb	a,#0x02
   134B EB                 3922 	mov	a,r3
   134C 64 80              3923 	xrl	a,#0x80
   134E 94 80              3924 	subb	a,#0x80
   1350 40 07              3925 	jc	00151$
                           3926 ;	../../../core/net/rime/collect.c:896: ackflags |= ACK_FLAGS_CONGESTED;
   1352 E5*00              3927 	mov	a,_bp
   1354 24 0B              3928 	add	a,#0x0b
   1356 F8                 3929 	mov	r0,a
   1357 76 80              3930 	mov	@r0,#0x80
                           3931 ;	../../../core/net/rime/collect.c:899: for(i = 0; i < NUM_RECENT_PACKETS; i++) {
   1359                    3932 00151$:
   1359 7A 00              3933 	mov	r2,#0x00
   135B 7B 00              3934 	mov	r3,#0x00
   135D 7C 00              3935 	mov	r4,#0x00
   135F 7D 00              3936 	mov	r5,#0x00
   1361                    3937 00138$:
   1361 C3                 3938 	clr	c
   1362 EA                 3939 	mov	a,r2
   1363 94 10              3940 	subb	a,#0x10
   1365 EB                 3941 	mov	a,r3
   1366 64 80              3942 	xrl	a,#0x80
   1368 94 80              3943 	subb	a,#0x80
   136A 40 03              3944 	jc	00167$
   136C 02s14rC2           3945 	ljmp	00141$
   136F                    3946 00167$:
                           3947 ;	../../../core/net/rime/collect.c:900: if(recent_packets[i].conn == tc &&
   136F C0 02              3948 	push	ar2
   1371 C0 03              3949 	push	ar3
   1373 EC                 3950 	mov	a,r4
   1374 24r00              3951 	add	a,#_recent_packets
   1376 F5 82              3952 	mov	dpl,a
   1378 ED                 3953 	mov	a,r5
   1379 34s00              3954 	addc	a,#(_recent_packets >> 8)
   137B F5 83              3955 	mov	dph,a
   137D E0                 3956 	movx	a,@dptr
   137E FE                 3957 	mov	r6,a
   137F A3                 3958 	inc	dptr
   1380 E0                 3959 	movx	a,@dptr
   1381 FF                 3960 	mov	r7,a
   1382 A3                 3961 	inc	dptr
   1383 E0                 3962 	movx	a,@dptr
   1384 FA                 3963 	mov	r2,a
   1385 E5*00              3964 	mov	a,_bp
   1387 24 04              3965 	add	a,#0x04
   1389 F8                 3966 	mov	r0,a
   138A E6                 3967 	mov	a,@r0
   138B B5 06 0C           3968 	cjne	a,ar6,00168$
   138E 08                 3969 	inc	r0
   138F E6                 3970 	mov	a,@r0
   1390 B5 07 07           3971 	cjne	a,ar7,00168$
   1393 08                 3972 	inc	r0
   1394 E6                 3973 	mov	a,@r0
   1395 B5 02 02           3974 	cjne	a,ar2,00168$
   1398 80 07              3975 	sjmp	00169$
   139A                    3976 00168$:
   139A D0 03              3977 	pop	ar3
   139C D0 02              3978 	pop	ar2
   139E 02s14rB3           3979 	ljmp	00140$
   13A1                    3980 00169$:
   13A1 D0 03              3981 	pop	ar3
                           3982 ;	../../../core/net/rime/collect.c:901: recent_packets[i].eseqno == packetbuf_attr(PACKETBUF_ATTR_EPACKET_ID) &&
   13A3 C0 03              3983 	push	ar3
   13A5 EC                 3984 	mov	a,r4
   13A6 24r00              3985 	add	a,#_recent_packets
   13A8 FE                 3986 	mov	r6,a
   13A9 ED                 3987 	mov	a,r5
   13AA 34s00              3988 	addc	a,#(_recent_packets >> 8)
   13AC FF                 3989 	mov	r7,a
   13AD 8E 82              3990 	mov	dpl,r6
   13AF 8F 83              3991 	mov	dph,r7
   13B1 A3                 3992 	inc	dptr
   13B2 A3                 3993 	inc	dptr
   13B3 A3                 3994 	inc	dptr
   13B4 A3                 3995 	inc	dptr
   13B5 A3                 3996 	inc	dptr
   13B6 E0                 3997 	movx	a,@dptr
   13B7 FE                 3998 	mov	r6,a
   13B8 75 82 15           3999 	mov	dpl,#0x15
   13BB C0 03              4000 	push	ar3
   13BD C0 04              4001 	push	ar4
   13BF C0 05              4002 	push	ar5
   13C1 C0 06              4003 	push	ar6
   13C3 12s00r00           4004 	lcall	_packetbuf_attr
   13C6 AF 82              4005 	mov	r7,dpl
   13C8 AA 83              4006 	mov	r2,dph
   13CA D0 06              4007 	pop	ar6
   13CC D0 05              4008 	pop	ar5
   13CE D0 04              4009 	pop	ar4
   13D0 D0 03              4010 	pop	ar3
   13D2 7B 00              4011 	mov	r3,#0x00
   13D4 EE                 4012 	mov	a,r6
   13D5 B5 07 06           4013 	cjne	a,ar7,00170$
   13D8 EB                 4014 	mov	a,r3
   13D9 B5 02 02           4015 	cjne	a,ar2,00170$
   13DC 80 07              4016 	sjmp	00171$
   13DE                    4017 00170$:
   13DE D0 03              4018 	pop	ar3
   13E0 D0 02              4019 	pop	ar2
   13E2 02s14rB3           4020 	ljmp	00140$
   13E5                    4021 00171$:
   13E5 D0 03              4022 	pop	ar3
   13E7 D0 02              4023 	pop	ar2
                           4024 ;	../../../core/net/rime/collect.c:903: packetbuf_addr(PACKETBUF_ADDR_ESENDER))) {
   13E9 C0 02              4025 	push	ar2
   13EB C0 03              4026 	push	ar3
   13ED 75 82 1A           4027 	mov	dpl,#0x1A
   13F0 C0 02              4028 	push	ar2
   13F2 C0 03              4029 	push	ar3
   13F4 C0 04              4030 	push	ar4
   13F6 C0 05              4031 	push	ar5
   13F8 12s00r00           4032 	lcall	_packetbuf_addr
   13FB C8                 4033 	xch	a,r0
   13FC E5*00              4034 	mov	a,_bp
   13FE 24 0E              4035 	add	a,#0x0e
   1400 C8                 4036 	xch	a,r0
   1401 A6 82              4037 	mov	@r0,dpl
   1403 08                 4038 	inc	r0
   1404 A6 83              4039 	mov	@r0,dph
   1406 08                 4040 	inc	r0
   1407 A6 F0              4041 	mov	@r0,b
   1409 D0 05              4042 	pop	ar5
   140B D0 04              4043 	pop	ar4
   140D D0 03              4044 	pop	ar3
   140F D0 02              4045 	pop	ar2
                           4046 ;	../../../core/net/rime/collect.c:902: rimeaddr_cmp(&recent_packets[i].originator,
   1411 EC                 4047 	mov	a,r4
   1412 24r00              4048 	add	a,#_recent_packets
   1414 FB                 4049 	mov	r3,a
   1415 ED                 4050 	mov	a,r5
   1416 34s00              4051 	addc	a,#(_recent_packets >> 8)
   1418 FA                 4052 	mov	r2,a
   1419 74 03              4053 	mov	a,#0x03
   141B 2B                 4054 	add	a,r3
   141C FB                 4055 	mov	r3,a
   141D E4                 4056 	clr	a
   141E 3A                 4057 	addc	a,r2
   141F FA                 4058 	mov	r2,a
   1420 7E 00              4059 	mov	r6,#0x00
   1422 C0 04              4060 	push	ar4
   1424 C0 05              4061 	push	ar5
   1426 E5*00              4062 	mov	a,_bp
   1428 24 0E              4063 	add	a,#0x0e
   142A F8                 4064 	mov	r0,a
   142B E6                 4065 	mov	a,@r0
   142C C0 E0              4066 	push	acc
   142E 08                 4067 	inc	r0
   142F E6                 4068 	mov	a,@r0
   1430 C0 E0              4069 	push	acc
   1432 08                 4070 	inc	r0
   1433 E6                 4071 	mov	a,@r0
   1434 C0 E0              4072 	push	acc
   1436 8B 82              4073 	mov	dpl,r3
   1438 8A 83              4074 	mov	dph,r2
   143A 8E F0              4075 	mov	b,r6
   143C 12s00r00           4076 	lcall	_rimeaddr_cmp
   143F AA 82              4077 	mov	r2,dpl
   1441 AB 83              4078 	mov	r3,dph
   1443 15 81              4079 	dec	sp
   1445 15 81              4080 	dec	sp
   1447 15 81              4081 	dec	sp
   1449 D0 05              4082 	pop	ar5
   144B D0 04              4083 	pop	ar4
   144D EA                 4084 	mov	a,r2
   144E 4B                 4085 	orl	a,r3
   144F D0 03              4086 	pop	ar3
   1451 D0 02              4087 	pop	ar2
   1453 60 5E              4088 	jz	00140$
                           4089 ;	../../../core/net/rime/collect.c:912: send_ack(tc, &ack_to, ackflags);
   1455 E5*00              4090 	mov	a,_bp
   1457 24 0B              4091 	add	a,#0x0b
   1459 F8                 4092 	mov	r0,a
   145A 86 02              4093 	mov	ar2,@r0
   145C 7B 00              4094 	mov	r3,#0x00
   145E E5*00              4095 	mov	a,_bp
   1460 24 0C              4096 	add	a,#0x0c
   1462 FE                 4097 	mov	r6,a
   1463 7C 00              4098 	mov	r4,#0x00
   1465 7D 40              4099 	mov	r5,#0x40
   1467 C0 02              4100 	push	ar2
   1469 C0 03              4101 	push	ar3
   146B C0 06              4102 	push	ar6
   146D C0 04              4103 	push	ar4
   146F C0 05              4104 	push	ar5
   1471 E5*00              4105 	mov	a,_bp
   1473 24 04              4106 	add	a,#0x04
   1475 F8                 4107 	mov	r0,a
   1476 86 82              4108 	mov	dpl,@r0
   1478 08                 4109 	inc	r0
   1479 86 83              4110 	mov	dph,@r0
   147B 08                 4111 	inc	r0
   147C 86 F0              4112 	mov	b,@r0
   147E 12s10r5F           4113 	lcall	_send_ack
   1481 E5 81              4114 	mov	a,sp
   1483 24 FB              4115 	add	a,#0xfb
   1485 F5 81              4116 	mov	sp,a
                           4117 ;	../../../core/net/rime/collect.c:913: stats.duprecv++;
   1487 90s01r09           4118 	mov	dptr,#(_stats + 0x0020)
   148A E0                 4119 	movx	a,@dptr
   148B FA                 4120 	mov	r2,a
   148C A3                 4121 	inc	dptr
   148D E0                 4122 	movx	a,@dptr
   148E FB                 4123 	mov	r3,a
   148F A3                 4124 	inc	dptr
   1490 E0                 4125 	movx	a,@dptr
   1491 FC                 4126 	mov	r4,a
   1492 A3                 4127 	inc	dptr
   1493 E0                 4128 	movx	a,@dptr
   1494 FD                 4129 	mov	r5,a
   1495 0A                 4130 	inc	r2
   1496 BA 00 09           4131 	cjne	r2,#0x00,00173$
   1499 0B                 4132 	inc	r3
   149A BB 00 05           4133 	cjne	r3,#0x00,00173$
   149D 0C                 4134 	inc	r4
   149E BC 00 01           4135 	cjne	r4,#0x00,00173$
   14A1 0D                 4136 	inc	r5
   14A2                    4137 00173$:
   14A2 90s01r09           4138 	mov	dptr,#(_stats + 0x0020)
   14A5 EA                 4139 	mov	a,r2
   14A6 F0                 4140 	movx	@dptr,a
   14A7 A3                 4141 	inc	dptr
   14A8 EB                 4142 	mov	a,r3
   14A9 F0                 4143 	movx	@dptr,a
   14AA A3                 4144 	inc	dptr
   14AB EC                 4145 	mov	a,r4
   14AC F0                 4146 	movx	@dptr,a
   14AD A3                 4147 	inc	dptr
   14AE ED                 4148 	mov	a,r5
   14AF F0                 4149 	movx	@dptr,a
                           4150 ;	../../../core/net/rime/collect.c:914: return;
   14B0 02s19r3D           4151 	ljmp	00142$
   14B3                    4152 00140$:
                           4153 ;	../../../core/net/rime/collect.c:899: for(i = 0; i < NUM_RECENT_PACKETS; i++) {
   14B3 74 06              4154 	mov	a,#0x06
   14B5 2C                 4155 	add	a,r4
   14B6 FC                 4156 	mov	r4,a
   14B7 E4                 4157 	clr	a
   14B8 3D                 4158 	addc	a,r5
   14B9 FD                 4159 	mov	r5,a
   14BA 0A                 4160 	inc	r2
   14BB BA 00 01           4161 	cjne	r2,#0x00,00174$
   14BE 0B                 4162 	inc	r3
   14BF                    4163 00174$:
   14BF 02s13r61           4164 	ljmp	00138$
   14C2                    4165 00141$:
                           4166 ;	../../../core/net/rime/collect.c:922: if(packetbuf_datalen() > sizeof(struct data_msg_hdr)) {
   14C2 12s00r00           4167 	lcall	_packetbuf_datalen
   14C5 AA 82              4168 	mov	r2,dpl
   14C7 AB 83              4169 	mov	r3,dph
   14C9 C3                 4170 	clr	c
   14CA 74 04              4171 	mov	a,#0x04
   14CC 9A                 4172 	subb	a,r2
   14CD E4                 4173 	clr	a
   14CE 9B                 4174 	subb	a,r3
   14CF 40 03              4175 	jc	00175$
   14D1 02s15r7C           4176 	ljmp	00112$
   14D4                    4177 00175$:
                           4178 ;	../../../core/net/rime/collect.c:923: recent_packets[recent_packet_ptr].eseqno =
   14D4 90s00r60           4179 	mov	dptr,#_recent_packet_ptr
   14D7 E0                 4180 	movx	a,@dptr
   14D8 75 F0 06           4181 	mov	b,#0x06
   14DB A4                 4182 	mul	ab
   14DC 24r00              4183 	add	a,#_recent_packets
   14DE FA                 4184 	mov	r2,a
   14DF E4                 4185 	clr	a
   14E0 34s00              4186 	addc	a,#(_recent_packets >> 8)
   14E2 FB                 4187 	mov	r3,a
   14E3 74 05              4188 	mov	a,#0x05
   14E5 2A                 4189 	add	a,r2
   14E6 FA                 4190 	mov	r2,a
   14E7 E4                 4191 	clr	a
   14E8 3B                 4192 	addc	a,r3
   14E9 FB                 4193 	mov	r3,a
                           4194 ;	../../../core/net/rime/collect.c:924: packetbuf_attr(PACKETBUF_ATTR_EPACKET_ID);
   14EA 75 82 15           4195 	mov	dpl,#0x15
   14ED C0 02              4196 	push	ar2
   14EF C0 03              4197 	push	ar3
   14F1 12s00r00           4198 	lcall	_packetbuf_attr
   14F4 AC 82              4199 	mov	r4,dpl
   14F6 D0 03              4200 	pop	ar3
   14F8 D0 02              4201 	pop	ar2
   14FA 8A 82              4202 	mov	dpl,r2
   14FC 8B 83              4203 	mov	dph,r3
   14FE EC                 4204 	mov	a,r4
   14FF F0                 4205 	movx	@dptr,a
                           4206 ;	../../../core/net/rime/collect.c:926: packetbuf_addr(PACKETBUF_ADDR_ESENDER));
   1500 75 82 1A           4207 	mov	dpl,#0x1A
   1503 12s00r00           4208 	lcall	_packetbuf_addr
   1506 AA 82              4209 	mov	r2,dpl
   1508 AB 83              4210 	mov	r3,dph
   150A AC F0              4211 	mov	r4,b
                           4212 ;	../../../core/net/rime/collect.c:925: rimeaddr_copy(&recent_packets[recent_packet_ptr].originator,
   150C 90s00r60           4213 	mov	dptr,#_recent_packet_ptr
   150F E0                 4214 	movx	a,@dptr
   1510 75 F0 06           4215 	mov	b,#0x06
   1513 A4                 4216 	mul	ab
   1514 24r00              4217 	add	a,#_recent_packets
   1516 FD                 4218 	mov	r5,a
   1517 E4                 4219 	clr	a
   1518 34s00              4220 	addc	a,#(_recent_packets >> 8)
   151A FE                 4221 	mov	r6,a
   151B 74 03              4222 	mov	a,#0x03
   151D 2D                 4223 	add	a,r5
   151E FD                 4224 	mov	r5,a
   151F E4                 4225 	clr	a
   1520 3E                 4226 	addc	a,r6
   1521 FE                 4227 	mov	r6,a
   1522 7F 00              4228 	mov	r7,#0x00
   1524 C0 02              4229 	push	ar2
   1526 C0 03              4230 	push	ar3
   1528 C0 04              4231 	push	ar4
   152A 8D 82              4232 	mov	dpl,r5
   152C 8E 83              4233 	mov	dph,r6
   152E 8F F0              4234 	mov	b,r7
   1530 12s00r00           4235 	lcall	_rimeaddr_copy
   1533 15 81              4236 	dec	sp
   1535 15 81              4237 	dec	sp
   1537 15 81              4238 	dec	sp
                           4239 ;	../../../core/net/rime/collect.c:927: recent_packets[recent_packet_ptr].conn = tc;
   1539 90s00r60           4240 	mov	dptr,#_recent_packet_ptr
   153C E0                 4241 	movx	a,@dptr
   153D FA                 4242 	mov	r2,a
   153E 75 F0 06           4243 	mov	b,#0x06
   1541 A4                 4244 	mul	ab
   1542 24r00              4245 	add	a,#_recent_packets
   1544 F5 82              4246 	mov	dpl,a
   1546 E4                 4247 	clr	a
   1547 34s00              4248 	addc	a,#(_recent_packets >> 8)
   1549 F5 83              4249 	mov	dph,a
   154B E5*00              4250 	mov	a,_bp
   154D 24 04              4251 	add	a,#0x04
   154F F8                 4252 	mov	r0,a
   1550 E6                 4253 	mov	a,@r0
   1551 F0                 4254 	movx	@dptr,a
   1552 A3                 4255 	inc	dptr
   1553 08                 4256 	inc	r0
   1554 E6                 4257 	mov	a,@r0
   1555 F0                 4258 	movx	@dptr,a
   1556 A3                 4259 	inc	dptr
   1557 08                 4260 	inc	r0
   1558 E6                 4261 	mov	a,@r0
   1559 F0                 4262 	movx	@dptr,a
                           4263 ;	../../../core/net/rime/collect.c:928: recent_packet_ptr = (recent_packet_ptr + 1) % NUM_RECENT_PACKETS;
   155A 7B 00              4264 	mov	r3,#0x00
   155C 0A                 4265 	inc	r2
   155D BA 00 01           4266 	cjne	r2,#0x00,00176$
   1560 0B                 4267 	inc	r3
   1561                    4268 00176$:
   1561 74 10              4269 	mov	a,#0x10
   1563 C0 E0              4270 	push	acc
   1565 E4                 4271 	clr	a
   1566 C0 E0              4272 	push	acc
   1568 8A 82              4273 	mov	dpl,r2
   156A 8B 83              4274 	mov	dph,r3
   156C 12s00r00           4275 	lcall	__modsint
   156F AA 82              4276 	mov	r2,dpl
   1571 AB 83              4277 	mov	r3,dph
   1573 15 81              4278 	dec	sp
   1575 15 81              4279 	dec	sp
   1577 90s00r60           4280 	mov	dptr,#_recent_packet_ptr
   157A EA                 4281 	mov	a,r2
   157B F0                 4282 	movx	@dptr,a
   157C                    4283 00112$:
                           4284 ;	../../../core/net/rime/collect.c:932: if(tc->rtmetric == RTMETRIC_SINK) {
   157C E5*00              4285 	mov	a,_bp
   157E 24 04              4286 	add	a,#0x04
   1580 F8                 4287 	mov	r0,a
   1581 74 B6              4288 	mov	a,#0xB6
   1583 26                 4289 	add	a,@r0
   1584 FA                 4290 	mov	r2,a
   1585 E4                 4291 	clr	a
   1586 08                 4292 	inc	r0
   1587 36                 4293 	addc	a,@r0
   1588 FB                 4294 	mov	r3,a
   1589 08                 4295 	inc	r0
   158A 86 04              4296 	mov	ar4,@r0
   158C 8A 82              4297 	mov	dpl,r2
   158E 8B 83              4298 	mov	dph,r3
   1590 8C F0              4299 	mov	b,r4
   1592 12s00r00           4300 	lcall	__gptrget
   1595 FD                 4301 	mov	r5,a
   1596 A3                 4302 	inc	dptr
   1597 12s00r00           4303 	lcall	__gptrget
   159A FE                 4304 	mov	r6,a
   159B 4D                 4305 	orl	a,r5
   159C 60 03              4306 	jz	00177$
   159E 02s16rDC           4307 	ljmp	00131$
   15A1                    4308 00177$:
                           4309 ;	../../../core/net/rime/collect.c:937: q = queuebuf_new_from_packetbuf();
   15A1 12s00r00           4310 	lcall	_queuebuf_new_from_packetbuf
   15A4 AD 82              4311 	mov	r5,dpl
   15A6 AE 83              4312 	mov	r6,dph
   15A8 AF F0              4313 	mov	r7,b
   15AA 8D 02              4314 	mov	ar2,r5
   15AC 8E 03              4315 	mov	ar3,r6
   15AE 8F 04              4316 	mov	ar4,r7
                           4317 ;	../../../core/net/rime/collect.c:938: if(q != NULL) {
   15B0 EA                 4318 	mov	a,r2
   15B1 4B                 4319 	orl	a,r3
   15B2 4C                 4320 	orl	a,r4
   15B3 60 56              4321 	jz	00114$
                           4322 ;	../../../core/net/rime/collect.c:939: send_ack(tc, &ack_to, 0);
   15B5 E5*00              4323 	mov	a,_bp
   15B7 24 0C              4324 	add	a,#0x0c
   15B9 FD                 4325 	mov	r5,a
   15BA 7E 00              4326 	mov	r6,#0x00
   15BC 7F 40              4327 	mov	r7,#0x40
   15BE C0 02              4328 	push	ar2
   15C0 C0 03              4329 	push	ar3
   15C2 C0 04              4330 	push	ar4
   15C4 E4                 4331 	clr	a
   15C5 C0 E0              4332 	push	acc
   15C7 C0 E0              4333 	push	acc
   15C9 C0 05              4334 	push	ar5
   15CB C0 06              4335 	push	ar6
   15CD C0 07              4336 	push	ar7
   15CF E5*00              4337 	mov	a,_bp
   15D1 24 04              4338 	add	a,#0x04
   15D3 F8                 4339 	mov	r0,a
   15D4 86 82              4340 	mov	dpl,@r0
   15D6 08                 4341 	inc	r0
   15D7 86 83              4342 	mov	dph,@r0
   15D9 08                 4343 	inc	r0
   15DA 86 F0              4344 	mov	b,@r0
   15DC 12s10r5F           4345 	lcall	_send_ack
   15DF E5 81              4346 	mov	a,sp
   15E1 24 FB              4347 	add	a,#0xfb
   15E3 F5 81              4348 	mov	sp,a
   15E5 D0 04              4349 	pop	ar4
   15E7 D0 03              4350 	pop	ar3
   15E9 D0 02              4351 	pop	ar2
                           4352 ;	../../../core/net/rime/collect.c:940: queuebuf_to_packetbuf(q);
   15EB 8A 82              4353 	mov	dpl,r2
   15ED 8B 83              4354 	mov	dph,r3
   15EF 8C F0              4355 	mov	b,r4
   15F1 C0 02              4356 	push	ar2
   15F3 C0 03              4357 	push	ar3
   15F5 C0 04              4358 	push	ar4
   15F7 12s00r00           4359 	lcall	_queuebuf_to_packetbuf
   15FA D0 04              4360 	pop	ar4
   15FC D0 03              4361 	pop	ar3
   15FE D0 02              4362 	pop	ar2
                           4363 ;	../../../core/net/rime/collect.c:941: queuebuf_free(q);
   1600 8A 82              4364 	mov	dpl,r2
   1602 8B 83              4365 	mov	dph,r3
   1604 8C F0              4366 	mov	b,r4
   1606 12s00r00           4367 	lcall	_queuebuf_free
   1609 80 29              4368 	sjmp	00115$
   160B                    4369 00114$:
                           4370 ;	../../../core/net/rime/collect.c:947: stats.ackdrop++;
   160B 90s01r19           4371 	mov	dptr,#(_stats + 0x0030)
   160E E0                 4372 	movx	a,@dptr
   160F FA                 4373 	mov	r2,a
   1610 A3                 4374 	inc	dptr
   1611 E0                 4375 	movx	a,@dptr
   1612 FB                 4376 	mov	r3,a
   1613 A3                 4377 	inc	dptr
   1614 E0                 4378 	movx	a,@dptr
   1615 FC                 4379 	mov	r4,a
   1616 A3                 4380 	inc	dptr
   1617 E0                 4381 	movx	a,@dptr
   1618 FD                 4382 	mov	r5,a
   1619 0A                 4383 	inc	r2
   161A BA 00 09           4384 	cjne	r2,#0x00,00179$
   161D 0B                 4385 	inc	r3
   161E BB 00 05           4386 	cjne	r3,#0x00,00179$
   1621 0C                 4387 	inc	r4
   1622 BC 00 01           4388 	cjne	r4,#0x00,00179$
   1625 0D                 4389 	inc	r5
   1626                    4390 00179$:
   1626 90s01r19           4391 	mov	dptr,#(_stats + 0x0030)
   1629 EA                 4392 	mov	a,r2
   162A F0                 4393 	movx	@dptr,a
   162B A3                 4394 	inc	dptr
   162C EB                 4395 	mov	a,r3
   162D F0                 4396 	movx	@dptr,a
   162E A3                 4397 	inc	dptr
   162F EC                 4398 	mov	a,r4
   1630 F0                 4399 	movx	@dptr,a
   1631 A3                 4400 	inc	dptr
   1632 ED                 4401 	mov	a,r5
   1633 F0                 4402 	movx	@dptr,a
   1634                    4403 00115$:
                           4404 ;	../../../core/net/rime/collect.c:958: packetbuf_hdrreduce(sizeof(struct data_msg_hdr));
   1634 90 00 04           4405 	mov	dptr,#0x0004
   1637 12s00r00           4406 	lcall	_packetbuf_hdrreduce
                           4407 ;	../../../core/net/rime/collect.c:960: if(packetbuf_datalen() > 0 && tc->cb->recv != NULL) {
   163A 12s00r00           4408 	lcall	_packetbuf_datalen
   163D E5 82              4409 	mov	a,dpl
   163F 85 83 F0           4410 	mov	b,dph
   1642 45 F0              4411 	orl	a,b
   1644 70 03              4412 	jnz	00180$
   1646 02s16rD9           4413 	ljmp	00117$
   1649                    4414 00180$:
   1649 E5*00              4415 	mov	a,_bp
   164B 24 04              4416 	add	a,#0x04
   164D F8                 4417 	mov	r0,a
   164E 74 58              4418 	mov	a,#0x58
   1650 26                 4419 	add	a,@r0
   1651 FD                 4420 	mov	r5,a
   1652 E4                 4421 	clr	a
   1653 08                 4422 	inc	r0
   1654 36                 4423 	addc	a,@r0
   1655 FE                 4424 	mov	r6,a
   1656 08                 4425 	inc	r0
   1657 86 07              4426 	mov	ar7,@r0
   1659 8D 82              4427 	mov	dpl,r5
   165B 8E 83              4428 	mov	dph,r6
   165D 8F F0              4429 	mov	b,r7
   165F 12s00r00           4430 	lcall	__gptrget
   1662 FD                 4431 	mov	r5,a
   1663 A3                 4432 	inc	dptr
   1664 12s00r00           4433 	lcall	__gptrget
   1667 FE                 4434 	mov	r6,a
   1668 A3                 4435 	inc	dptr
   1669 12s00r00           4436 	lcall	__gptrget
   166C FF                 4437 	mov	r7,a
   166D 8D 82              4438 	mov	dpl,r5
   166F 8E 83              4439 	mov	dph,r6
   1671 8F F0              4440 	mov	b,r7
   1673 12s00r00           4441 	lcall	__gptrget
   1676 FA                 4442 	mov	r2,a
   1677 A3                 4443 	inc	dptr
   1678 12s00r00           4444 	lcall	__gptrget
   167B FB                 4445 	mov	r3,a
   167C 4A                 4446 	orl	a,r2
   167D 60 5A              4447 	jz	00117$
                           4448 ;	../../../core/net/rime/collect.c:963: packetbuf_attr(PACKETBUF_ATTR_HOPS));
   167F 75 82 13           4449 	mov	dpl,#0x13
   1682 C0 02              4450 	push	ar2
   1684 C0 03              4451 	push	ar3
   1686 12s00r00           4452 	lcall	_packetbuf_attr
   1689 AF 82              4453 	mov	r7,dpl
   168B 8F 04              4454 	mov	ar4,r7
                           4455 ;	../../../core/net/rime/collect.c:962: packetbuf_attr(PACKETBUF_ATTR_EPACKET_ID),
   168D 75 82 15           4456 	mov	dpl,#0x15
   1690 C0 04              4457 	push	ar4
   1692 12s00r00           4458 	lcall	_packetbuf_attr
   1695 AD 82              4459 	mov	r5,dpl
   1697 E5*00              4460 	mov	a,_bp
   1699 24 11              4461 	add	a,#0x11
   169B F8                 4462 	mov	r0,a
   169C A6 05              4463 	mov	@r0,ar5
                           4464 ;	../../../core/net/rime/collect.c:961: tc->cb->recv(packetbuf_addr(PACKETBUF_ADDR_ESENDER),
   169E 75 82 1A           4465 	mov	dpl,#0x1A
   16A1 12s00r00           4466 	lcall	_packetbuf_addr
   16A4 AE 82              4467 	mov	r6,dpl
   16A6 AD 83              4468 	mov	r5,dph
   16A8 AF F0              4469 	mov	r7,b
   16AA D0 04              4470 	pop	ar4
   16AC D0 03              4471 	pop	ar3
   16AE D0 02              4472 	pop	ar2
   16B0 C0 02              4473 	push	ar2
   16B2 C0 03              4474 	push	ar3
   16B4 C0 04              4475 	push	ar4
   16B6 E5*00              4476 	mov	a,_bp
   16B8 24 11              4477 	add	a,#0x11
   16BA F8                 4478 	mov	r0,a
   16BB E6                 4479 	mov	a,@r0
   16BC C0 E0              4480 	push	acc
   16BE 74rD1              4481 	mov	a,#00182$
   16C0 C0 E0              4482 	push	acc
   16C2 74s16              4483 	mov	a,#(00182$ >> 8)
   16C4 C0 E0              4484 	push	acc
   16C6 C0 02              4485 	push	ar2
   16C8 C0 03              4486 	push	ar3
   16CA 8E 82              4487 	mov	dpl,r6
   16CC 8D 83              4488 	mov	dph,r5
   16CE 8F F0              4489 	mov	b,r7
   16D0 22                 4490 	ret
   16D1                    4491 00182$:
   16D1 15 81              4492 	dec	sp
   16D3 15 81              4493 	dec	sp
   16D5 D0 03              4494 	pop	ar3
   16D7 D0 02              4495 	pop	ar2
   16D9                    4496 00117$:
                           4497 ;	../../../core/net/rime/collect.c:965: return;
   16D9 02s19r3D           4498 	ljmp	00142$
   16DC                    4499 00131$:
                           4500 ;	../../../core/net/rime/collect.c:966: } else if(packetbuf_attr(PACKETBUF_ATTR_TTL) > 1 &&
   16DC 75 82 14           4501 	mov	dpl,#0x14
   16DF C0 02              4502 	push	ar2
   16E1 C0 03              4503 	push	ar3
   16E3 C0 04              4504 	push	ar4
   16E5 12s00r00           4505 	lcall	_packetbuf_attr
   16E8 AD 82              4506 	mov	r5,dpl
   16EA AE 83              4507 	mov	r6,dph
   16EC D0 04              4508 	pop	ar4
   16EE D0 03              4509 	pop	ar3
   16F0 D0 02              4510 	pop	ar2
   16F2 C3                 4511 	clr	c
   16F3 74 01              4512 	mov	a,#0x01
   16F5 9D                 4513 	subb	a,r5
   16F6 E4                 4514 	clr	a
   16F7 9E                 4515 	subb	a,r6
   16F8 40 03              4516 	jc	00183$
   16FA 02s18r80           4517 	ljmp	00127$
   16FD                    4518 00183$:
                           4519 ;	../../../core/net/rime/collect.c:967: tc->rtmetric != RTMETRIC_MAX) {
   16FD 8A 82              4520 	mov	dpl,r2
   16FF 8B 83              4521 	mov	dph,r3
   1701 8C F0              4522 	mov	b,r4
   1703 12s00r00           4523 	lcall	__gptrget
   1706 FA                 4524 	mov	r2,a
   1707 A3                 4525 	inc	dptr
   1708 12s00r00           4526 	lcall	__gptrget
   170B FB                 4527 	mov	r3,a
   170C BA FF 06           4528 	cjne	r2,#0xFF,00184$
   170F BB 0F 03           4529 	cjne	r3,#0x0F,00184$
   1712 02s18r80           4530 	ljmp	00127$
   1715                    4531 00184$:
                           4532 ;	../../../core/net/rime/collect.c:976: if(hdr.rtmetric <= tc->rtmetric) {
   1715 E5*00              4533 	mov	a,_bp
   1717 24 07              4534 	add	a,#0x07
   1719 24 02              4535 	add	a,#0x02
   171B F8                 4536 	mov	r0,a
   171C 86 04              4537 	mov	ar4,@r0
   171E 08                 4538 	inc	r0
   171F 86 05              4539 	mov	ar5,@r0
   1721 C3                 4540 	clr	c
   1722 EA                 4541 	mov	a,r2
   1723 9C                 4542 	subb	a,r4
   1724 EB                 4543 	mov	a,r3
   1725 9D                 4544 	subb	a,r5
   1726 40 09              4545 	jc	00120$
                           4546 ;	../../../core/net/rime/collect.c:977: ackflags |= ACK_FLAGS_RTMETRIC_NEEDS_UPDATE;
   1728 E5*00              4547 	mov	a,_bp
   172A 24 0B              4548 	add	a,#0x0b
   172C F8                 4549 	mov	r0,a
   172D E6                 4550 	mov	a,@r0
   172E 44 10              4551 	orl	a,#0x10
   1730 F6                 4552 	mov	@r0,a
   1731                    4553 00120$:
                           4554 ;	../../../core/net/rime/collect.c:981: packetbuf_attr(PACKETBUF_ATTR_HOPS) + 1);
   1731 75 82 13           4555 	mov	dpl,#0x13
   1734 12s00r00           4556 	lcall	_packetbuf_attr
   1737 E5 82              4557 	mov	a,dpl
   1739 85 83 F0           4558 	mov	b,dph
   173C 24 01              4559 	add	a,#0x01
   173E FA                 4560 	mov	r2,a
   173F E4                 4561 	clr	a
   1740 35 F0              4562 	addc	a,b
   1742 FB                 4563 	mov	r3,a
                           4564 ;	../../../core/net/rime/collect.c:980: packetbuf_set_attr(PACKETBUF_ATTR_HOPS,
   1743 C0 02              4565 	push	ar2
   1745 C0 03              4566 	push	ar3
   1747 75 82 13           4567 	mov	dpl,#0x13
   174A 12s00r00           4568 	lcall	_packetbuf_set_attr
   174D 15 81              4569 	dec	sp
   174F 15 81              4570 	dec	sp
                           4571 ;	../../../core/net/rime/collect.c:983: packetbuf_attr(PACKETBUF_ATTR_TTL) - 1);
   1751 75 82 14           4572 	mov	dpl,#0x14
   1754 12s00r00           4573 	lcall	_packetbuf_attr
   1757 E5 82              4574 	mov	a,dpl
   1759 85 83 F0           4575 	mov	b,dph
   175C 24 FF              4576 	add	a,#0xff
   175E FA                 4577 	mov	r2,a
   175F E5 F0              4578 	mov	a,b
   1761 34 FF              4579 	addc	a,#0xff
   1763 FB                 4580 	mov	r3,a
                           4581 ;	../../../core/net/rime/collect.c:982: packetbuf_set_attr(PACKETBUF_ATTR_TTL,
   1764 C0 02              4582 	push	ar2
   1766 C0 03              4583 	push	ar3
   1768 75 82 14           4584 	mov	dpl,#0x14
   176B 12s00r00           4585 	lcall	_packetbuf_set_attr
   176E 15 81              4586 	dec	sp
   1770 15 81              4587 	dec	sp
                           4588 ;	../../../core/net/rime/collect.c:1000: if(packetqueue_enqueue_packetbuf(&tc->send_queue,
   1772 E5*00              4589 	mov	a,_bp
   1774 24 04              4590 	add	a,#0x04
   1776 F8                 4591 	mov	r0,a
   1777 74 76              4592 	mov	a,#0x76
   1779 26                 4593 	add	a,@r0
   177A FA                 4594 	mov	r2,a
   177B E4                 4595 	clr	a
   177C 08                 4596 	inc	r0
   177D 36                 4597 	addc	a,@r0
   177E FB                 4598 	mov	r3,a
   177F 08                 4599 	inc	r0
   1780 86 04              4600 	mov	ar4,@r0
   1782 E5*00              4601 	mov	a,_bp
   1784 24 04              4602 	add	a,#0x04
   1786 F8                 4603 	mov	r0,a
   1787 E6                 4604 	mov	a,@r0
   1788 C0 E0              4605 	push	acc
   178A 08                 4606 	inc	r0
   178B E6                 4607 	mov	a,@r0
   178C C0 E0              4608 	push	acc
   178E 08                 4609 	inc	r0
   178F E6                 4610 	mov	a,@r0
   1790 C0 E0              4611 	push	acc
   1792 E4                 4612 	clr	a
   1793 C0 E0              4613 	push	acc
   1795 74 3C              4614 	mov	a,#0x3C
   1797 C0 E0              4615 	push	acc
   1799 8A 82              4616 	mov	dpl,r2
   179B 8B 83              4617 	mov	dph,r3
   179D 8C F0              4618 	mov	b,r4
   179F 12s00r00           4619 	lcall	_packetqueue_enqueue_packetbuf
   17A2 AA 82              4620 	mov	r2,dpl
   17A4 AB 83              4621 	mov	r3,dph
   17A6 E5 81              4622 	mov	a,sp
   17A8 24 FB              4623 	add	a,#0xfb
   17AA F5 81              4624 	mov	sp,a
   17AC EA                 4625 	mov	a,r2
   17AD 4B                 4626 	orl	a,r3
   17AE 60 45              4627 	jz	00122$
                           4628 ;	../../../core/net/rime/collect.c:1002: send_ack(tc, &ack_to, ackflags);
   17B0 E5*00              4629 	mov	a,_bp
   17B2 24 0B              4630 	add	a,#0x0b
   17B4 F8                 4631 	mov	r0,a
   17B5 86 02              4632 	mov	ar2,@r0
   17B7 7B 00              4633 	mov	r3,#0x00
   17B9 E5*00              4634 	mov	a,_bp
   17BB 24 0C              4635 	add	a,#0x0c
   17BD FC                 4636 	mov	r4,a
   17BE 7D 00              4637 	mov	r5,#0x00
   17C0 7E 40              4638 	mov	r6,#0x40
   17C2 C0 02              4639 	push	ar2
   17C4 C0 03              4640 	push	ar3
   17C6 C0 04              4641 	push	ar4
   17C8 C0 05              4642 	push	ar5
   17CA C0 06              4643 	push	ar6
   17CC E5*00              4644 	mov	a,_bp
   17CE 24 04              4645 	add	a,#0x04
   17D0 F8                 4646 	mov	r0,a
   17D1 86 82              4647 	mov	dpl,@r0
   17D3 08                 4648 	inc	r0
   17D4 86 83              4649 	mov	dph,@r0
   17D6 08                 4650 	inc	r0
   17D7 86 F0              4651 	mov	b,@r0
   17D9 12s10r5F           4652 	lcall	_send_ack
   17DC E5 81              4653 	mov	a,sp
   17DE 24 FB              4654 	add	a,#0xfb
   17E0 F5 81              4655 	mov	sp,a
                           4656 ;	../../../core/net/rime/collect.c:1003: send_queued_packet(tc);
   17E2 E5*00              4657 	mov	a,_bp
   17E4 24 04              4658 	add	a,#0x04
   17E6 F8                 4659 	mov	r0,a
   17E7 86 82              4660 	mov	dpl,@r0
   17E9 08                 4661 	inc	r0
   17EA 86 83              4662 	mov	dph,@r0
   17EC 08                 4663 	inc	r0
   17ED 86 F0              4664 	mov	b,@r0
   17EF 12s05r16           4665 	lcall	_send_queued_packet
   17F2 02s19r3D           4666 	ljmp	00137$
   17F5                    4667 00122$:
                           4668 ;	../../../core/net/rime/collect.c:1006: ackflags | ACK_FLAGS_DROPPED | ACK_FLAGS_CONGESTED);
   17F5 E5*00              4669 	mov	a,_bp
   17F7 24 0B              4670 	add	a,#0x0b
   17F9 F8                 4671 	mov	r0,a
   17FA 74 C0              4672 	mov	a,#0xC0
   17FC 46                 4673 	orl	a,@r0
   17FD FA                 4674 	mov	r2,a
   17FE 7B 00              4675 	mov	r3,#0x00
                           4676 ;	../../../core/net/rime/collect.c:1005: send_ack(tc, &ack_to,
   1800 E5*00              4677 	mov	a,_bp
   1802 24 0C              4678 	add	a,#0x0c
   1804 FC                 4679 	mov	r4,a
   1805 7D 00              4680 	mov	r5,#0x00
   1807 7E 40              4681 	mov	r6,#0x40
   1809 C0 02              4682 	push	ar2
   180B C0 03              4683 	push	ar3
   180D C0 04              4684 	push	ar4
   180F C0 05              4685 	push	ar5
   1811 C0 06              4686 	push	ar6
   1813 E5*00              4687 	mov	a,_bp
   1815 24 04              4688 	add	a,#0x04
   1817 F8                 4689 	mov	r0,a
   1818 86 82              4690 	mov	dpl,@r0
   181A 08                 4691 	inc	r0
   181B 86 83              4692 	mov	dph,@r0
   181D 08                 4693 	inc	r0
   181E 86 F0              4694 	mov	b,@r0
   1820 12s10r5F           4695 	lcall	_send_ack
   1823 E5 81              4696 	mov	a,sp
   1825 24 FB              4697 	add	a,#0xfb
   1827 F5 81              4698 	mov	sp,a
                           4699 ;	../../../core/net/rime/collect.c:1008: rimeaddr_node_addr.u8[0], rimeaddr_node_addr.u8[1]);
   1829 90s00r01           4700 	mov	dptr,#(_rimeaddr_node_addr + 0x0001)
   182C E0                 4701 	movx	a,@dptr
   182D FA                 4702 	mov	r2,a
   182E 7B 00              4703 	mov	r3,#0x00
   1830 90s00r00           4704 	mov	dptr,#_rimeaddr_node_addr
   1833 E0                 4705 	movx	a,@dptr
   1834 FC                 4706 	mov	r4,a
   1835 7D 00              4707 	mov	r5,#0x00
                           4708 ;	../../../core/net/rime/collect.c:1007: printf("%d.%d: packet dropped: no queue buffer available\n",
   1837 C0 02              4709 	push	ar2
   1839 C0 03              4710 	push	ar3
   183B C0 04              4711 	push	ar4
   183D C0 05              4712 	push	ar5
   183F 74r53              4713 	mov	a,#__str_8
   1841 C0 E0              4714 	push	acc
   1843 74s00              4715 	mov	a,#(__str_8 >> 8)
   1845 C0 E0              4716 	push	acc
   1847 74 80              4717 	mov	a,#0x80
   1849 C0 E0              4718 	push	acc
   184B 12s00r00           4719 	lcall	_printf
   184E E5 81              4720 	mov	a,sp
   1850 24 F9              4721 	add	a,#0xf9
   1852 F5 81              4722 	mov	sp,a
                           4723 ;	../../../core/net/rime/collect.c:1009: stats.qdrop++;
   1854 90s01r0D           4724 	mov	dptr,#(_stats + 0x0024)
   1857 E0                 4725 	movx	a,@dptr
   1858 FA                 4726 	mov	r2,a
   1859 A3                 4727 	inc	dptr
   185A E0                 4728 	movx	a,@dptr
   185B FB                 4729 	mov	r3,a
   185C A3                 4730 	inc	dptr
   185D E0                 4731 	movx	a,@dptr
   185E FC                 4732 	mov	r4,a
   185F A3                 4733 	inc	dptr
   1860 E0                 4734 	movx	a,@dptr
   1861 FD                 4735 	mov	r5,a
   1862 0A                 4736 	inc	r2
   1863 BA 00 09           4737 	cjne	r2,#0x00,00187$
   1866 0B                 4738 	inc	r3
   1867 BB 00 05           4739 	cjne	r3,#0x00,00187$
   186A 0C                 4740 	inc	r4
   186B BC 00 01           4741 	cjne	r4,#0x00,00187$
   186E 0D                 4742 	inc	r5
   186F                    4743 00187$:
   186F 90s01r0D           4744 	mov	dptr,#(_stats + 0x0024)
   1872 EA                 4745 	mov	a,r2
   1873 F0                 4746 	movx	@dptr,a
   1874 A3                 4747 	inc	dptr
   1875 EB                 4748 	mov	a,r3
   1876 F0                 4749 	movx	@dptr,a
   1877 A3                 4750 	inc	dptr
   1878 EC                 4751 	mov	a,r4
   1879 F0                 4752 	movx	@dptr,a
   187A A3                 4753 	inc	dptr
   187B ED                 4754 	mov	a,r5
   187C F0                 4755 	movx	@dptr,a
   187D 02s19r3D           4756 	ljmp	00137$
   1880                    4757 00127$:
                           4758 ;	../../../core/net/rime/collect.c:1011: } else if(packetbuf_attr(PACKETBUF_ATTR_TTL) <= 1) {
   1880 75 82 14           4759 	mov	dpl,#0x14
   1883 12s00r00           4760 	lcall	_packetbuf_attr
   1886 AA 82              4761 	mov	r2,dpl
   1888 AB 83              4762 	mov	r3,dph
   188A C3                 4763 	clr	c
   188B 74 01              4764 	mov	a,#0x01
   188D 9A                 4765 	subb	a,r2
   188E E4                 4766 	clr	a
   188F 9B                 4767 	subb	a,r3
   1890 50 03              4768 	jnc	00188$
   1892 02s19r3D           4769 	ljmp	00137$
   1895                    4770 00188$:
                           4771 ;	../../../core/net/rime/collect.c:1016: ACK_FLAGS_DROPPED | ACK_FLAGS_LIFETIME_EXCEEDED);
   1895 E5*00              4772 	mov	a,_bp
   1897 24 0B              4773 	add	a,#0x0b
   1899 F8                 4774 	mov	r0,a
   189A 74 60              4775 	mov	a,#0x60
   189C 46                 4776 	orl	a,@r0
   189D FA                 4777 	mov	r2,a
   189E 7B 00              4778 	mov	r3,#0x00
                           4779 ;	../../../core/net/rime/collect.c:1015: send_ack(tc, &ack_to, ackflags |
   18A0 E5*00              4780 	mov	a,_bp
   18A2 24 0C              4781 	add	a,#0x0c
   18A4 FC                 4782 	mov	r4,a
   18A5 7D 00              4783 	mov	r5,#0x00
   18A7 7E 40              4784 	mov	r6,#0x40
   18A9 C0 02              4785 	push	ar2
   18AB C0 03              4786 	push	ar3
   18AD C0 04              4787 	push	ar4
   18AF C0 05              4788 	push	ar5
   18B1 C0 06              4789 	push	ar6
   18B3 E5*00              4790 	mov	a,_bp
   18B5 24 04              4791 	add	a,#0x04
   18B7 F8                 4792 	mov	r0,a
   18B8 86 82              4793 	mov	dpl,@r0
   18BA 08                 4794 	inc	r0
   18BB 86 83              4795 	mov	dph,@r0
   18BD 08                 4796 	inc	r0
   18BE 86 F0              4797 	mov	b,@r0
   18C0 12s10r5F           4798 	lcall	_send_ack
   18C3 E5 81              4799 	mov	a,sp
   18C5 24 FB              4800 	add	a,#0xfb
   18C7 F5 81              4801 	mov	sp,a
                           4802 ;	../../../core/net/rime/collect.c:1017: stats.ttldrop++;
   18C9 90s01r15           4803 	mov	dptr,#(_stats + 0x002c)
   18CC E0                 4804 	movx	a,@dptr
   18CD FA                 4805 	mov	r2,a
   18CE A3                 4806 	inc	dptr
   18CF E0                 4807 	movx	a,@dptr
   18D0 FB                 4808 	mov	r3,a
   18D1 A3                 4809 	inc	dptr
   18D2 E0                 4810 	movx	a,@dptr
   18D3 FC                 4811 	mov	r4,a
   18D4 A3                 4812 	inc	dptr
   18D5 E0                 4813 	movx	a,@dptr
   18D6 FD                 4814 	mov	r5,a
   18D7 0A                 4815 	inc	r2
   18D8 BA 00 09           4816 	cjne	r2,#0x00,00189$
   18DB 0B                 4817 	inc	r3
   18DC BB 00 05           4818 	cjne	r3,#0x00,00189$
   18DF 0C                 4819 	inc	r4
   18E0 BC 00 01           4820 	cjne	r4,#0x00,00189$
   18E3 0D                 4821 	inc	r5
   18E4                    4822 00189$:
   18E4 90s01r15           4823 	mov	dptr,#(_stats + 0x002c)
   18E7 EA                 4824 	mov	a,r2
   18E8 F0                 4825 	movx	@dptr,a
   18E9 A3                 4826 	inc	dptr
   18EA EB                 4827 	mov	a,r3
   18EB F0                 4828 	movx	@dptr,a
   18EC A3                 4829 	inc	dptr
   18ED EC                 4830 	mov	a,r4
   18EE F0                 4831 	movx	@dptr,a
   18EF A3                 4832 	inc	dptr
   18F0 ED                 4833 	mov	a,r5
   18F1 F0                 4834 	movx	@dptr,a
   18F2 80 49              4835 	sjmp	00137$
   18F4                    4836 00136$:
                           4837 ;	../../../core/net/rime/collect.c:1019: } else if(packetbuf_attr(PACKETBUF_ATTR_PACKET_TYPE) ==
   18F4 75 82 0E           4838 	mov	dpl,#0x0E
   18F7 12s00r00           4839 	lcall	_packetbuf_attr
   18FA AA 82              4840 	mov	r2,dpl
   18FC AB 83              4841 	mov	r3,dph
   18FE BA 01 3C           4842 	cjne	r2,#0x01,00137$
   1901 BB 00 39           4843 	cjne	r3,#0x00,00137$
                           4844 ;	../../../core/net/rime/collect.c:1029: handle_ack(tc);
   1904 E5*00              4845 	mov	a,_bp
   1906 24 04              4846 	add	a,#0x04
   1908 F8                 4847 	mov	r0,a
   1909 86 82              4848 	mov	dpl,@r0
   190B 08                 4849 	inc	r0
   190C 86 83              4850 	mov	dph,@r0
   190E 08                 4851 	inc	r0
   190F 86 F0              4852 	mov	b,@r0
   1911 12s0Dr51           4853 	lcall	_handle_ack
                           4854 ;	../../../core/net/rime/collect.c:1030: stats.ackrecv++;
   1914 90s01r01           4855 	mov	dptr,#(_stats + 0x0018)
   1917 E0                 4856 	movx	a,@dptr
   1918 FA                 4857 	mov	r2,a
   1919 A3                 4858 	inc	dptr
   191A E0                 4859 	movx	a,@dptr
   191B FB                 4860 	mov	r3,a
   191C A3                 4861 	inc	dptr
   191D E0                 4862 	movx	a,@dptr
   191E FC                 4863 	mov	r4,a
   191F A3                 4864 	inc	dptr
   1920 E0                 4865 	movx	a,@dptr
   1921 FD                 4866 	mov	r5,a
   1922 0A                 4867 	inc	r2
   1923 BA 00 09           4868 	cjne	r2,#0x00,00192$
   1926 0B                 4869 	inc	r3
   1927 BB 00 05           4870 	cjne	r3,#0x00,00192$
   192A 0C                 4871 	inc	r4
   192B BC 00 01           4872 	cjne	r4,#0x00,00192$
   192E 0D                 4873 	inc	r5
   192F                    4874 00192$:
   192F 90s01r01           4875 	mov	dptr,#(_stats + 0x0018)
   1932 EA                 4876 	mov	a,r2
   1933 F0                 4877 	movx	@dptr,a
   1934 A3                 4878 	inc	dptr
   1935 EB                 4879 	mov	a,r3
   1936 F0                 4880 	movx	@dptr,a
   1937 A3                 4881 	inc	dptr
   1938 EC                 4882 	mov	a,r4
   1939 F0                 4883 	movx	@dptr,a
   193A A3                 4884 	inc	dptr
   193B ED                 4885 	mov	a,r5
   193C F0                 4886 	movx	@dptr,a
   193D                    4887 00137$:
                           4888 ;	../../../core/net/rime/collect.c:1032: return;
   193D                    4889 00142$:
   193D 85*00 81           4890 	mov	sp,_bp
   1940 D0*00              4891 	pop	_bp
   1942 22                 4892 	ret
                           4893 ;------------------------------------------------------------
                           4894 ;Allocation info for local variables in function 'node_packet_sent'
                           4895 ;------------------------------------------------------------
                           4896 ;status                    Allocated to stack - offset -4
                           4897 ;transmissions             Allocated to stack - offset -6
                           4898 ;c                         Allocated to registers r2 r3 r4 
                           4899 ;tc                        Allocated to stack - offset 1
                           4900 ;time                      Allocated to registers r5 r6 
                           4901 ;rexmit_time_scaling       Allocated to registers r2 
                           4902 ;------------------------------------------------------------
                           4903 ;	../../../core/net/rime/collect.c:1036: node_packet_sent(struct unicast_conn *c, int status, int transmissions)
                           4904 ;	-----------------------------------------
                           4905 ;	 function node_packet_sent
                           4906 ;	-----------------------------------------
   1943                    4907 _node_packet_sent:
   1943 C0*00              4908 	push	_bp
   1945 85 81*00           4909 	mov	_bp,sp
   1948 05 81              4910 	inc	sp
   194A 05 81              4911 	inc	sp
   194C 05 81              4912 	inc	sp
   194E AA 82              4913 	mov	r2,dpl
   1950 AB 83              4914 	mov	r3,dph
   1952 AC F0              4915 	mov	r4,b
                           4916 ;	../../../core/net/rime/collect.c:1038: struct collect_conn *tc = (struct collect_conn *)
   1954 A8*00              4917 	mov	r0,_bp
   1956 08                 4918 	inc	r0
   1957 A6 02              4919 	mov	@r0,ar2
   1959 08                 4920 	inc	r0
   195A A6 03              4921 	mov	@r0,ar3
   195C 08                 4922 	inc	r0
   195D A6 04              4923 	mov	@r0,ar4
                           4924 ;	../../../core/net/rime/collect.c:1044: if(packetbuf_attr(PACKETBUF_ATTR_PACKET_TYPE) ==
   195F 75 82 0E           4925 	mov	dpl,#0x0E
   1962 C0 02              4926 	push	ar2
   1964 C0 03              4927 	push	ar3
   1966 C0 04              4928 	push	ar4
   1968 12s00r00           4929 	lcall	_packetbuf_attr
   196B E5 82              4930 	mov	a,dpl
   196D 85 83 F0           4931 	mov	b,dph
   1970 D0 04              4932 	pop	ar4
   1972 D0 03              4933 	pop	ar3
   1974 D0 02              4934 	pop	ar2
   1976 45 F0              4935 	orl	a,b
   1978 60 03              4936 	jz	00109$
   197A 02s1Ar3E           4937 	ljmp	00105$
   197D                    4938 00109$:
                           4939 ;	../../../core/net/rime/collect.c:1047: tc->transmissions += transmissions;
   197D 74 BA              4940 	mov	a,#0xBA
   197F 2A                 4941 	add	a,r2
   1980 FA                 4942 	mov	r2,a
   1981 E4                 4943 	clr	a
   1982 3B                 4944 	addc	a,r3
   1983 FB                 4945 	mov	r3,a
   1984 8A 82              4946 	mov	dpl,r2
   1986 8B 83              4947 	mov	dph,r3
   1988 8C F0              4948 	mov	b,r4
   198A 12s00r00           4949 	lcall	__gptrget
   198D FD                 4950 	mov	r5,a
   198E E5*00              4951 	mov	a,_bp
   1990 24 FA              4952 	add	a,#0xfa
   1992 F8                 4953 	mov	r0,a
   1993 E6                 4954 	mov	a,@r0
   1994 FE                 4955 	mov	r6,a
   1995 2D                 4956 	add	a,r5
   1996 FD                 4957 	mov	r5,a
   1997 8A 82              4958 	mov	dpl,r2
   1999 8B 83              4959 	mov	dph,r3
   199B 8C F0              4960 	mov	b,r4
   199D 12s00r00           4961 	lcall	__gptrput
                           4962 ;	../../../core/net/rime/collect.c:1057: rexmit_time_scaling = tc->transmissions / (MAX_MAC_REXMITS + 1);
   19A0 8A 82              4963 	mov	dpl,r2
   19A2 8B 83              4964 	mov	dph,r3
   19A4 8C F0              4965 	mov	b,r4
   19A6 12s00r00           4966 	lcall	__gptrget
   19A9 75 F0 03           4967 	mov	b,#0x03
   19AC 84                 4968 	div	ab
   19AD FA                 4969 	mov	r2,a
                           4970 ;	../../../core/net/rime/collect.c:1058: if(rexmit_time_scaling > MAX_REXMIT_TIME_SCALING) {
   19AE 74 02              4971 	mov	a,#0x02
   19B0 B5 02 00           4972 	cjne	a,ar2,00110$
   19B3                    4973 00110$:
   19B3 50 02              4974 	jnc	00102$
                           4975 ;	../../../core/net/rime/collect.c:1059: rexmit_time_scaling = MAX_REXMIT_TIME_SCALING;
   19B5 7A 02              4976 	mov	r2,#0x02
   19B7                    4977 00102$:
                           4978 ;	../../../core/net/rime/collect.c:1061: time = REXMIT_TIME << rexmit_time_scaling;
   19B7 8A F0              4979 	mov	b,r2
   19B9 05 F0              4980 	inc	b
   19BB 7D 80              4981 	mov	r5,#0x80
   19BD 7E 00              4982 	mov	r6,#0x00
   19BF 80 06              4983 	sjmp	00113$
   19C1                    4984 00112$:
   19C1 ED                 4985 	mov	a,r5
   19C2 2D                 4986 	add	a,r5
   19C3 FD                 4987 	mov	r5,a
   19C4 EE                 4988 	mov	a,r6
   19C5 33                 4989 	rlc	a
   19C6 FE                 4990 	mov	r6,a
   19C7                    4991 00113$:
   19C7 D5 F0 F7           4992 	djnz	b,00112$
                           4993 ;	../../../core/net/rime/collect.c:1062: time = time / 2 + (random_rand() % (time / 2));
   19CA 8D 04              4994 	mov	ar4,r5
   19CC EE                 4995 	mov	a,r6
   19CD C3                 4996 	clr	c
   19CE 13                 4997 	rrc	a
   19CF CC                 4998 	xch	a,r4
   19D0 13                 4999 	rrc	a
   19D1 CC                 5000 	xch	a,r4
   19D2 FA                 5001 	mov	r2,a
   19D3 C0 02              5002 	push	ar2
   19D5 C0 04              5003 	push	ar4
   19D7 12s00r00           5004 	lcall	_random_rand
   19DA AB 82              5005 	mov	r3,dpl
   19DC AD 83              5006 	mov	r5,dph
   19DE D0 04              5007 	pop	ar4
   19E0 D0 02              5008 	pop	ar2
   19E2 C0 02              5009 	push	ar2
   19E4 C0 04              5010 	push	ar4
   19E6 C0 04              5011 	push	ar4
   19E8 C0 02              5012 	push	ar2
   19EA 8B 82              5013 	mov	dpl,r3
   19EC 8D 83              5014 	mov	dph,r5
   19EE 12s00r00           5015 	lcall	__moduint
   19F1 AB 82              5016 	mov	r3,dpl
   19F3 AD 83              5017 	mov	r5,dph
   19F5 15 81              5018 	dec	sp
   19F7 15 81              5019 	dec	sp
   19F9 D0 04              5020 	pop	ar4
   19FB D0 02              5021 	pop	ar2
   19FD EB                 5022 	mov	a,r3
   19FE 2C                 5023 	add	a,r4
   19FF FC                 5024 	mov	r4,a
   1A00 ED                 5025 	mov	a,r5
   1A01 3A                 5026 	addc	a,r2
   1A02 FA                 5027 	mov	r2,a
   1A03 8C 05              5028 	mov	ar5,r4
   1A05 8A 06              5029 	mov	ar6,r2
                           5030 ;	../../../core/net/rime/collect.c:1064: ctimer_set(&tc->retransmission_timer, time,
   1A07 A8*00              5031 	mov	r0,_bp
   1A09 08                 5032 	inc	r0
   1A0A 74 5B              5033 	mov	a,#0x5B
   1A0C 26                 5034 	add	a,@r0
   1A0D FA                 5035 	mov	r2,a
   1A0E E4                 5036 	clr	a
   1A0F 08                 5037 	inc	r0
   1A10 36                 5038 	addc	a,@r0
   1A11 FB                 5039 	mov	r3,a
   1A12 08                 5040 	inc	r0
   1A13 86 04              5041 	mov	ar4,@r0
   1A15 A8*00              5042 	mov	r0,_bp
   1A17 08                 5043 	inc	r0
   1A18 E6                 5044 	mov	a,@r0
   1A19 C0 E0              5045 	push	acc
   1A1B 08                 5046 	inc	r0
   1A1C E6                 5047 	mov	a,@r0
   1A1D C0 E0              5048 	push	acc
   1A1F 08                 5049 	inc	r0
   1A20 E6                 5050 	mov	a,@r0
   1A21 C0 E0              5051 	push	acc
   1A23 74r0B              5052 	mov	a,#_retransmit_callback
   1A25 C0 E0              5053 	push	acc
   1A27 74s1C              5054 	mov	a,#(_retransmit_callback >> 8)
   1A29 C0 E0              5055 	push	acc
   1A2B C0 05              5056 	push	ar5
   1A2D C0 06              5057 	push	ar6
   1A2F 8A 82              5058 	mov	dpl,r2
   1A31 8B 83              5059 	mov	dph,r3
   1A33 8C F0              5060 	mov	b,r4
   1A35 12s00r00           5061 	lcall	_ctimer_set
   1A38 E5 81              5062 	mov	a,sp
   1A3A 24 F9              5063 	add	a,#0xf9
   1A3C F5 81              5064 	mov	sp,a
   1A3E                    5065 00105$:
   1A3E 85*00 81           5066 	mov	sp,_bp
   1A41 D0*00              5067 	pop	_bp
   1A43 22                 5068 	ret
                           5069 ;------------------------------------------------------------
                           5070 ;Allocation info for local variables in function 'timedout'
                           5071 ;------------------------------------------------------------
                           5072 ;tc                        Allocated to stack - offset 1
                           5073 ;n                         Allocated to registers r2 r3 r4 
                           5074 ;sloc0                     Allocated to stack - offset 4
                           5075 ;sloc1                     Allocated to stack - offset 6
                           5076 ;sloc2                     Allocated to stack - offset 8
                           5077 ;sloc3                     Allocated to stack - offset 10
                           5078 ;sloc4                     Allocated to stack - offset 12
                           5079 ;sloc5                     Allocated to stack - offset 14
                           5080 ;------------------------------------------------------------
                           5081 ;	../../../core/net/rime/collect.c:1070: timedout(struct collect_conn *tc)
                           5082 ;	-----------------------------------------
                           5083 ;	 function timedout
                           5084 ;	-----------------------------------------
   1A44                    5085 _timedout:
   1A44 C0*00              5086 	push	_bp
   1A46 85 81*00           5087 	mov	_bp,sp
   1A49 C0 82              5088 	push	dpl
   1A4B C0 83              5089 	push	dph
   1A4D C0 F0              5090 	push	b
   1A4F E5 81              5091 	mov	a,sp
   1A51 24 10              5092 	add	a,#0x10
   1A53 F5 81              5093 	mov	sp,a
                           5094 ;	../../../core/net/rime/collect.c:1076: tc->max_rexmits);
   1A55 A8*00              5095 	mov	r0,_bp
   1A57 08                 5096 	inc	r0
   1A58 74 BB              5097 	mov	a,#0xBB
   1A5A 26                 5098 	add	a,@r0
   1A5B FD                 5099 	mov	r5,a
   1A5C E4                 5100 	clr	a
   1A5D 08                 5101 	inc	r0
   1A5E 36                 5102 	addc	a,@r0
   1A5F FE                 5103 	mov	r6,a
   1A60 08                 5104 	inc	r0
   1A61 86 07              5105 	mov	ar7,@r0
   1A63 8D 82              5106 	mov	dpl,r5
   1A65 8E 83              5107 	mov	dph,r6
   1A67 8F F0              5108 	mov	b,r7
   1A69 12s00r00           5109 	lcall	__gptrget
   1A6C FA                 5110 	mov	r2,a
   1A6D E5*00              5111 	mov	a,_bp
   1A6F 24 04              5112 	add	a,#0x04
   1A71 F8                 5113 	mov	r0,a
   1A72 A6 02              5114 	mov	@r0,ar2
   1A74 08                 5115 	inc	r0
   1A75 76 00              5116 	mov	@r0,#0x00
                           5117 ;	../../../core/net/rime/collect.c:1075: tc->current_parent.u8[0], tc->current_parent.u8[1],
   1A77 A8*00              5118 	mov	r0,_bp
   1A79 08                 5119 	inc	r0
   1A7A 74 B4              5120 	mov	a,#0xB4
   1A7C 26                 5121 	add	a,@r0
   1A7D FC                 5122 	mov	r4,a
   1A7E E4                 5123 	clr	a
   1A7F 08                 5124 	inc	r0
   1A80 36                 5125 	addc	a,@r0
   1A81 FA                 5126 	mov	r2,a
   1A82 08                 5127 	inc	r0
   1A83 86 03              5128 	mov	ar3,@r0
   1A85 0C                 5129 	inc	r4
   1A86 BC 00 01           5130 	cjne	r4,#0x00,00106$
   1A89 0A                 5131 	inc	r2
   1A8A                    5132 00106$:
   1A8A 8C 82              5133 	mov	dpl,r4
   1A8C 8A 83              5134 	mov	dph,r2
   1A8E 8B F0              5135 	mov	b,r3
   1A90 12s00r00           5136 	lcall	__gptrget
   1A93 FC                 5137 	mov	r4,a
   1A94 E5*00              5138 	mov	a,_bp
   1A96 24 06              5139 	add	a,#0x06
   1A98 F8                 5140 	mov	r0,a
   1A99 A6 04              5141 	mov	@r0,ar4
   1A9B 08                 5142 	inc	r0
   1A9C 76 00              5143 	mov	@r0,#0x00
   1A9E A8*00              5144 	mov	r0,_bp
   1AA0 08                 5145 	inc	r0
   1AA1 74 B4              5146 	mov	a,#0xB4
   1AA3 26                 5147 	add	a,@r0
   1AA4 FB                 5148 	mov	r3,a
   1AA5 E4                 5149 	clr	a
   1AA6 08                 5150 	inc	r0
   1AA7 36                 5151 	addc	a,@r0
   1AA8 FA                 5152 	mov	r2,a
   1AA9 08                 5153 	inc	r0
   1AAA 86 04              5154 	mov	ar4,@r0
   1AAC 8B 82              5155 	mov	dpl,r3
   1AAE 8A 83              5156 	mov	dph,r2
   1AB0 8C F0              5157 	mov	b,r4
   1AB2 12s00r00           5158 	lcall	__gptrget
   1AB5 FB                 5159 	mov	r3,a
   1AB6 E5*00              5160 	mov	a,_bp
   1AB8 24 08              5161 	add	a,#0x08
   1ABA F8                 5162 	mov	r0,a
   1ABB A6 03              5163 	mov	@r0,ar3
   1ABD 08                 5164 	inc	r0
   1ABE 76 00              5165 	mov	@r0,#0x00
                           5166 ;	../../../core/net/rime/collect.c:1074: rimeaddr_node_addr.u8[0], rimeaddr_node_addr.u8[1], tc->transmissions,
   1AC0 A8*00              5167 	mov	r0,_bp
   1AC2 08                 5168 	inc	r0
   1AC3 74 BA              5169 	mov	a,#0xBA
   1AC5 26                 5170 	add	a,@r0
   1AC6 FC                 5171 	mov	r4,a
   1AC7 E4                 5172 	clr	a
   1AC8 08                 5173 	inc	r0
   1AC9 36                 5174 	addc	a,@r0
   1ACA FA                 5175 	mov	r2,a
   1ACB 08                 5176 	inc	r0
   1ACC 86 03              5177 	mov	ar3,@r0
   1ACE 8C 82              5178 	mov	dpl,r4
   1AD0 8A 83              5179 	mov	dph,r2
   1AD2 8B F0              5180 	mov	b,r3
   1AD4 12s00r00           5181 	lcall	__gptrget
   1AD7 FC                 5182 	mov	r4,a
   1AD8 E5*00              5183 	mov	a,_bp
   1ADA 24 0A              5184 	add	a,#0x0a
   1ADC F8                 5185 	mov	r0,a
   1ADD A6 04              5186 	mov	@r0,ar4
   1ADF 08                 5187 	inc	r0
   1AE0 76 00              5188 	mov	@r0,#0x00
   1AE2 90s00r01           5189 	mov	dptr,#(_rimeaddr_node_addr + 0x0001)
   1AE5 E0                 5190 	movx	a,@dptr
   1AE6 FB                 5191 	mov	r3,a
   1AE7 E5*00              5192 	mov	a,_bp
   1AE9 24 0C              5193 	add	a,#0x0c
   1AEB F8                 5194 	mov	r0,a
   1AEC A6 03              5195 	mov	@r0,ar3
   1AEE 08                 5196 	inc	r0
   1AEF 76 00              5197 	mov	@r0,#0x00
   1AF1 90s00r00           5198 	mov	dptr,#_rimeaddr_node_addr
   1AF4 E0                 5199 	movx	a,@dptr
   1AF5 FC                 5200 	mov	r4,a
   1AF6 7A 00              5201 	mov	r2,#0x00
                           5202 ;	../../../core/net/rime/collect.c:1073: printf("%d.%d: timedout after %d retransmissions to %d.%d (max retransmissions %d): packet dropped\n",
   1AF8 C0 05              5203 	push	ar5
   1AFA C0 06              5204 	push	ar6
   1AFC C0 07              5205 	push	ar7
   1AFE E5*00              5206 	mov	a,_bp
   1B00 24 04              5207 	add	a,#0x04
   1B02 F8                 5208 	mov	r0,a
   1B03 E6                 5209 	mov	a,@r0
   1B04 C0 E0              5210 	push	acc
   1B06 08                 5211 	inc	r0
   1B07 E6                 5212 	mov	a,@r0
   1B08 C0 E0              5213 	push	acc
   1B0A E5*00              5214 	mov	a,_bp
   1B0C 24 06              5215 	add	a,#0x06
   1B0E F8                 5216 	mov	r0,a
   1B0F E6                 5217 	mov	a,@r0
   1B10 C0 E0              5218 	push	acc
   1B12 08                 5219 	inc	r0
   1B13 E6                 5220 	mov	a,@r0
   1B14 C0 E0              5221 	push	acc
   1B16 E5*00              5222 	mov	a,_bp
   1B18 24 08              5223 	add	a,#0x08
   1B1A F8                 5224 	mov	r0,a
   1B1B E6                 5225 	mov	a,@r0
   1B1C C0 E0              5226 	push	acc
   1B1E 08                 5227 	inc	r0
   1B1F E6                 5228 	mov	a,@r0
   1B20 C0 E0              5229 	push	acc
   1B22 E5*00              5230 	mov	a,_bp
   1B24 24 0A              5231 	add	a,#0x0a
   1B26 F8                 5232 	mov	r0,a
   1B27 E6                 5233 	mov	a,@r0
   1B28 C0 E0              5234 	push	acc
   1B2A 08                 5235 	inc	r0
   1B2B E6                 5236 	mov	a,@r0
   1B2C C0 E0              5237 	push	acc
   1B2E E5*00              5238 	mov	a,_bp
   1B30 24 0C              5239 	add	a,#0x0c
   1B32 F8                 5240 	mov	r0,a
   1B33 E6                 5241 	mov	a,@r0
   1B34 C0 E0              5242 	push	acc
   1B36 08                 5243 	inc	r0
   1B37 E6                 5244 	mov	a,@r0
   1B38 C0 E0              5245 	push	acc
   1B3A C0 04              5246 	push	ar4
   1B3C C0 02              5247 	push	ar2
   1B3E 74r85              5248 	mov	a,#__str_9
   1B40 C0 E0              5249 	push	acc
   1B42 74s00              5250 	mov	a,#(__str_9 >> 8)
   1B44 C0 E0              5251 	push	acc
   1B46 74 80              5252 	mov	a,#0x80
   1B48 C0 E0              5253 	push	acc
   1B4A 12s00r00           5254 	lcall	_printf
   1B4D E5 81              5255 	mov	a,sp
   1B4F 24 F1              5256 	add	a,#0xf1
   1B51 F5 81              5257 	mov	sp,a
                           5258 ;	../../../core/net/rime/collect.c:1078: tc->sending = 0;
   1B53 A8*00              5259 	mov	r0,_bp
   1B55 08                 5260 	inc	r0
   1B56 74 B9              5261 	mov	a,#0xB9
   1B58 26                 5262 	add	a,@r0
   1B59 FA                 5263 	mov	r2,a
   1B5A E4                 5264 	clr	a
   1B5B 08                 5265 	inc	r0
   1B5C 36                 5266 	addc	a,@r0
   1B5D FB                 5267 	mov	r3,a
   1B5E 08                 5268 	inc	r0
   1B5F 86 04              5269 	mov	ar4,@r0
   1B61 8A 82              5270 	mov	dpl,r2
   1B63 8B 83              5271 	mov	dph,r3
   1B65 8C F0              5272 	mov	b,r4
   1B67 E4                 5273 	clr	a
   1B68 12s00r00           5274 	lcall	__gptrput
                           5275 ;	../../../core/net/rime/collect.c:1080: &tc->current_parent);
   1B6B A8*00              5276 	mov	r0,_bp
   1B6D 08                 5277 	inc	r0
   1B6E E5*00              5278 	mov	a,_bp
   1B70 24 0E              5279 	add	a,#0x0e
   1B72 F9                 5280 	mov	r1,a
   1B73 74 B4              5281 	mov	a,#0xB4
   1B75 26                 5282 	add	a,@r0
   1B76 F7                 5283 	mov	@r1,a
   1B77 E4                 5284 	clr	a
   1B78 08                 5285 	inc	r0
   1B79 36                 5286 	addc	a,@r0
   1B7A 09                 5287 	inc	r1
   1B7B F7                 5288 	mov	@r1,a
   1B7C 08                 5289 	inc	r0
   1B7D 09                 5290 	inc	r1
   1B7E E6                 5291 	mov	a,@r0
   1B7F F7                 5292 	mov	@r1,a
                           5293 ;	../../../core/net/rime/collect.c:1079: n = collect_neighbor_list_find(&tc->neighbor_list,
   1B80 A8*00              5294 	mov	r0,_bp
   1B82 08                 5295 	inc	r0
   1B83 74 7C              5296 	mov	a,#0x7C
   1B85 26                 5297 	add	a,@r0
   1B86 FA                 5298 	mov	r2,a
   1B87 E4                 5299 	clr	a
   1B88 08                 5300 	inc	r0
   1B89 36                 5301 	addc	a,@r0
   1B8A FB                 5302 	mov	r3,a
   1B8B 08                 5303 	inc	r0
   1B8C 86 04              5304 	mov	ar4,@r0
   1B8E E5*00              5305 	mov	a,_bp
   1B90 24 0E              5306 	add	a,#0x0e
   1B92 F8                 5307 	mov	r0,a
   1B93 E6                 5308 	mov	a,@r0
   1B94 C0 E0              5309 	push	acc
   1B96 08                 5310 	inc	r0
   1B97 E6                 5311 	mov	a,@r0
   1B98 C0 E0              5312 	push	acc
   1B9A 08                 5313 	inc	r0
   1B9B E6                 5314 	mov	a,@r0
   1B9C C0 E0              5315 	push	acc
   1B9E 8A 82              5316 	mov	dpl,r2
   1BA0 8B 83              5317 	mov	dph,r3
   1BA2 8C F0              5318 	mov	b,r4
   1BA4 12s00r00           5319 	lcall	_collect_neighbor_list_find
   1BA7 AA 82              5320 	mov	r2,dpl
   1BA9 AB 83              5321 	mov	r3,dph
   1BAB AC F0              5322 	mov	r4,b
   1BAD 15 81              5323 	dec	sp
   1BAF 15 81              5324 	dec	sp
   1BB1 15 81              5325 	dec	sp
   1BB3 D0 07              5326 	pop	ar7
   1BB5 D0 06              5327 	pop	ar6
   1BB7 D0 05              5328 	pop	ar5
                           5329 ;	../../../core/net/rime/collect.c:1081: if(n != NULL) {
   1BB9 EA                 5330 	mov	a,r2
   1BBA 4B                 5331 	orl	a,r3
   1BBB 4C                 5332 	orl	a,r4
   1BBC 60 1D              5333 	jz	00102$
                           5334 ;	../../../core/net/rime/collect.c:1082: collect_neighbor_tx_fail(n, tc->max_rexmits);
   1BBE 8D 82              5335 	mov	dpl,r5
   1BC0 8E 83              5336 	mov	dph,r6
   1BC2 8F F0              5337 	mov	b,r7
   1BC4 12s00r00           5338 	lcall	__gptrget
   1BC7 FD                 5339 	mov	r5,a
   1BC8 7E 00              5340 	mov	r6,#0x00
   1BCA C0 05              5341 	push	ar5
   1BCC C0 06              5342 	push	ar6
   1BCE 8A 82              5343 	mov	dpl,r2
   1BD0 8B 83              5344 	mov	dph,r3
   1BD2 8C F0              5345 	mov	b,r4
   1BD4 12s00r00           5346 	lcall	_collect_neighbor_tx_fail
   1BD7 15 81              5347 	dec	sp
   1BD9 15 81              5348 	dec	sp
   1BDB                    5349 00102$:
                           5350 ;	../../../core/net/rime/collect.c:1084: update_rtmetric(tc);
   1BDB A8*00              5351 	mov	r0,_bp
   1BDD 08                 5352 	inc	r0
   1BDE 86 82              5353 	mov	dpl,@r0
   1BE0 08                 5354 	inc	r0
   1BE1 86 83              5355 	mov	dph,@r0
   1BE3 08                 5356 	inc	r0
   1BE4 86 F0              5357 	mov	b,@r0
   1BE6 12s02rAE           5358 	lcall	_update_rtmetric
                           5359 ;	../../../core/net/rime/collect.c:1085: send_next_packet(tc);
   1BE9 A8*00              5360 	mov	r0,_bp
   1BEB 08                 5361 	inc	r0
   1BEC 86 82              5362 	mov	dpl,@r0
   1BEE 08                 5363 	inc	r0
   1BEF 86 83              5364 	mov	dph,@r0
   1BF1 08                 5365 	inc	r0
   1BF2 86 F0              5366 	mov	b,@r0
   1BF4 12s0Cr90           5367 	lcall	_send_next_packet
                           5368 ;	../../../core/net/rime/collect.c:1086: set_keepalive_timer(tc);
   1BF7 A8*00              5369 	mov	r0,_bp
   1BF9 08                 5370 	inc	r0
   1BFA 86 82              5371 	mov	dpl,@r0
   1BFC 08                 5372 	inc	r0
   1BFD 86 83              5373 	mov	dph,@r0
   1BFF 08                 5374 	inc	r0
   1C00 86 F0              5375 	mov	b,@r0
   1C02 12s20r7B           5376 	lcall	_set_keepalive_timer
   1C05 85*00 81           5377 	mov	sp,_bp
   1C08 D0*00              5378 	pop	_bp
   1C0A 22                 5379 	ret
                           5380 ;------------------------------------------------------------
                           5381 ;Allocation info for local variables in function 'retransmit_callback'
                           5382 ;------------------------------------------------------------
                           5383 ;ptr                       Allocated to registers r2 r3 r4 
                           5384 ;c                         Allocated to registers 
                           5385 ;------------------------------------------------------------
                           5386 ;	../../../core/net/rime/collect.c:1097: retransmit_callback(void *ptr)
                           5387 ;	-----------------------------------------
                           5388 ;	 function retransmit_callback
                           5389 ;	-----------------------------------------
   1C0B                    5390 _retransmit_callback:
   1C0B AA 82              5391 	mov	r2,dpl
   1C0D AB 83              5392 	mov	r3,dph
   1C0F AC F0              5393 	mov	r4,b
                           5394 ;	../../../core/net/rime/collect.c:1102: if(c->transmissions >= c->max_rexmits) {
   1C11 74 BA              5395 	mov	a,#0xBA
   1C13 2A                 5396 	add	a,r2
   1C14 FD                 5397 	mov	r5,a
   1C15 E4                 5398 	clr	a
   1C16 3B                 5399 	addc	a,r3
   1C17 FE                 5400 	mov	r6,a
   1C18 8C 07              5401 	mov	ar7,r4
   1C1A 8D 82              5402 	mov	dpl,r5
   1C1C 8E 83              5403 	mov	dph,r6
   1C1E 8F F0              5404 	mov	b,r7
   1C20 12s00r00           5405 	lcall	__gptrget
   1C23 FD                 5406 	mov	r5,a
   1C24 74 BB              5407 	mov	a,#0xBB
   1C26 2A                 5408 	add	a,r2
   1C27 FE                 5409 	mov	r6,a
   1C28 E4                 5410 	clr	a
   1C29 3B                 5411 	addc	a,r3
   1C2A FF                 5412 	mov	r7,a
   1C2B 8C 00              5413 	mov	ar0,r4
   1C2D 8E 82              5414 	mov	dpl,r6
   1C2F 8F 83              5415 	mov	dph,r7
   1C31 88 F0              5416 	mov	b,r0
   1C33 12s00r00           5417 	lcall	__gptrget
   1C36 FE                 5418 	mov	r6,a
   1C37 ED                 5419 	mov	a,r5
   1C38 B5 06 00           5420 	cjne	a,ar6,00107$
   1C3B                    5421 00107$:
   1C3B 40 33              5422 	jc	00102$
                           5423 ;	../../../core/net/rime/collect.c:1103: timedout(c);
   1C3D 8A 82              5424 	mov	dpl,r2
   1C3F 8B 83              5425 	mov	dph,r3
   1C41 8C F0              5426 	mov	b,r4
   1C43 12s1Ar44           5427 	lcall	_timedout
                           5428 ;	../../../core/net/rime/collect.c:1104: stats.timedout++;
   1C46 90s01r1D           5429 	mov	dptr,#(_stats + 0x0034)
   1C49 E0                 5430 	movx	a,@dptr
   1C4A FD                 5431 	mov	r5,a
   1C4B A3                 5432 	inc	dptr
   1C4C E0                 5433 	movx	a,@dptr
   1C4D FE                 5434 	mov	r6,a
   1C4E A3                 5435 	inc	dptr
   1C4F E0                 5436 	movx	a,@dptr
   1C50 FF                 5437 	mov	r7,a
   1C51 A3                 5438 	inc	dptr
   1C52 E0                 5439 	movx	a,@dptr
   1C53 F8                 5440 	mov	r0,a
   1C54 0D                 5441 	inc	r5
   1C55 BD 00 09           5442 	cjne	r5,#0x00,00109$
   1C58 0E                 5443 	inc	r6
   1C59 BE 00 05           5444 	cjne	r6,#0x00,00109$
   1C5C 0F                 5445 	inc	r7
   1C5D BF 00 01           5446 	cjne	r7,#0x00,00109$
   1C60 08                 5447 	inc	r0
   1C61                    5448 00109$:
   1C61 90s01r1D           5449 	mov	dptr,#(_stats + 0x0034)
   1C64 ED                 5450 	mov	a,r5
   1C65 F0                 5451 	movx	@dptr,a
   1C66 A3                 5452 	inc	dptr
   1C67 EE                 5453 	mov	a,r6
   1C68 F0                 5454 	movx	@dptr,a
   1C69 A3                 5455 	inc	dptr
   1C6A EF                 5456 	mov	a,r7
   1C6B F0                 5457 	movx	@dptr,a
   1C6C A3                 5458 	inc	dptr
   1C6D E8                 5459 	mov	a,r0
   1C6E F0                 5460 	movx	@dptr,a
   1C6F 22                 5461 	ret
   1C70                    5462 00102$:
                           5463 ;	../../../core/net/rime/collect.c:1106: c->sending = 0;
   1C70 74 B9              5464 	mov	a,#0xB9
   1C72 2A                 5465 	add	a,r2
   1C73 FD                 5466 	mov	r5,a
   1C74 E4                 5467 	clr	a
   1C75 3B                 5468 	addc	a,r3
   1C76 FE                 5469 	mov	r6,a
   1C77 8C 07              5470 	mov	ar7,r4
   1C79 8D 82              5471 	mov	dpl,r5
   1C7B 8E 83              5472 	mov	dph,r6
   1C7D 8F F0              5473 	mov	b,r7
   1C7F E4                 5474 	clr	a
   1C80 12s00r00           5475 	lcall	__gptrput
                           5476 ;	../../../core/net/rime/collect.c:1107: retransmit_current_packet(c);
   1C83 8A 82              5477 	mov	dpl,r2
   1C85 8B 83              5478 	mov	dph,r3
   1C87 8C F0              5479 	mov	b,r4
   1C89 02s09rE4           5480 	ljmp	_retransmit_current_packet
                           5481 ;------------------------------------------------------------
                           5482 ;Allocation info for local variables in function 'adv_received'
                           5483 ;------------------------------------------------------------
                           5484 ;from                      Allocated to stack - offset -5
                           5485 ;rtmetric                  Allocated to stack - offset -7
                           5486 ;c                         Allocated to registers r2 r3 r4 
                           5487 ;tc                        Allocated to stack - offset 1
                           5488 ;n                         Allocated to registers r5 r6 r7 
                           5489 ;------------------------------------------------------------
                           5490 ;	../../../core/net/rime/collect.c:1113: adv_received(struct neighbor_discovery_conn *c, const rimeaddr_t *from,
                           5491 ;	-----------------------------------------
                           5492 ;	 function adv_received
                           5493 ;	-----------------------------------------
   1C8C                    5494 _adv_received:
   1C8C C0*00              5495 	push	_bp
   1C8E 85 81*00           5496 	mov	_bp,sp
   1C91 05 81              5497 	inc	sp
   1C93 05 81              5498 	inc	sp
   1C95 05 81              5499 	inc	sp
   1C97 AA 82              5500 	mov	r2,dpl
   1C99 AB 83              5501 	mov	r3,dph
   1C9B AC F0              5502 	mov	r4,b
                           5503 ;	../../../core/net/rime/collect.c:1116: struct collect_conn *tc = (struct collect_conn *)
   1C9D A8*00              5504 	mov	r0,_bp
   1C9F 08                 5505 	inc	r0
   1CA0 EA                 5506 	mov	a,r2
   1CA1 24 EE              5507 	add	a,#0xee
   1CA3 F6                 5508 	mov	@r0,a
   1CA4 EB                 5509 	mov	a,r3
   1CA5 34 FF              5510 	addc	a,#0xff
   1CA7 08                 5511 	inc	r0
   1CA8 F6                 5512 	mov	@r0,a
   1CA9 08                 5513 	inc	r0
   1CAA A6 04              5514 	mov	@r0,ar4
                           5515 ;	../../../core/net/rime/collect.c:1120: n = collect_neighbor_list_find(&tc->neighbor_list, from);
   1CAC A8*00              5516 	mov	r0,_bp
   1CAE 08                 5517 	inc	r0
   1CAF 74 7C              5518 	mov	a,#0x7C
   1CB1 26                 5519 	add	a,@r0
   1CB2 FD                 5520 	mov	r5,a
   1CB3 E4                 5521 	clr	a
   1CB4 08                 5522 	inc	r0
   1CB5 36                 5523 	addc	a,@r0
   1CB6 FE                 5524 	mov	r6,a
   1CB7 08                 5525 	inc	r0
   1CB8 86 07              5526 	mov	ar7,@r0
   1CBA E5*00              5527 	mov	a,_bp
   1CBC 24 FB              5528 	add	a,#0xfb
   1CBE F8                 5529 	mov	r0,a
   1CBF E6                 5530 	mov	a,@r0
   1CC0 C0 E0              5531 	push	acc
   1CC2 08                 5532 	inc	r0
   1CC3 E6                 5533 	mov	a,@r0
   1CC4 C0 E0              5534 	push	acc
   1CC6 08                 5535 	inc	r0
   1CC7 E6                 5536 	mov	a,@r0
   1CC8 C0 E0              5537 	push	acc
   1CCA 8D 82              5538 	mov	dpl,r5
   1CCC 8E 83              5539 	mov	dph,r6
   1CCE 8F F0              5540 	mov	b,r7
   1CD0 12s00r00           5541 	lcall	_collect_neighbor_list_find
   1CD3 AD 82              5542 	mov	r5,dpl
   1CD5 AE 83              5543 	mov	r6,dph
   1CD7 AF F0              5544 	mov	r7,b
   1CD9 15 81              5545 	dec	sp
   1CDB 15 81              5546 	dec	sp
   1CDD 15 81              5547 	dec	sp
                           5548 ;	../../../core/net/rime/collect.c:1122: if(n == NULL) {
   1CDF ED                 5549 	mov	a,r5
   1CE0 4E                 5550 	orl	a,r6
   1CE1 4F                 5551 	orl	a,r7
   1CE2 70 55              5552 	jnz	00107$
                           5553 ;	../../../core/net/rime/collect.c:1123: collect_neighbor_list_add(&tc->neighbor_list, from, rtmetric);
   1CE4 A8*00              5554 	mov	r0,_bp
   1CE6 08                 5555 	inc	r0
   1CE7 74 7C              5556 	mov	a,#0x7C
   1CE9 26                 5557 	add	a,@r0
   1CEA FA                 5558 	mov	r2,a
   1CEB E4                 5559 	clr	a
   1CEC 08                 5560 	inc	r0
   1CED 36                 5561 	addc	a,@r0
   1CEE FB                 5562 	mov	r3,a
   1CEF 08                 5563 	inc	r0
   1CF0 86 04              5564 	mov	ar4,@r0
   1CF2 E5*00              5565 	mov	a,_bp
   1CF4 24 F9              5566 	add	a,#0xf9
   1CF6 F8                 5567 	mov	r0,a
   1CF7 E6                 5568 	mov	a,@r0
   1CF8 C0 E0              5569 	push	acc
   1CFA 08                 5570 	inc	r0
   1CFB E6                 5571 	mov	a,@r0
   1CFC C0 E0              5572 	push	acc
   1CFE E5*00              5573 	mov	a,_bp
   1D00 24 FB              5574 	add	a,#0xfb
   1D02 F8                 5575 	mov	r0,a
   1D03 E6                 5576 	mov	a,@r0
   1D04 C0 E0              5577 	push	acc
   1D06 08                 5578 	inc	r0
   1D07 E6                 5579 	mov	a,@r0
   1D08 C0 E0              5580 	push	acc
   1D0A 08                 5581 	inc	r0
   1D0B E6                 5582 	mov	a,@r0
   1D0C C0 E0              5583 	push	acc
   1D0E 8A 82              5584 	mov	dpl,r2
   1D10 8B 83              5585 	mov	dph,r3
   1D12 8C F0              5586 	mov	b,r4
   1D14 12s00r00           5587 	lcall	_collect_neighbor_list_add
   1D17 E5 81              5588 	mov	a,sp
   1D19 24 FB              5589 	add	a,#0xfb
   1D1B F5 81              5590 	mov	sp,a
                           5591 ;	../../../core/net/rime/collect.c:1124: if(rtmetric == RTMETRIC_MAX) {
   1D1D E5*00              5592 	mov	a,_bp
   1D1F 24 F9              5593 	add	a,#0xf9
   1D21 F8                 5594 	mov	r0,a
   1D22 B6 FF 74           5595 	cjne	@r0,#0xFF,00108$
   1D25 08                 5596 	inc	r0
   1D26 B6 0F 70           5597 	cjne	@r0,#0x0F,00108$
                           5598 ;	../../../core/net/rime/collect.c:1125: bump_advertisement(tc);
   1D29 A8*00              5599 	mov	r0,_bp
   1D2B 08                 5600 	inc	r0
   1D2C 86 82              5601 	mov	dpl,@r0
   1D2E 08                 5602 	inc	r0
   1D2F 86 83              5603 	mov	dph,@r0
   1D31 08                 5604 	inc	r0
   1D32 86 F0              5605 	mov	b,@r0
   1D34 12s02r77           5606 	lcall	_bump_advertisement
   1D37 80 60              5607 	sjmp	00108$
   1D39                    5608 00107$:
                           5609 ;	../../../core/net/rime/collect.c:1136: if(rtmetric == RTMETRIC_MAX &&
   1D39 E5*00              5610 	mov	a,_bp
   1D3B 24 F9              5611 	add	a,#0xf9
   1D3D F8                 5612 	mov	r0,a
   1D3E B6 FF 3F           5613 	cjne	@r0,#0xFF,00104$
   1D41 08                 5614 	inc	r0
   1D42 B6 0F 3B           5615 	cjne	@r0,#0x0F,00104$
                           5616 ;	../../../core/net/rime/collect.c:1137: collect_neighbor_rtmetric(n) != RTMETRIC_MAX) {
   1D45 8D 82              5617 	mov	dpl,r5
   1D47 8E 83              5618 	mov	dph,r6
   1D49 8F F0              5619 	mov	b,r7
   1D4B C0 05              5620 	push	ar5
   1D4D C0 06              5621 	push	ar6
   1D4F C0 07              5622 	push	ar7
   1D51 12s00r00           5623 	lcall	_collect_neighbor_rtmetric
   1D54 AA 82              5624 	mov	r2,dpl
   1D56 AB 83              5625 	mov	r3,dph
   1D58 D0 07              5626 	pop	ar7
   1D5A D0 06              5627 	pop	ar6
   1D5C D0 05              5628 	pop	ar5
   1D5E BA FF 05           5629 	cjne	r2,#0xFF,00120$
   1D61 BB 0F 02           5630 	cjne	r3,#0x0F,00120$
   1D64 80 1A              5631 	sjmp	00104$
   1D66                    5632 00120$:
                           5633 ;	../../../core/net/rime/collect.c:1138: bump_advertisement(tc);
   1D66 A8*00              5634 	mov	r0,_bp
   1D68 08                 5635 	inc	r0
   1D69 86 82              5636 	mov	dpl,@r0
   1D6B 08                 5637 	inc	r0
   1D6C 86 83              5638 	mov	dph,@r0
   1D6E 08                 5639 	inc	r0
   1D6F 86 F0              5640 	mov	b,@r0
   1D71 C0 05              5641 	push	ar5
   1D73 C0 06              5642 	push	ar6
   1D75 C0 07              5643 	push	ar7
   1D77 12s02r77           5644 	lcall	_bump_advertisement
   1D7A D0 07              5645 	pop	ar7
   1D7C D0 06              5646 	pop	ar6
   1D7E D0 05              5647 	pop	ar5
   1D80                    5648 00104$:
                           5649 ;	../../../core/net/rime/collect.c:1140: collect_neighbor_update_rtmetric(n, rtmetric);
   1D80 E5*00              5650 	mov	a,_bp
   1D82 24 F9              5651 	add	a,#0xf9
   1D84 F8                 5652 	mov	r0,a
   1D85 E6                 5653 	mov	a,@r0
   1D86 C0 E0              5654 	push	acc
   1D88 08                 5655 	inc	r0
   1D89 E6                 5656 	mov	a,@r0
   1D8A C0 E0              5657 	push	acc
   1D8C 8D 82              5658 	mov	dpl,r5
   1D8E 8E 83              5659 	mov	dph,r6
   1D90 8F F0              5660 	mov	b,r7
   1D92 12s00r00           5661 	lcall	_collect_neighbor_update_rtmetric
   1D95 15 81              5662 	dec	sp
   1D97 15 81              5663 	dec	sp
   1D99                    5664 00108$:
                           5665 ;	../../../core/net/rime/collect.c:1146: update_rtmetric(tc);
   1D99 A8*00              5666 	mov	r0,_bp
   1D9B 08                 5667 	inc	r0
   1D9C 86 82              5668 	mov	dpl,@r0
   1D9E 08                 5669 	inc	r0
   1D9F 86 83              5670 	mov	dph,@r0
   1DA1 08                 5671 	inc	r0
   1DA2 86 F0              5672 	mov	b,@r0
   1DA4 12s02rAE           5673 	lcall	_update_rtmetric
   1DA7 85*00 81           5674 	mov	sp,_bp
   1DAA D0*00              5675 	pop	_bp
   1DAC 22                 5676 	ret
                           5677 ;------------------------------------------------------------
                           5678 ;Allocation info for local variables in function 'collect_open'
                           5679 ;------------------------------------------------------------
                           5680 ;channels                  Allocated to stack - offset -4
                           5681 ;is_router                 Allocated to stack - offset -5
                           5682 ;cb                        Allocated to stack - offset -8
                           5683 ;tc                        Allocated to stack - offset 1
                           5684 ;sloc0                     Allocated to stack - offset 4
                           5685 ;------------------------------------------------------------
                           5686 ;	../../../core/net/rime/collect.c:1209: collect_open(struct collect_conn *tc, uint16_t channels,
                           5687 ;	-----------------------------------------
                           5688 ;	 function collect_open
                           5689 ;	-----------------------------------------
   1DAD                    5690 _collect_open:
   1DAD C0*00              5691 	push	_bp
   1DAF 85 81*00           5692 	mov	_bp,sp
   1DB2 C0 82              5693 	push	dpl
   1DB4 C0 83              5694 	push	dph
   1DB6 C0 F0              5695 	push	b
   1DB8 05 81              5696 	inc	sp
   1DBA 05 81              5697 	inc	sp
   1DBC 05 81              5698 	inc	sp
                           5699 ;	../../../core/net/rime/collect.c:1213: unicast_open(&tc->unicast_conn, channels + 1, &unicast_callbacks);
   1DBE E5*00              5700 	mov	a,_bp
   1DC0 24 FC              5701 	add	a,#0xfc
   1DC2 F8                 5702 	mov	r0,a
   1DC3 74 01              5703 	mov	a,#0x01
   1DC5 26                 5704 	add	a,@r0
   1DC6 FD                 5705 	mov	r5,a
   1DC7 E4                 5706 	clr	a
   1DC8 08                 5707 	inc	r0
   1DC9 36                 5708 	addc	a,@r0
   1DCA FE                 5709 	mov	r6,a
   1DCB C0 05              5710 	push	ar5
   1DCD C0 06              5711 	push	ar6
   1DCF 74rE1              5712 	mov	a,#_unicast_callbacks
   1DD1 C0 E0              5713 	push	acc
   1DD3 74s00              5714 	mov	a,#(_unicast_callbacks >> 8)
   1DD5 C0 E0              5715 	push	acc
   1DD7 74 80              5716 	mov	a,#0x80
   1DD9 C0 E0              5717 	push	acc
   1DDB C0 05              5718 	push	ar5
   1DDD C0 06              5719 	push	ar6
   1DDF A8*00              5720 	mov	r0,_bp
   1DE1 08                 5721 	inc	r0
   1DE2 86 82              5722 	mov	dpl,@r0
   1DE4 08                 5723 	inc	r0
   1DE5 86 83              5724 	mov	dph,@r0
   1DE7 08                 5725 	inc	r0
   1DE8 86 F0              5726 	mov	b,@r0
   1DEA 12s00r00           5727 	lcall	_unicast_open
   1DED E5 81              5728 	mov	a,sp
   1DEF 24 FB              5729 	add	a,#0xfb
   1DF1 F5 81              5730 	mov	sp,a
   1DF3 D0 06              5731 	pop	ar6
   1DF5 D0 05              5732 	pop	ar5
                           5733 ;	../../../core/net/rime/collect.c:1214: channel_set_attributes(channels + 1, attributes);
   1DF7 74r00              5734 	mov	a,#_attributes
   1DF9 C0 E0              5735 	push	acc
   1DFB 74s00              5736 	mov	a,#(_attributes >> 8)
   1DFD C0 E0              5737 	push	acc
   1DFF 74 80              5738 	mov	a,#0x80
   1E01 C0 E0              5739 	push	acc
   1E03 8D 82              5740 	mov	dpl,r5
   1E05 8E 83              5741 	mov	dph,r6
   1E07 12s00r00           5742 	lcall	_channel_set_attributes
   1E0A 15 81              5743 	dec	sp
   1E0C 15 81              5744 	dec	sp
   1E0E 15 81              5745 	dec	sp
                           5746 ;	../../../core/net/rime/collect.c:1215: tc->rtmetric = RTMETRIC_MAX;
   1E10 A8*00              5747 	mov	r0,_bp
   1E12 08                 5748 	inc	r0
   1E13 74 B6              5749 	mov	a,#0xB6
   1E15 26                 5750 	add	a,@r0
   1E16 FD                 5751 	mov	r5,a
   1E17 E4                 5752 	clr	a
   1E18 08                 5753 	inc	r0
   1E19 36                 5754 	addc	a,@r0
   1E1A FE                 5755 	mov	r6,a
   1E1B 08                 5756 	inc	r0
   1E1C 86 07              5757 	mov	ar7,@r0
   1E1E 8D 82              5758 	mov	dpl,r5
   1E20 8E 83              5759 	mov	dph,r6
   1E22 8F F0              5760 	mov	b,r7
   1E24 74 FF              5761 	mov	a,#0xFF
   1E26 12s00r00           5762 	lcall	__gptrput
   1E29 A3                 5763 	inc	dptr
   1E2A 74 0F              5764 	mov	a,#0x0F
   1E2C 12s00r00           5765 	lcall	__gptrput
                           5766 ;	../../../core/net/rime/collect.c:1216: tc->cb = cb;
   1E2F A8*00              5767 	mov	r0,_bp
   1E31 08                 5768 	inc	r0
   1E32 74 58              5769 	mov	a,#0x58
   1E34 26                 5770 	add	a,@r0
   1E35 FA                 5771 	mov	r2,a
   1E36 E4                 5772 	clr	a
   1E37 08                 5773 	inc	r0
   1E38 36                 5774 	addc	a,@r0
   1E39 FB                 5775 	mov	r3,a
   1E3A 08                 5776 	inc	r0
   1E3B 86 04              5777 	mov	ar4,@r0
   1E3D 8A 82              5778 	mov	dpl,r2
   1E3F 8B 83              5779 	mov	dph,r3
   1E41 8C F0              5780 	mov	b,r4
   1E43 E5*00              5781 	mov	a,_bp
   1E45 24 F8              5782 	add	a,#0xf8
   1E47 F8                 5783 	mov	r0,a
   1E48 E6                 5784 	mov	a,@r0
   1E49 12s00r00           5785 	lcall	__gptrput
   1E4C A3                 5786 	inc	dptr
   1E4D 08                 5787 	inc	r0
   1E4E E6                 5788 	mov	a,@r0
   1E4F 12s00r00           5789 	lcall	__gptrput
   1E52 A3                 5790 	inc	dptr
   1E53 08                 5791 	inc	r0
   1E54 E6                 5792 	mov	a,@r0
   1E55 12s00r00           5793 	lcall	__gptrput
                           5794 ;	../../../core/net/rime/collect.c:1217: tc->is_router = is_router;
   1E58 A8*00              5795 	mov	r0,_bp
   1E5A 08                 5796 	inc	r0
   1E5B 74 BD              5797 	mov	a,#0xBD
   1E5D 26                 5798 	add	a,@r0
   1E5E FA                 5799 	mov	r2,a
   1E5F E4                 5800 	clr	a
   1E60 08                 5801 	inc	r0
   1E61 36                 5802 	addc	a,@r0
   1E62 FB                 5803 	mov	r3,a
   1E63 08                 5804 	inc	r0
   1E64 86 04              5805 	mov	ar4,@r0
   1E66 8A 82              5806 	mov	dpl,r2
   1E68 8B 83              5807 	mov	dph,r3
   1E6A 8C F0              5808 	mov	b,r4
   1E6C E5*00              5809 	mov	a,_bp
   1E6E 24 FB              5810 	add	a,#0xfb
   1E70 F8                 5811 	mov	r0,a
   1E71 E6                 5812 	mov	a,@r0
   1E72 12s00r00           5813 	lcall	__gptrput
                           5814 ;	../../../core/net/rime/collect.c:1218: tc->seqno = 10;
   1E75 A8*00              5815 	mov	r0,_bp
   1E77 08                 5816 	inc	r0
   1E78 74 B8              5817 	mov	a,#0xB8
   1E7A 26                 5818 	add	a,@r0
   1E7B FA                 5819 	mov	r2,a
   1E7C E4                 5820 	clr	a
   1E7D 08                 5821 	inc	r0
   1E7E 36                 5822 	addc	a,@r0
   1E7F FB                 5823 	mov	r3,a
   1E80 08                 5824 	inc	r0
   1E81 86 04              5825 	mov	ar4,@r0
   1E83 8A 82              5826 	mov	dpl,r2
   1E85 8B 83              5827 	mov	dph,r3
   1E87 8C F0              5828 	mov	b,r4
   1E89 74 0A              5829 	mov	a,#0x0A
   1E8B 12s00r00           5830 	lcall	__gptrput
                           5831 ;	../../../core/net/rime/collect.c:1219: tc->eseqno = 0;
   1E8E A8*00              5832 	mov	r0,_bp
   1E90 08                 5833 	inc	r0
   1E91 74 BC              5834 	mov	a,#0xBC
   1E93 26                 5835 	add	a,@r0
   1E94 FA                 5836 	mov	r2,a
   1E95 E4                 5837 	clr	a
   1E96 08                 5838 	inc	r0
   1E97 36                 5839 	addc	a,@r0
   1E98 FB                 5840 	mov	r3,a
   1E99 08                 5841 	inc	r0
   1E9A 86 04              5842 	mov	ar4,@r0
   1E9C 8A 82              5843 	mov	dpl,r2
   1E9E 8B 83              5844 	mov	dph,r3
   1EA0 8C F0              5845 	mov	b,r4
   1EA2 E4                 5846 	clr	a
   1EA3 12s00r00           5847 	lcall	__gptrput
                           5848 ;	../../../core/net/rime/collect.c:1220: LIST_STRUCT_INIT(tc, send_queue_list);
   1EA6 A8*00              5849 	mov	r0,_bp
   1EA8 08                 5850 	inc	r0
   1EA9 E5*00              5851 	mov	a,_bp
   1EAB 24 04              5852 	add	a,#0x04
   1EAD F9                 5853 	mov	r1,a
   1EAE 74 73              5854 	mov	a,#0x73
   1EB0 26                 5855 	add	a,@r0
   1EB1 F7                 5856 	mov	@r1,a
   1EB2 E4                 5857 	clr	a
   1EB3 08                 5858 	inc	r0
   1EB4 36                 5859 	addc	a,@r0
   1EB5 09                 5860 	inc	r1
   1EB6 F7                 5861 	mov	@r1,a
   1EB7 08                 5862 	inc	r0
   1EB8 09                 5863 	inc	r1
   1EB9 E6                 5864 	mov	a,@r0
   1EBA F7                 5865 	mov	@r1,a
   1EBB A8*00              5866 	mov	r0,_bp
   1EBD 08                 5867 	inc	r0
   1EBE 74 70              5868 	mov	a,#0x70
   1EC0 26                 5869 	add	a,@r0
   1EC1 FA                 5870 	mov	r2,a
   1EC2 E4                 5871 	clr	a
   1EC3 08                 5872 	inc	r0
   1EC4 36                 5873 	addc	a,@r0
   1EC5 FB                 5874 	mov	r3,a
   1EC6 08                 5875 	inc	r0
   1EC7 86 04              5876 	mov	ar4,@r0
   1EC9 E5*00              5877 	mov	a,_bp
   1ECB 24 04              5878 	add	a,#0x04
   1ECD F8                 5879 	mov	r0,a
   1ECE 86 82              5880 	mov	dpl,@r0
   1ED0 08                 5881 	inc	r0
   1ED1 86 83              5882 	mov	dph,@r0
   1ED3 08                 5883 	inc	r0
   1ED4 86 F0              5884 	mov	b,@r0
   1ED6 EA                 5885 	mov	a,r2
   1ED7 12s00r00           5886 	lcall	__gptrput
   1EDA A3                 5887 	inc	dptr
   1EDB EB                 5888 	mov	a,r3
   1EDC 12s00r00           5889 	lcall	__gptrput
   1EDF A3                 5890 	inc	dptr
   1EE0 EC                 5891 	mov	a,r4
   1EE1 12s00r00           5892 	lcall	__gptrput
   1EE4 8A 82              5893 	mov	dpl,r2
   1EE6 8B 83              5894 	mov	dph,r3
   1EE8 8C F0              5895 	mov	b,r4
   1EEA E4                 5896 	clr	a
   1EEB 12s00r00           5897 	lcall	__gptrput
   1EEE A3                 5898 	inc	dptr
   1EEF E4                 5899 	clr	a
   1EF0 12s00r00           5900 	lcall	__gptrput
   1EF3 A3                 5901 	inc	dptr
   1EF4 E4                 5902 	clr	a
   1EF5 12s00r00           5903 	lcall	__gptrput
   1EF8 8A 82              5904 	mov	dpl,r2
   1EFA 8B 83              5905 	mov	dph,r3
   1EFC 8C F0              5906 	mov	b,r4
   1EFE C0 05              5907 	push	ar5
   1F00 C0 06              5908 	push	ar6
   1F02 C0 07              5909 	push	ar7
   1F04 12s00r00           5910 	lcall	_list_init
                           5911 ;	../../../core/net/rime/collect.c:1221: collect_neighbor_list_new(&tc->neighbor_list);
   1F07 A8*00              5912 	mov	r0,_bp
   1F09 08                 5913 	inc	r0
   1F0A 74 7C              5914 	mov	a,#0x7C
   1F0C 26                 5915 	add	a,@r0
   1F0D FA                 5916 	mov	r2,a
   1F0E E4                 5917 	clr	a
   1F0F 08                 5918 	inc	r0
   1F10 36                 5919 	addc	a,@r0
   1F11 FB                 5920 	mov	r3,a
   1F12 08                 5921 	inc	r0
   1F13 86 04              5922 	mov	ar4,@r0
   1F15 8A 82              5923 	mov	dpl,r2
   1F17 8B 83              5924 	mov	dph,r3
   1F19 8C F0              5925 	mov	b,r4
   1F1B 12s00r00           5926 	lcall	_collect_neighbor_list_new
                           5927 ;	../../../core/net/rime/collect.c:1222: tc->send_queue.list = &(tc->send_queue_list);
   1F1E A8*00              5928 	mov	r0,_bp
   1F20 08                 5929 	inc	r0
   1F21 74 76              5930 	mov	a,#0x76
   1F23 26                 5931 	add	a,@r0
   1F24 FA                 5932 	mov	r2,a
   1F25 E4                 5933 	clr	a
   1F26 08                 5934 	inc	r0
   1F27 36                 5935 	addc	a,@r0
   1F28 FB                 5936 	mov	r3,a
   1F29 08                 5937 	inc	r0
   1F2A 86 04              5938 	mov	ar4,@r0
   1F2C 8A 82              5939 	mov	dpl,r2
   1F2E 8B 83              5940 	mov	dph,r3
   1F30 8C F0              5941 	mov	b,r4
   1F32 E5*00              5942 	mov	a,_bp
   1F34 24 04              5943 	add	a,#0x04
   1F36 F8                 5944 	mov	r0,a
   1F37 E6                 5945 	mov	a,@r0
   1F38 12s00r00           5946 	lcall	__gptrput
   1F3B A3                 5947 	inc	dptr
   1F3C 08                 5948 	inc	r0
   1F3D E6                 5949 	mov	a,@r0
   1F3E 12s00r00           5950 	lcall	__gptrput
   1F41 A3                 5951 	inc	dptr
   1F42 08                 5952 	inc	r0
   1F43 E6                 5953 	mov	a,@r0
   1F44 12s00r00           5954 	lcall	__gptrput
                           5955 ;	../../../core/net/rime/collect.c:1223: tc->send_queue.memb = &send_queue_memb;
   1F47 A8*00              5956 	mov	r0,_bp
   1F49 08                 5957 	inc	r0
   1F4A 74 76              5958 	mov	a,#0x76
   1F4C 26                 5959 	add	a,@r0
   1F4D FA                 5960 	mov	r2,a
   1F4E E4                 5961 	clr	a
   1F4F 08                 5962 	inc	r0
   1F50 36                 5963 	addc	a,@r0
   1F51 FB                 5964 	mov	r3,a
   1F52 08                 5965 	inc	r0
   1F53 86 04              5966 	mov	ar4,@r0
   1F55 74 03              5967 	mov	a,#0x03
   1F57 2A                 5968 	add	a,r2
   1F58 FA                 5969 	mov	r2,a
   1F59 E4                 5970 	clr	a
   1F5A 3B                 5971 	addc	a,r3
   1F5B FB                 5972 	mov	r3,a
   1F5C 8A 82              5973 	mov	dpl,r2
   1F5E 8B 83              5974 	mov	dph,r3
   1F60 8C F0              5975 	mov	b,r4
   1F62 74r00              5976 	mov	a,#_send_queue_memb
   1F64 12s00r00           5977 	lcall	__gptrput
   1F67 A3                 5978 	inc	dptr
   1F68 74s00              5979 	mov	a,#(_send_queue_memb >> 8)
   1F6A 12s00r00           5980 	lcall	__gptrput
   1F6D A3                 5981 	inc	dptr
   1F6E E4                 5982 	clr	a
   1F6F 12s00r00           5983 	lcall	__gptrput
                           5984 ;	../../../core/net/rime/collect.c:1224: collect_neighbor_init();
   1F72 12s00r00           5985 	lcall	_collect_neighbor_init
                           5986 ;	../../../core/net/rime/collect.c:1231: &neighbor_discovery_callbacks);
                           5987 ;	../../../core/net/rime/collect.c:1227: neighbor_discovery_open(&tc->neighbor_discovery_conn, channels,
   1F75 A8*00              5988 	mov	r0,_bp
   1F77 08                 5989 	inc	r0
   1F78 74 12              5990 	mov	a,#0x12
   1F7A 26                 5991 	add	a,@r0
   1F7B FA                 5992 	mov	r2,a
   1F7C E4                 5993 	clr	a
   1F7D 08                 5994 	inc	r0
   1F7E 36                 5995 	addc	a,@r0
   1F7F FB                 5996 	mov	r3,a
   1F80 08                 5997 	inc	r0
   1F81 86 04              5998 	mov	ar4,@r0
   1F83 74rE5              5999 	mov	a,#_neighbor_discovery_callbacks
   1F85 C0 E0              6000 	push	acc
   1F87 74s00              6001 	mov	a,#(_neighbor_discovery_callbacks >> 8)
   1F89 C0 E0              6002 	push	acc
   1F8B 74 80              6003 	mov	a,#0x80
   1F8D C0 E0              6004 	push	acc
   1F8F E4                 6005 	clr	a
   1F90 C0 E0              6006 	push	acc
   1F92 74 2C              6007 	mov	a,#0x2C
   1F94 C0 E0              6008 	push	acc
   1F96 E4                 6009 	clr	a
   1F97 C0 E0              6010 	push	acc
   1F99 74 1E              6011 	mov	a,#0x1E
   1F9B C0 E0              6012 	push	acc
   1F9D E4                 6013 	clr	a
   1F9E C0 E0              6014 	push	acc
   1FA0 74 02              6015 	mov	a,#0x02
   1FA2 C0 E0              6016 	push	acc
   1FA4 E5*00              6017 	mov	a,_bp
   1FA6 24 FC              6018 	add	a,#0xfc
   1FA8 F8                 6019 	mov	r0,a
   1FA9 E6                 6020 	mov	a,@r0
   1FAA C0 E0              6021 	push	acc
   1FAC 08                 6022 	inc	r0
   1FAD E6                 6023 	mov	a,@r0
   1FAE C0 E0              6024 	push	acc
   1FB0 8A 82              6025 	mov	dpl,r2
   1FB2 8B 83              6026 	mov	dph,r3
   1FB4 8C F0              6027 	mov	b,r4
   1FB6 12s00r00           6028 	lcall	_neighbor_discovery_open
   1FB9 E5 81              6029 	mov	a,sp
   1FBB 24 F5              6030 	add	a,#0xf5
   1FBD F5 81              6031 	mov	sp,a
   1FBF D0 07              6032 	pop	ar7
   1FC1 D0 06              6033 	pop	ar6
   1FC3 D0 05              6034 	pop	ar5
                           6035 ;	../../../core/net/rime/collect.c:1232: neighbor_discovery_start(&tc->neighbor_discovery_conn, tc->rtmetric);
   1FC5 8D 82              6036 	mov	dpl,r5
   1FC7 8E 83              6037 	mov	dph,r6
   1FC9 8F F0              6038 	mov	b,r7
   1FCB 12s00r00           6039 	lcall	__gptrget
   1FCE FD                 6040 	mov	r5,a
   1FCF A3                 6041 	inc	dptr
   1FD0 12s00r00           6042 	lcall	__gptrget
   1FD3 FE                 6043 	mov	r6,a
   1FD4 A8*00              6044 	mov	r0,_bp
   1FD6 08                 6045 	inc	r0
   1FD7 74 12              6046 	mov	a,#0x12
   1FD9 26                 6047 	add	a,@r0
   1FDA FA                 6048 	mov	r2,a
   1FDB E4                 6049 	clr	a
   1FDC 08                 6050 	inc	r0
   1FDD 36                 6051 	addc	a,@r0
   1FDE FB                 6052 	mov	r3,a
   1FDF 08                 6053 	inc	r0
   1FE0 86 04              6054 	mov	ar4,@r0
   1FE2 C0 05              6055 	push	ar5
   1FE4 C0 06              6056 	push	ar6
   1FE6 8A 82              6057 	mov	dpl,r2
   1FE8 8B 83              6058 	mov	dph,r3
   1FEA 8C F0              6059 	mov	b,r4
   1FEC 12s00r00           6060 	lcall	_neighbor_discovery_start
   1FEF 15 81              6061 	dec	sp
   1FF1 15 81              6062 	dec	sp
   1FF3 85*00 81           6063 	mov	sp,_bp
   1FF6 D0*00              6064 	pop	_bp
   1FF8 22                 6065 	ret
                           6066 ;------------------------------------------------------------
                           6067 ;Allocation info for local variables in function 'send_keepalive'
                           6068 ;------------------------------------------------------------
                           6069 ;ptr                       Allocated to registers r2 r3 r4 
                           6070 ;c                         Allocated to registers 
                           6071 ;------------------------------------------------------------
                           6072 ;	../../../core/net/rime/collect.c:1243: send_keepalive(void *ptr)
                           6073 ;	-----------------------------------------
                           6074 ;	 function send_keepalive
                           6075 ;	-----------------------------------------
   1FF9                    6076 _send_keepalive:
                           6077 ;	../../../core/net/rime/collect.c:1247: set_keepalive_timer(c);
   1FF9 AA 82              6078 	mov	r2,dpl
   1FFB AB 83              6079 	mov	r3,dph
   1FFD AC F0              6080 	mov	r4,b
   1FFF C0 02              6081 	push	ar2
   2001 C0 03              6082 	push	ar3
   2003 C0 04              6083 	push	ar4
   2005 12s20r7B           6084 	lcall	_set_keepalive_timer
   2008 D0 04              6085 	pop	ar4
   200A D0 03              6086 	pop	ar3
   200C D0 02              6087 	pop	ar2
                           6088 ;	../../../core/net/rime/collect.c:1250: if(c->sending == 0 && packetqueue_len(&c->send_queue) == 0) {
   200E 74 B9              6089 	mov	a,#0xB9
   2010 2A                 6090 	add	a,r2
   2011 FD                 6091 	mov	r5,a
   2012 E4                 6092 	clr	a
   2013 3B                 6093 	addc	a,r3
   2014 FE                 6094 	mov	r6,a
   2015 8C 07              6095 	mov	ar7,r4
   2017 8D 82              6096 	mov	dpl,r5
   2019 8E 83              6097 	mov	dph,r6
   201B 8F F0              6098 	mov	b,r7
   201D 12s00r00           6099 	lcall	__gptrget
   2020 70 58              6100 	jnz	00106$
   2022 74 76              6101 	mov	a,#0x76
   2024 2A                 6102 	add	a,r2
   2025 FD                 6103 	mov	r5,a
   2026 E4                 6104 	clr	a
   2027 3B                 6105 	addc	a,r3
   2028 FE                 6106 	mov	r6,a
   2029 8C 07              6107 	mov	ar7,r4
   202B 8D 82              6108 	mov	dpl,r5
   202D 8E 83              6109 	mov	dph,r6
   202F 8F F0              6110 	mov	b,r7
   2031 C0 02              6111 	push	ar2
   2033 C0 03              6112 	push	ar3
   2035 C0 04              6113 	push	ar4
   2037 12s00r00           6114 	lcall	_packetqueue_len
   203A E5 82              6115 	mov	a,dpl
   203C 85 83 F0           6116 	mov	b,dph
   203F D0 04              6117 	pop	ar4
   2041 D0 03              6118 	pop	ar3
   2043 D0 02              6119 	pop	ar2
   2045 45 F0              6120 	orl	a,b
   2047 70 31              6121 	jnz	00106$
                           6122 ;	../../../core/net/rime/collect.c:1251: if(enqueue_dummy_packet(c, KEEPALIVE_REXMITS)) {
   2049 C0 02              6123 	push	ar2
   204B C0 03              6124 	push	ar3
   204D C0 04              6125 	push	ar4
   204F 74 08              6126 	mov	a,#0x08
   2051 C0 E0              6127 	push	acc
   2053 E4                 6128 	clr	a
   2054 C0 E0              6129 	push	acc
   2056 8A 82              6130 	mov	dpl,r2
   2058 8B 83              6131 	mov	dph,r3
   205A 8C F0              6132 	mov	b,r4
   205C 12s04r03           6133 	lcall	_enqueue_dummy_packet
   205F AD 82              6134 	mov	r5,dpl
   2061 AE 83              6135 	mov	r6,dph
   2063 15 81              6136 	dec	sp
   2065 15 81              6137 	dec	sp
   2067 D0 04              6138 	pop	ar4
   2069 D0 03              6139 	pop	ar3
   206B D0 02              6140 	pop	ar2
   206D ED                 6141 	mov	a,r5
   206E 4E                 6142 	orl	a,r6
   206F 60 09              6143 	jz	00106$
                           6144 ;	../../../core/net/rime/collect.c:1254: send_queued_packet(c);
   2071 8A 82              6145 	mov	dpl,r2
   2073 8B 83              6146 	mov	dph,r3
   2075 8C F0              6147 	mov	b,r4
   2077 02s05r16           6148 	ljmp	_send_queued_packet
   207A                    6149 00106$:
   207A 22                 6150 	ret
                           6151 ;------------------------------------------------------------
                           6152 ;Allocation info for local variables in function 'set_keepalive_timer'
                           6153 ;------------------------------------------------------------
                           6154 ;c                         Allocated to stack - offset 1
                           6155 ;sloc0                     Allocated to stack - offset 4
                           6156 ;sloc1                     Allocated to stack - offset 4
                           6157 ;------------------------------------------------------------
                           6158 ;	../../../core/net/rime/collect.c:1260: set_keepalive_timer(struct collect_conn *c)
                           6159 ;	-----------------------------------------
                           6160 ;	 function set_keepalive_timer
                           6161 ;	-----------------------------------------
   207B                    6162 _set_keepalive_timer:
   207B C0*00              6163 	push	_bp
   207D 85 81*00           6164 	mov	_bp,sp
   2080 C0 82              6165 	push	dpl
   2082 C0 83              6166 	push	dph
   2084 C0 F0              6167 	push	b
   2086 05 81              6168 	inc	sp
   2088 05 81              6169 	inc	sp
                           6170 ;	../../../core/net/rime/collect.c:1262: if(c->keepalive_period != 0) {
   208A A8*00              6171 	mov	r0,_bp
   208C 08                 6172 	inc	r0
   208D 74 AC              6173 	mov	a,#0xAC
   208F 26                 6174 	add	a,@r0
   2090 FD                 6175 	mov	r5,a
   2091 E4                 6176 	clr	a
   2092 08                 6177 	inc	r0
   2093 36                 6178 	addc	a,@r0
   2094 FE                 6179 	mov	r6,a
   2095 08                 6180 	inc	r0
   2096 86 07              6181 	mov	ar7,@r0
   2098 8D 82              6182 	mov	dpl,r5
   209A 8E 83              6183 	mov	dph,r6
   209C 8F F0              6184 	mov	b,r7
   209E 12s00r00           6185 	lcall	__gptrget
   20A1 FA                 6186 	mov	r2,a
   20A2 A3                 6187 	inc	dptr
   20A3 12s00r00           6188 	lcall	__gptrget
   20A6 FB                 6189 	mov	r3,a
   20A7 4A                 6190 	orl	a,r2
   20A8 70 03              6191 	jnz	00107$
   20AA 02s21r3B           6192 	ljmp	00102$
   20AD                    6193 00107$:
                           6194 ;	../../../core/net/rime/collect.c:1263: ctimer_set(&c->keepalive_timer, (c->keepalive_period / 2) +
   20AD E5*00              6195 	mov	a,_bp
   20AF 24 04              6196 	add	a,#0x04
   20B1 F8                 6197 	mov	r0,a
   20B2 A6 02              6198 	mov	@r0,ar2
   20B4 EB                 6199 	mov	a,r3
   20B5 C3                 6200 	clr	c
   20B6 13                 6201 	rrc	a
   20B7 C6                 6202 	xch	a,@r0
   20B8 13                 6203 	rrc	a
   20B9 C6                 6204 	xch	a,@r0
   20BA 08                 6205 	inc	r0
   20BB F6                 6206 	mov	@r0,a
                           6207 ;	../../../core/net/rime/collect.c:1264: (random_rand() % (c->keepalive_period / 2)),
   20BC C0 05              6208 	push	ar5
   20BE C0 06              6209 	push	ar6
   20C0 C0 07              6210 	push	ar7
   20C2 12s00r00           6211 	lcall	_random_rand
   20C5 AA 82              6212 	mov	r2,dpl
   20C7 AB 83              6213 	mov	r3,dph
   20C9 D0 07              6214 	pop	ar7
   20CB D0 06              6215 	pop	ar6
   20CD D0 05              6216 	pop	ar5
   20CF 8D 82              6217 	mov	dpl,r5
   20D1 8E 83              6218 	mov	dph,r6
   20D3 8F F0              6219 	mov	b,r7
   20D5 12s00r00           6220 	lcall	__gptrget
   20D8 FD                 6221 	mov	r5,a
   20D9 A3                 6222 	inc	dptr
   20DA 12s00r00           6223 	lcall	__gptrget
   20DD C3                 6224 	clr	c
   20DE 13                 6225 	rrc	a
   20DF CD                 6226 	xch	a,r5
   20E0 13                 6227 	rrc	a
   20E1 CD                 6228 	xch	a,r5
   20E2 FE                 6229 	mov	r6,a
   20E3 C0 05              6230 	push	ar5
   20E5 C0 06              6231 	push	ar6
   20E7 8A 82              6232 	mov	dpl,r2
   20E9 8B 83              6233 	mov	dph,r3
   20EB 12s00r00           6234 	lcall	__moduint
   20EE AA 82              6235 	mov	r2,dpl
   20F0 AB 83              6236 	mov	r3,dph
   20F2 15 81              6237 	dec	sp
   20F4 15 81              6238 	dec	sp
   20F6 E5*00              6239 	mov	a,_bp
   20F8 24 04              6240 	add	a,#0x04
   20FA F8                 6241 	mov	r0,a
   20FB EA                 6242 	mov	a,r2
   20FC 26                 6243 	add	a,@r0
   20FD FA                 6244 	mov	r2,a
   20FE EB                 6245 	mov	a,r3
   20FF 08                 6246 	inc	r0
   2100 36                 6247 	addc	a,@r0
   2101 FB                 6248 	mov	r3,a
                           6249 ;	../../../core/net/rime/collect.c:1263: ctimer_set(&c->keepalive_timer, (c->keepalive_period / 2) +
   2102 A8*00              6250 	mov	r0,_bp
   2104 08                 6251 	inc	r0
   2105 74 97              6252 	mov	a,#0x97
   2107 26                 6253 	add	a,@r0
   2108 FC                 6254 	mov	r4,a
   2109 E4                 6255 	clr	a
   210A 08                 6256 	inc	r0
   210B 36                 6257 	addc	a,@r0
   210C FD                 6258 	mov	r5,a
   210D 08                 6259 	inc	r0
   210E 86 06              6260 	mov	ar6,@r0
   2110 A8*00              6261 	mov	r0,_bp
   2112 08                 6262 	inc	r0
   2113 E6                 6263 	mov	a,@r0
   2114 C0 E0              6264 	push	acc
   2116 08                 6265 	inc	r0
   2117 E6                 6266 	mov	a,@r0
   2118 C0 E0              6267 	push	acc
   211A 08                 6268 	inc	r0
   211B E6                 6269 	mov	a,@r0
   211C C0 E0              6270 	push	acc
   211E 74rF9              6271 	mov	a,#_send_keepalive
   2120 C0 E0              6272 	push	acc
   2122 74s1F              6273 	mov	a,#(_send_keepalive >> 8)
   2124 C0 E0              6274 	push	acc
   2126 C0 02              6275 	push	ar2
   2128 C0 03              6276 	push	ar3
   212A 8C 82              6277 	mov	dpl,r4
   212C 8D 83              6278 	mov	dph,r5
   212E 8E F0              6279 	mov	b,r6
   2130 12s00r00           6280 	lcall	_ctimer_set
   2133 E5 81              6281 	mov	a,sp
   2135 24 F9              6282 	add	a,#0xf9
   2137 F5 81              6283 	mov	sp,a
   2139 80 17              6284 	sjmp	00104$
   213B                    6285 00102$:
                           6286 ;	../../../core/net/rime/collect.c:1267: ctimer_stop(&c->keepalive_timer);
   213B A8*00              6287 	mov	r0,_bp
   213D 08                 6288 	inc	r0
   213E 74 97              6289 	mov	a,#0x97
   2140 26                 6290 	add	a,@r0
   2141 FA                 6291 	mov	r2,a
   2142 E4                 6292 	clr	a
   2143 08                 6293 	inc	r0
   2144 36                 6294 	addc	a,@r0
   2145 FB                 6295 	mov	r3,a
   2146 08                 6296 	inc	r0
   2147 86 04              6297 	mov	ar4,@r0
   2149 8A 82              6298 	mov	dpl,r2
   214B 8B 83              6299 	mov	dph,r3
   214D 8C F0              6300 	mov	b,r4
   214F 12s00r00           6301 	lcall	_ctimer_stop
   2152                    6302 00104$:
   2152 85*00 81           6303 	mov	sp,_bp
   2155 D0*00              6304 	pop	_bp
   2157 22                 6305 	ret
                           6306 ;------------------------------------------------------------
                           6307 ;Allocation info for local variables in function 'collect_set_keepalive'
                           6308 ;------------------------------------------------------------
                           6309 ;period                    Allocated to stack - offset -4
                           6310 ;c                         Allocated to registers r2 r3 r4 
                           6311 ;------------------------------------------------------------
                           6312 ;	../../../core/net/rime/collect.c:1272: collect_set_keepalive(struct collect_conn *c, clock_time_t period)
                           6313 ;	-----------------------------------------
                           6314 ;	 function collect_set_keepalive
                           6315 ;	-----------------------------------------
   2158                    6316 _collect_set_keepalive:
   2158 C0*00              6317 	push	_bp
   215A 85 81*00           6318 	mov	_bp,sp
   215D AA 82              6319 	mov	r2,dpl
   215F AB 83              6320 	mov	r3,dph
   2161 AC F0              6321 	mov	r4,b
                           6322 ;	../../../core/net/rime/collect.c:1274: c->keepalive_period = period;
   2163 74 AC              6323 	mov	a,#0xAC
   2165 2A                 6324 	add	a,r2
   2166 FD                 6325 	mov	r5,a
   2167 E4                 6326 	clr	a
   2168 3B                 6327 	addc	a,r3
   2169 FE                 6328 	mov	r6,a
   216A 8C 07              6329 	mov	ar7,r4
   216C 8D 82              6330 	mov	dpl,r5
   216E 8E 83              6331 	mov	dph,r6
   2170 8F F0              6332 	mov	b,r7
   2172 E5*00              6333 	mov	a,_bp
   2174 24 FC              6334 	add	a,#0xfc
   2176 F8                 6335 	mov	r0,a
   2177 E6                 6336 	mov	a,@r0
   2178 12s00r00           6337 	lcall	__gptrput
   217B A3                 6338 	inc	dptr
   217C 08                 6339 	inc	r0
   217D E6                 6340 	mov	a,@r0
   217E 12s00r00           6341 	lcall	__gptrput
                           6342 ;	../../../core/net/rime/collect.c:1275: set_keepalive_timer(c);
   2181 8A 82              6343 	mov	dpl,r2
   2183 8B 83              6344 	mov	dph,r3
   2185 8C F0              6345 	mov	b,r4
   2187 12s20r7B           6346 	lcall	_set_keepalive_timer
   218A D0*00              6347 	pop	_bp
   218C 22                 6348 	ret
                           6349 ;------------------------------------------------------------
                           6350 ;Allocation info for local variables in function 'collect_close'
                           6351 ;------------------------------------------------------------
                           6352 ;tc                        Allocated to registers r2 r3 r4 
                           6353 ;------------------------------------------------------------
                           6354 ;	../../../core/net/rime/collect.c:1279: collect_close(struct collect_conn *tc)
                           6355 ;	-----------------------------------------
                           6356 ;	 function collect_close
                           6357 ;	-----------------------------------------
   218D                    6358 _collect_close:
   218D AA 82              6359 	mov	r2,dpl
   218F AB 83              6360 	mov	r3,dph
   2191 AC F0              6361 	mov	r4,b
                           6362 ;	../../../core/net/rime/collect.c:1284: neighbor_discovery_close(&tc->neighbor_discovery_conn);
   2193 74 12              6363 	mov	a,#0x12
   2195 2A                 6364 	add	a,r2
   2196 FD                 6365 	mov	r5,a
   2197 E4                 6366 	clr	a
   2198 3B                 6367 	addc	a,r3
   2199 FE                 6368 	mov	r6,a
   219A 8C 07              6369 	mov	ar7,r4
   219C 8D 82              6370 	mov	dpl,r5
   219E 8E 83              6371 	mov	dph,r6
   21A0 8F F0              6372 	mov	b,r7
   21A2 C0 02              6373 	push	ar2
   21A4 C0 03              6374 	push	ar3
   21A6 C0 04              6375 	push	ar4
   21A8 12s00r00           6376 	lcall	_neighbor_discovery_close
   21AB D0 04              6377 	pop	ar4
   21AD D0 03              6378 	pop	ar3
   21AF D0 02              6379 	pop	ar2
                           6380 ;	../../../core/net/rime/collect.c:1286: unicast_close(&tc->unicast_conn);
   21B1 8A 82              6381 	mov	dpl,r2
   21B3 8B 83              6382 	mov	dph,r3
   21B5 8C F0              6383 	mov	b,r4
   21B7 C0 02              6384 	push	ar2
   21B9 C0 03              6385 	push	ar3
   21BB C0 04              6386 	push	ar4
   21BD 12s00r00           6387 	lcall	_unicast_close
   21C0 D0 04              6388 	pop	ar4
   21C2 D0 03              6389 	pop	ar3
   21C4 D0 02              6390 	pop	ar2
                           6391 ;	../../../core/net/rime/collect.c:1287: while(packetqueue_first(&tc->send_queue) != NULL) {
   21C6                    6392 00101$:
   21C6 74 76              6393 	mov	a,#0x76
   21C8 2A                 6394 	add	a,r2
   21C9 FD                 6395 	mov	r5,a
   21CA E4                 6396 	clr	a
   21CB 3B                 6397 	addc	a,r3
   21CC FE                 6398 	mov	r6,a
   21CD 8C 07              6399 	mov	ar7,r4
   21CF 8D 82              6400 	mov	dpl,r5
   21D1 8E 83              6401 	mov	dph,r6
   21D3 8F F0              6402 	mov	b,r7
   21D5 C0 02              6403 	push	ar2
   21D7 C0 03              6404 	push	ar3
   21D9 C0 04              6405 	push	ar4
   21DB 12s00r00           6406 	lcall	_packetqueue_first
   21DE AD 82              6407 	mov	r5,dpl
   21E0 AE 83              6408 	mov	r6,dph
   21E2 AF F0              6409 	mov	r7,b
   21E4 D0 04              6410 	pop	ar4
   21E6 D0 03              6411 	pop	ar3
   21E8 D0 02              6412 	pop	ar2
   21EA ED                 6413 	mov	a,r5
   21EB 4E                 6414 	orl	a,r6
   21EC 4F                 6415 	orl	a,r7
   21ED 60 20              6416 	jz	00104$
                           6417 ;	../../../core/net/rime/collect.c:1288: packetqueue_dequeue(&tc->send_queue);
   21EF 74 76              6418 	mov	a,#0x76
   21F1 2A                 6419 	add	a,r2
   21F2 FD                 6420 	mov	r5,a
   21F3 E4                 6421 	clr	a
   21F4 3B                 6422 	addc	a,r3
   21F5 FE                 6423 	mov	r6,a
   21F6 8C 07              6424 	mov	ar7,r4
   21F8 8D 82              6425 	mov	dpl,r5
   21FA 8E 83              6426 	mov	dph,r6
   21FC 8F F0              6427 	mov	b,r7
   21FE C0 02              6428 	push	ar2
   2200 C0 03              6429 	push	ar3
   2202 C0 04              6430 	push	ar4
   2204 12s00r00           6431 	lcall	_packetqueue_dequeue
   2207 D0 04              6432 	pop	ar4
   2209 D0 03              6433 	pop	ar3
   220B D0 02              6434 	pop	ar2
   220D 80 B7              6435 	sjmp	00101$
   220F                    6436 00104$:
   220F 22                 6437 	ret
                           6438 ;------------------------------------------------------------
                           6439 ;Allocation info for local variables in function 'collect_set_sink'
                           6440 ;------------------------------------------------------------
                           6441 ;should_be_sink            Allocated to stack - offset -4
                           6442 ;tc                        Allocated to registers r2 r3 r4 
                           6443 ;------------------------------------------------------------
                           6444 ;	../../../core/net/rime/collect.c:1293: collect_set_sink(struct collect_conn *tc, int should_be_sink)
                           6445 ;	-----------------------------------------
                           6446 ;	 function collect_set_sink
                           6447 ;	-----------------------------------------
   2210                    6448 _collect_set_sink:
   2210 C0*00              6449 	push	_bp
   2212 85 81*00           6450 	mov	_bp,sp
   2215 AA 82              6451 	mov	r2,dpl
   2217 AB 83              6452 	mov	r3,dph
   2219 AC F0              6453 	mov	r4,b
                           6454 ;	../../../core/net/rime/collect.c:1295: if(should_be_sink) {
   221B E5*00              6455 	mov	a,_bp
   221D 24 FC              6456 	add	a,#0xfc
   221F F8                 6457 	mov	r0,a
   2220 E6                 6458 	mov	a,@r0
   2221 08                 6459 	inc	r0
   2222 46                 6460 	orl	a,@r0
   2223 60 43              6461 	jz	00102$
                           6462 ;	../../../core/net/rime/collect.c:1296: tc->is_router = 1;
   2225 74 BD              6463 	mov	a,#0xBD
   2227 2A                 6464 	add	a,r2
   2228 FD                 6465 	mov	r5,a
   2229 E4                 6466 	clr	a
   222A 3B                 6467 	addc	a,r3
   222B FE                 6468 	mov	r6,a
   222C 8C 07              6469 	mov	ar7,r4
   222E 8D 82              6470 	mov	dpl,r5
   2230 8E 83              6471 	mov	dph,r6
   2232 8F F0              6472 	mov	b,r7
   2234 74 01              6473 	mov	a,#0x01
   2236 12s00r00           6474 	lcall	__gptrput
                           6475 ;	../../../core/net/rime/collect.c:1297: tc->rtmetric = RTMETRIC_SINK;
   2239 74 B6              6476 	mov	a,#0xB6
   223B 2A                 6477 	add	a,r2
   223C FD                 6478 	mov	r5,a
   223D E4                 6479 	clr	a
   223E 3B                 6480 	addc	a,r3
   223F FE                 6481 	mov	r6,a
   2240 8C 07              6482 	mov	ar7,r4
   2242 8D 82              6483 	mov	dpl,r5
   2244 8E 83              6484 	mov	dph,r6
   2246 8F F0              6485 	mov	b,r7
   2248 E4                 6486 	clr	a
   2249 12s00r00           6487 	lcall	__gptrput
   224C A3                 6488 	inc	dptr
   224D E4                 6489 	clr	a
   224E 12s00r00           6490 	lcall	__gptrput
                           6491 ;	../../../core/net/rime/collect.c:1299: bump_advertisement(tc);
   2251 8A 82              6492 	mov	dpl,r2
   2253 8B 83              6493 	mov	dph,r3
   2255 8C F0              6494 	mov	b,r4
   2257 C0 02              6495 	push	ar2
   2259 C0 03              6496 	push	ar3
   225B C0 04              6497 	push	ar4
   225D 12s02r77           6498 	lcall	_bump_advertisement
   2260 D0 04              6499 	pop	ar4
   2262 D0 03              6500 	pop	ar3
   2264 D0 02              6501 	pop	ar2
   2266 80 1A              6502 	sjmp	00103$
   2268                    6503 00102$:
                           6504 ;	../../../core/net/rime/collect.c:1301: tc->rtmetric = RTMETRIC_MAX;
   2268 74 B6              6505 	mov	a,#0xB6
   226A 2A                 6506 	add	a,r2
   226B FD                 6507 	mov	r5,a
   226C E4                 6508 	clr	a
   226D 3B                 6509 	addc	a,r3
   226E FE                 6510 	mov	r6,a
   226F 8C 07              6511 	mov	ar7,r4
   2271 8D 82              6512 	mov	dpl,r5
   2273 8E 83              6513 	mov	dph,r6
   2275 8F F0              6514 	mov	b,r7
   2277 74 FF              6515 	mov	a,#0xFF
   2279 12s00r00           6516 	lcall	__gptrput
   227C A3                 6517 	inc	dptr
   227D 74 0F              6518 	mov	a,#0x0F
   227F 12s00r00           6519 	lcall	__gptrput
   2282                    6520 00103$:
                           6521 ;	../../../core/net/rime/collect.c:1306: update_rtmetric(tc);
   2282 8A 82              6522 	mov	dpl,r2
   2284 8B 83              6523 	mov	dph,r3
   2286 8C F0              6524 	mov	b,r4
   2288 C0 02              6525 	push	ar2
   228A C0 03              6526 	push	ar3
   228C C0 04              6527 	push	ar4
   228E 12s02rAE           6528 	lcall	_update_rtmetric
   2291 D0 04              6529 	pop	ar4
   2293 D0 03              6530 	pop	ar3
   2295 D0 02              6531 	pop	ar2
                           6532 ;	../../../core/net/rime/collect.c:1308: bump_advertisement(tc);
   2297 8A 82              6533 	mov	dpl,r2
   2299 8B 83              6534 	mov	dph,r3
   229B 8C F0              6535 	mov	b,r4
   229D 12s02r77           6536 	lcall	_bump_advertisement
                           6537 ;	../../../core/net/rime/collect.c:1311: printf("#A rt=0,p=0\n");
   22A0 D0*00              6538 	pop	_bp
   22A2 22                 6539 	ret
                           6540 ;------------------------------------------------------------
                           6541 ;Allocation info for local variables in function 'collect_send'
                           6542 ;------------------------------------------------------------
                           6543 ;rexmits                   Allocated to stack - offset -4
                           6544 ;tc                        Allocated to stack - offset 1
                           6545 ;n                         Allocated to registers r2 r3 r4 
                           6546 ;sloc0                     Allocated to stack - offset 4
                           6547 ;------------------------------------------------------------
                           6548 ;	../../../core/net/rime/collect.c:1316: collect_send(struct collect_conn *tc, int rexmits)
                           6549 ;	-----------------------------------------
                           6550 ;	 function collect_send
                           6551 ;	-----------------------------------------
   22A3                    6552 _collect_send:
   22A3 C0*00              6553 	push	_bp
   22A5 85 81*00           6554 	mov	_bp,sp
   22A8 C0 82              6555 	push	dpl
   22AA C0 83              6556 	push	dph
   22AC C0 F0              6557 	push	b
   22AE 05 81              6558 	inc	sp
                           6559 ;	../../../core/net/rime/collect.c:1320: packetbuf_set_attr(PACKETBUF_ATTR_EPACKET_ID, tc->eseqno);
   22B0 A8*00              6560 	mov	r0,_bp
   22B2 08                 6561 	inc	r0
   22B3 74 BC              6562 	mov	a,#0xBC
   22B5 26                 6563 	add	a,@r0
   22B6 FD                 6564 	mov	r5,a
   22B7 E4                 6565 	clr	a
   22B8 08                 6566 	inc	r0
   22B9 36                 6567 	addc	a,@r0
   22BA FE                 6568 	mov	r6,a
   22BB 08                 6569 	inc	r0
   22BC 86 07              6570 	mov	ar7,@r0
   22BE 8D 82              6571 	mov	dpl,r5
   22C0 8E 83              6572 	mov	dph,r6
   22C2 8F F0              6573 	mov	b,r7
   22C4 12s00r00           6574 	lcall	__gptrget
   22C7 FA                 6575 	mov	r2,a
   22C8 7B 00              6576 	mov	r3,#0x00
   22CA C0 05              6577 	push	ar5
   22CC C0 06              6578 	push	ar6
   22CE C0 07              6579 	push	ar7
   22D0 C0 02              6580 	push	ar2
   22D2 C0 03              6581 	push	ar3
   22D4 75 82 15           6582 	mov	dpl,#0x15
   22D7 12s00r00           6583 	lcall	_packetbuf_set_attr
   22DA 15 81              6584 	dec	sp
   22DC 15 81              6585 	dec	sp
   22DE D0 07              6586 	pop	ar7
   22E0 D0 06              6587 	pop	ar6
   22E2 D0 05              6588 	pop	ar5
                           6589 ;	../../../core/net/rime/collect.c:1330: tc->eseqno = (tc->eseqno + 1) % (1 << COLLECT_PACKET_ID_BITS);
   22E4 8D 82              6590 	mov	dpl,r5
   22E6 8E 83              6591 	mov	dph,r6
   22E8 8F F0              6592 	mov	b,r7
   22EA 12s00r00           6593 	lcall	__gptrget
   22ED FA                 6594 	mov	r2,a
   22EE 7B 00              6595 	mov	r3,#0x00
   22F0 0A                 6596 	inc	r2
   22F1 BA 00 01           6597 	cjne	r2,#0x00,00125$
   22F4 0B                 6598 	inc	r3
   22F5                    6599 00125$:
   22F5 C0 05              6600 	push	ar5
   22F7 C0 06              6601 	push	ar6
   22F9 C0 07              6602 	push	ar7
   22FB E4                 6603 	clr	a
   22FC C0 E0              6604 	push	acc
   22FE 74 01              6605 	mov	a,#0x01
   2300 C0 E0              6606 	push	acc
   2302 8A 82              6607 	mov	dpl,r2
   2304 8B 83              6608 	mov	dph,r3
   2306 12s00r00           6609 	lcall	__modsint
   2309 AA 82              6610 	mov	r2,dpl
   230B AB 83              6611 	mov	r3,dph
   230D 15 81              6612 	dec	sp
   230F 15 81              6613 	dec	sp
   2311 D0 07              6614 	pop	ar7
   2313 D0 06              6615 	pop	ar6
   2315 D0 05              6616 	pop	ar5
   2317 8D 82              6617 	mov	dpl,r5
   2319 8E 83              6618 	mov	dph,r6
   231B 8F F0              6619 	mov	b,r7
                           6620 ;	../../../core/net/rime/collect.c:1332: if(tc->eseqno == 0) {
   231D EA                 6621 	mov	a,r2
   231E 12s00r00           6622 	lcall	__gptrput
   2321 70 0B              6623 	jnz	00102$
                           6624 ;	../../../core/net/rime/collect.c:1333: tc->eseqno = ((int)(1 << COLLECT_PACKET_ID_BITS)) / 2;
   2323 8D 82              6625 	mov	dpl,r5
   2325 8E 83              6626 	mov	dph,r6
   2327 8F F0              6627 	mov	b,r7
   2329 74 80              6628 	mov	a,#0x80
   232B 12s00r00           6629 	lcall	__gptrput
   232E                    6630 00102$:
                           6631 ;	../../../core/net/rime/collect.c:1335: packetbuf_set_addr(PACKETBUF_ADDR_ESENDER, &rimeaddr_node_addr);
   232E 74r00              6632 	mov	a,#_rimeaddr_node_addr
   2330 C0 E0              6633 	push	acc
   2332 74s00              6634 	mov	a,#(_rimeaddr_node_addr >> 8)
   2334 C0 E0              6635 	push	acc
   2336 E4                 6636 	clr	a
   2337 C0 E0              6637 	push	acc
   2339 75 82 1A           6638 	mov	dpl,#0x1A
   233C 12s00r00           6639 	lcall	_packetbuf_set_addr
   233F 15 81              6640 	dec	sp
   2341 15 81              6641 	dec	sp
   2343 15 81              6642 	dec	sp
                           6643 ;	../../../core/net/rime/collect.c:1336: packetbuf_set_attr(PACKETBUF_ATTR_HOPS, 1);
   2345 74 01              6644 	mov	a,#0x01
   2347 C0 E0              6645 	push	acc
   2349 E4                 6646 	clr	a
   234A C0 E0              6647 	push	acc
   234C 75 82 13           6648 	mov	dpl,#0x13
   234F 12s00r00           6649 	lcall	_packetbuf_set_attr
   2352 15 81              6650 	dec	sp
   2354 15 81              6651 	dec	sp
                           6652 ;	../../../core/net/rime/collect.c:1337: packetbuf_set_attr(PACKETBUF_ATTR_TTL, MAX_HOPLIM);
   2356 74 0F              6653 	mov	a,#0x0F
   2358 C0 E0              6654 	push	acc
   235A E4                 6655 	clr	a
   235B C0 E0              6656 	push	acc
   235D 75 82 14           6657 	mov	dpl,#0x14
   2360 12s00r00           6658 	lcall	_packetbuf_set_attr
   2363 15 81              6659 	dec	sp
   2365 15 81              6660 	dec	sp
                           6661 ;	../../../core/net/rime/collect.c:1338: packetbuf_set_attr(PACKETBUF_ATTR_MAX_REXMIT, rexmits);
   2367 E5*00              6662 	mov	a,_bp
   2369 24 FC              6663 	add	a,#0xfc
   236B F8                 6664 	mov	r0,a
   236C 86 02              6665 	mov	ar2,@r0
   236E 08                 6666 	inc	r0
   236F 86 03              6667 	mov	ar3,@r0
   2371 C0 02              6668 	push	ar2
   2373 C0 03              6669 	push	ar3
   2375 75 82 10           6670 	mov	dpl,#0x10
   2378 12s00r00           6671 	lcall	_packetbuf_set_attr
   237B 15 81              6672 	dec	sp
   237D 15 81              6673 	dec	sp
                           6674 ;	../../../core/net/rime/collect.c:1345: if(tc->rtmetric == RTMETRIC_SINK) {
   237F A8*00              6675 	mov	r0,_bp
   2381 08                 6676 	inc	r0
   2382 74 B6              6677 	mov	a,#0xB6
   2384 26                 6678 	add	a,@r0
   2385 FA                 6679 	mov	r2,a
   2386 E4                 6680 	clr	a
   2387 08                 6681 	inc	r0
   2388 36                 6682 	addc	a,@r0
   2389 FB                 6683 	mov	r3,a
   238A 08                 6684 	inc	r0
   238B 86 04              6685 	mov	ar4,@r0
   238D 8A 82              6686 	mov	dpl,r2
   238F 8B 83              6687 	mov	dph,r3
   2391 8C F0              6688 	mov	b,r4
   2393 12s00r00           6689 	lcall	__gptrget
   2396 FA                 6690 	mov	r2,a
   2397 A3                 6691 	inc	dptr
   2398 12s00r00           6692 	lcall	__gptrget
   239B FB                 6693 	mov	r3,a
   239C 4A                 6694 	orl	a,r2
   239D 60 03              6695 	jz	00127$
   239F 02s24r43           6696 	ljmp	00115$
   23A2                    6697 00127$:
                           6698 ;	../../../core/net/rime/collect.c:1346: packetbuf_set_attr(PACKETBUF_ATTR_HOPS, 0);
   23A2 E4                 6699 	clr	a
   23A3 C0 E0              6700 	push	acc
   23A5 C0 E0              6701 	push	acc
   23A7 75 82 13           6702 	mov	dpl,#0x13
   23AA 12s00r00           6703 	lcall	_packetbuf_set_attr
   23AD 15 81              6704 	dec	sp
   23AF 15 81              6705 	dec	sp
                           6706 ;	../../../core/net/rime/collect.c:1347: if(tc->cb->recv != NULL) {
   23B1 A8*00              6707 	mov	r0,_bp
   23B3 08                 6708 	inc	r0
   23B4 74 58              6709 	mov	a,#0x58
   23B6 26                 6710 	add	a,@r0
   23B7 FA                 6711 	mov	r2,a
   23B8 E4                 6712 	clr	a
   23B9 08                 6713 	inc	r0
   23BA 36                 6714 	addc	a,@r0
   23BB FB                 6715 	mov	r3,a
   23BC 08                 6716 	inc	r0
   23BD 86 04              6717 	mov	ar4,@r0
   23BF 8A 82              6718 	mov	dpl,r2
   23C1 8B 83              6719 	mov	dph,r3
   23C3 8C F0              6720 	mov	b,r4
   23C5 12s00r00           6721 	lcall	__gptrget
   23C8 FA                 6722 	mov	r2,a
   23C9 A3                 6723 	inc	dptr
   23CA 12s00r00           6724 	lcall	__gptrget
   23CD FB                 6725 	mov	r3,a
   23CE A3                 6726 	inc	dptr
   23CF 12s00r00           6727 	lcall	__gptrget
   23D2 FC                 6728 	mov	r4,a
   23D3 8A 82              6729 	mov	dpl,r2
   23D5 8B 83              6730 	mov	dph,r3
   23D7 8C F0              6731 	mov	b,r4
   23D9 12s00r00           6732 	lcall	__gptrget
   23DC FA                 6733 	mov	r2,a
   23DD A3                 6734 	inc	dptr
   23DE 12s00r00           6735 	lcall	__gptrget
   23E1 FB                 6736 	mov	r3,a
   23E2 4A                 6737 	orl	a,r2
   23E3 60 58              6738 	jz	00104$
                           6739 ;	../../../core/net/rime/collect.c:1350: packetbuf_attr(PACKETBUF_ATTR_HOPS));
   23E5 75 82 13           6740 	mov	dpl,#0x13
   23E8 C0 02              6741 	push	ar2
   23EA C0 03              6742 	push	ar3
   23EC 12s00r00           6743 	lcall	_packetbuf_attr
   23EF AC 82              6744 	mov	r4,dpl
                           6745 ;	../../../core/net/rime/collect.c:1349: packetbuf_attr(PACKETBUF_ATTR_EPACKET_ID),
   23F1 75 82 15           6746 	mov	dpl,#0x15
   23F4 C0 04              6747 	push	ar4
   23F6 12s00r00           6748 	lcall	_packetbuf_attr
   23F9 AD 82              6749 	mov	r5,dpl
   23FB E5*00              6750 	mov	a,_bp
   23FD 24 04              6751 	add	a,#0x04
   23FF F8                 6752 	mov	r0,a
   2400 A6 05              6753 	mov	@r0,ar5
                           6754 ;	../../../core/net/rime/collect.c:1348: tc->cb->recv(packetbuf_addr(PACKETBUF_ADDR_ESENDER),
   2402 75 82 1A           6755 	mov	dpl,#0x1A
   2405 12s00r00           6756 	lcall	_packetbuf_addr
   2408 AE 82              6757 	mov	r6,dpl
   240A AF 83              6758 	mov	r7,dph
   240C AD F0              6759 	mov	r5,b
   240E D0 04              6760 	pop	ar4
   2410 D0 03              6761 	pop	ar3
   2412 D0 02              6762 	pop	ar2
   2414 C0 02              6763 	push	ar2
   2416 C0 03              6764 	push	ar3
   2418 C0 04              6765 	push	ar4
   241A E5*00              6766 	mov	a,_bp
   241C 24 04              6767 	add	a,#0x04
   241E F8                 6768 	mov	r0,a
   241F E6                 6769 	mov	a,@r0
   2420 C0 E0              6770 	push	acc
   2422 74r35              6771 	mov	a,#00129$
   2424 C0 E0              6772 	push	acc
   2426 74s24              6773 	mov	a,#(00129$ >> 8)
   2428 C0 E0              6774 	push	acc
   242A C0 02              6775 	push	ar2
   242C C0 03              6776 	push	ar3
   242E 8E 82              6777 	mov	dpl,r6
   2430 8F 83              6778 	mov	dph,r7
   2432 8D F0              6779 	mov	b,r5
   2434 22                 6780 	ret
   2435                    6781 00129$:
   2435 15 81              6782 	dec	sp
   2437 15 81              6783 	dec	sp
   2439 D0 03              6784 	pop	ar3
   243B D0 02              6785 	pop	ar2
   243D                    6786 00104$:
                           6787 ;	../../../core/net/rime/collect.c:1352: return 1;
   243D 90 00 01           6788 	mov	dptr,#0x0001
   2440 02s25r6D           6789 	ljmp	00117$
   2443                    6790 00115$:
                           6791 ;	../../../core/net/rime/collect.c:1356: packetbuf_hdralloc(sizeof(struct data_msg_hdr));
   2443 90 00 04           6792 	mov	dptr,#0x0004
   2446 12s00r00           6793 	lcall	_packetbuf_hdralloc
                           6794 ;	../../../core/net/rime/collect.c:1358: n = collect_neighbor_list_find(&tc->neighbor_list, &tc->parent);
   2449 A8*00              6795 	mov	r0,_bp
   244B 08                 6796 	inc	r0
   244C 74 B2              6797 	mov	a,#0xB2
   244E 26                 6798 	add	a,@r0
   244F FA                 6799 	mov	r2,a
   2450 E4                 6800 	clr	a
   2451 08                 6801 	inc	r0
   2452 36                 6802 	addc	a,@r0
   2453 FB                 6803 	mov	r3,a
   2454 08                 6804 	inc	r0
   2455 86 04              6805 	mov	ar4,@r0
   2457 A8*00              6806 	mov	r0,_bp
   2459 08                 6807 	inc	r0
   245A 74 7C              6808 	mov	a,#0x7C
   245C 26                 6809 	add	a,@r0
   245D FD                 6810 	mov	r5,a
   245E E4                 6811 	clr	a
   245F 08                 6812 	inc	r0
   2460 36                 6813 	addc	a,@r0
   2461 FE                 6814 	mov	r6,a
   2462 08                 6815 	inc	r0
   2463 86 07              6816 	mov	ar7,@r0
   2465 C0 02              6817 	push	ar2
   2467 C0 03              6818 	push	ar3
   2469 C0 04              6819 	push	ar4
   246B 8D 82              6820 	mov	dpl,r5
   246D 8E 83              6821 	mov	dph,r6
   246F 8F F0              6822 	mov	b,r7
   2471 12s00r00           6823 	lcall	_collect_neighbor_list_find
   2474 AA 82              6824 	mov	r2,dpl
   2476 AB 83              6825 	mov	r3,dph
   2478 AC F0              6826 	mov	r4,b
   247A 15 81              6827 	dec	sp
   247C 15 81              6828 	dec	sp
   247E 15 81              6829 	dec	sp
                           6830 ;	../../../core/net/rime/collect.c:1359: if(n != NULL) {
   2480 EA                 6831 	mov	a,r2
   2481 4B                 6832 	orl	a,r3
   2482 4C                 6833 	orl	a,r4
   2483 60 7B              6834 	jz	00112$
                           6835 ;	../../../core/net/rime/collect.c:1364: if(packetqueue_enqueue_packetbuf(&tc->send_queue,
   2485 A8*00              6836 	mov	r0,_bp
   2487 08                 6837 	inc	r0
   2488 74 76              6838 	mov	a,#0x76
   248A 26                 6839 	add	a,@r0
   248B FA                 6840 	mov	r2,a
   248C E4                 6841 	clr	a
   248D 08                 6842 	inc	r0
   248E 36                 6843 	addc	a,@r0
   248F FB                 6844 	mov	r3,a
   2490 08                 6845 	inc	r0
   2491 86 04              6846 	mov	ar4,@r0
   2493 A8*00              6847 	mov	r0,_bp
   2495 08                 6848 	inc	r0
   2496 E6                 6849 	mov	a,@r0
   2497 C0 E0              6850 	push	acc
   2499 08                 6851 	inc	r0
   249A E6                 6852 	mov	a,@r0
   249B C0 E0              6853 	push	acc
   249D 08                 6854 	inc	r0
   249E E6                 6855 	mov	a,@r0
   249F C0 E0              6856 	push	acc
   24A1 E4                 6857 	clr	a
   24A2 C0 E0              6858 	push	acc
   24A4 74 3C              6859 	mov	a,#0x3C
   24A6 C0 E0              6860 	push	acc
   24A8 8A 82              6861 	mov	dpl,r2
   24AA 8B 83              6862 	mov	dph,r3
   24AC 8C F0              6863 	mov	b,r4
   24AE 12s00r00           6864 	lcall	_packetqueue_enqueue_packetbuf
   24B1 AA 82              6865 	mov	r2,dpl
   24B3 AB 83              6866 	mov	r3,dph
   24B5 E5 81              6867 	mov	a,sp
   24B7 24 FB              6868 	add	a,#0xfb
   24B9 F5 81              6869 	mov	sp,a
   24BB EA                 6870 	mov	a,r2
   24BC 4B                 6871 	orl	a,r3
   24BD 60 14              6872 	jz	00106$
                           6873 ;	../../../core/net/rime/collect.c:1367: send_queued_packet(tc);
   24BF A8*00              6874 	mov	r0,_bp
   24C1 08                 6875 	inc	r0
   24C2 86 82              6876 	mov	dpl,@r0
   24C4 08                 6877 	inc	r0
   24C5 86 83              6878 	mov	dph,@r0
   24C7 08                 6879 	inc	r0
   24C8 86 F0              6880 	mov	b,@r0
   24CA 12s05r16           6881 	lcall	_send_queued_packet
                           6882 ;	../../../core/net/rime/collect.c:1368: return 1;
   24CD 90 00 01           6883 	mov	dptr,#0x0001
   24D0 02s25r6D           6884 	ljmp	00117$
   24D3                    6885 00106$:
                           6886 ;	../../../core/net/rime/collect.c:1371: rimeaddr_node_addr.u8[0], rimeaddr_node_addr.u8[1]);
   24D3 90s00r01           6887 	mov	dptr,#(_rimeaddr_node_addr + 0x0001)
   24D6 E0                 6888 	movx	a,@dptr
   24D7 FA                 6889 	mov	r2,a
   24D8 7B 00              6890 	mov	r3,#0x00
   24DA 90s00r00           6891 	mov	dptr,#_rimeaddr_node_addr
   24DD E0                 6892 	movx	a,@dptr
   24DE FC                 6893 	mov	r4,a
   24DF 7D 00              6894 	mov	r5,#0x00
                           6895 ;	../../../core/net/rime/collect.c:1370: printf("%d.%d: drop originated packet: no queuebuf\n",
   24E1 C0 02              6896 	push	ar2
   24E3 C0 03              6897 	push	ar3
   24E5 C0 04              6898 	push	ar4
   24E7 C0 05              6899 	push	ar5
   24E9 74rF6              6900 	mov	a,#__str_11
   24EB C0 E0              6901 	push	acc
   24ED 74s00              6902 	mov	a,#(__str_11 >> 8)
   24EF C0 E0              6903 	push	acc
   24F1 74 80              6904 	mov	a,#0x80
   24F3 C0 E0              6905 	push	acc
   24F5 12s00r00           6906 	lcall	_printf
   24F8 E5 81              6907 	mov	a,sp
   24FA 24 F9              6908 	add	a,#0xf9
   24FC F5 81              6909 	mov	sp,a
   24FE 80 6A              6910 	sjmp	00116$
   2500                    6911 00112$:
                           6912 ;	../../../core/net/rime/collect.c:1389: if(packetqueue_enqueue_packetbuf(&tc->send_queue,
   2500 A8*00              6913 	mov	r0,_bp
   2502 08                 6914 	inc	r0
   2503 74 76              6915 	mov	a,#0x76
   2505 26                 6916 	add	a,@r0
   2506 FA                 6917 	mov	r2,a
   2507 E4                 6918 	clr	a
   2508 08                 6919 	inc	r0
   2509 36                 6920 	addc	a,@r0
   250A FB                 6921 	mov	r3,a
   250B 08                 6922 	inc	r0
   250C 86 04              6923 	mov	ar4,@r0
   250E A8*00              6924 	mov	r0,_bp
   2510 08                 6925 	inc	r0
   2511 E6                 6926 	mov	a,@r0
   2512 C0 E0              6927 	push	acc
   2514 08                 6928 	inc	r0
   2515 E6                 6929 	mov	a,@r0
   2516 C0 E0              6930 	push	acc
   2518 08                 6931 	inc	r0
   2519 E6                 6932 	mov	a,@r0
   251A C0 E0              6933 	push	acc
   251C E4                 6934 	clr	a
   251D C0 E0              6935 	push	acc
   251F 74 3C              6936 	mov	a,#0x3C
   2521 C0 E0              6937 	push	acc
   2523 8A 82              6938 	mov	dpl,r2
   2525 8B 83              6939 	mov	dph,r3
   2527 8C F0              6940 	mov	b,r4
   2529 12s00r00           6941 	lcall	_packetqueue_enqueue_packetbuf
   252C AA 82              6942 	mov	r2,dpl
   252E AB 83              6943 	mov	r3,dph
   2530 E5 81              6944 	mov	a,sp
   2532 24 FB              6945 	add	a,#0xfb
   2534 F5 81              6946 	mov	sp,a
   2536 EA                 6947 	mov	a,r2
   2537 4B                 6948 	orl	a,r3
   2538 60 05              6949 	jz	00109$
                           6950 ;	../../../core/net/rime/collect.c:1392: return 1;
   253A 90 00 01           6951 	mov	dptr,#0x0001
   253D 80 2E              6952 	sjmp	00117$
   253F                    6953 00109$:
                           6954 ;	../../../core/net/rime/collect.c:1395: rimeaddr_node_addr.u8[0], rimeaddr_node_addr.u8[1]);
   253F 90s00r01           6955 	mov	dptr,#(_rimeaddr_node_addr + 0x0001)
   2542 E0                 6956 	movx	a,@dptr
   2543 FA                 6957 	mov	r2,a
   2544 7B 00              6958 	mov	r3,#0x00
   2546 90s00r00           6959 	mov	dptr,#_rimeaddr_node_addr
   2549 E0                 6960 	movx	a,@dptr
   254A FC                 6961 	mov	r4,a
   254B 7D 00              6962 	mov	r5,#0x00
                           6963 ;	../../../core/net/rime/collect.c:1394: printf("%d.%d: drop originated packet: no queuebuf\n",
   254D C0 02              6964 	push	ar2
   254F C0 03              6965 	push	ar3
   2551 C0 04              6966 	push	ar4
   2553 C0 05              6967 	push	ar5
   2555 74rF6              6968 	mov	a,#__str_11
   2557 C0 E0              6969 	push	acc
   2559 74s00              6970 	mov	a,#(__str_11 >> 8)
   255B C0 E0              6971 	push	acc
   255D 74 80              6972 	mov	a,#0x80
   255F C0 E0              6973 	push	acc
   2561 12s00r00           6974 	lcall	_printf
   2564 E5 81              6975 	mov	a,sp
   2566 24 F9              6976 	add	a,#0xf9
   2568 F5 81              6977 	mov	sp,a
   256A                    6978 00116$:
                           6979 ;	../../../core/net/rime/collect.c:1399: return 0;
   256A 90 00 00           6980 	mov	dptr,#0x0000
   256D                    6981 00117$:
   256D 85*00 81           6982 	mov	sp,_bp
   2570 D0*00              6983 	pop	_bp
   2572 22                 6984 	ret
                           6985 ;------------------------------------------------------------
                           6986 ;Allocation info for local variables in function 'collect_depth'
                           6987 ;------------------------------------------------------------
                           6988 ;tc                        Allocated to registers r2 r3 r4 
                           6989 ;------------------------------------------------------------
                           6990 ;	../../../core/net/rime/collect.c:1403: collect_depth(struct collect_conn *tc)
                           6991 ;	-----------------------------------------
                           6992 ;	 function collect_depth
                           6993 ;	-----------------------------------------
   2573                    6994 _collect_depth:
   2573 AA 82              6995 	mov	r2,dpl
   2575 AB 83              6996 	mov	r3,dph
   2577 AC F0              6997 	mov	r4,b
                           6998 ;	../../../core/net/rime/collect.c:1405: return tc->rtmetric;
   2579 74 B6              6999 	mov	a,#0xB6
   257B 2A                 7000 	add	a,r2
   257C FA                 7001 	mov	r2,a
   257D E4                 7002 	clr	a
   257E 3B                 7003 	addc	a,r3
   257F FB                 7004 	mov	r3,a
   2580 8A 82              7005 	mov	dpl,r2
   2582 8B 83              7006 	mov	dph,r3
   2584 8C F0              7007 	mov	b,r4
   2586 12s00r00           7008 	lcall	__gptrget
   2589 FA                 7009 	mov	r2,a
   258A A3                 7010 	inc	dptr
   258B 12s00r00           7011 	lcall	__gptrget
   258E 8A 82              7012 	mov	dpl,r2
   2590 F5 83              7013 	mov	dph,a
   2592 22                 7014 	ret
                           7015 ;------------------------------------------------------------
                           7016 ;Allocation info for local variables in function 'collect_purge'
                           7017 ;------------------------------------------------------------
                           7018 ;tc                        Allocated to registers r2 r3 r4 
                           7019 ;------------------------------------------------------------
                           7020 ;	../../../core/net/rime/collect.c:1409: collect_purge(struct collect_conn *tc)
                           7021 ;	-----------------------------------------
                           7022 ;	 function collect_purge
                           7023 ;	-----------------------------------------
   2593                    7024 _collect_purge:
   2593 AA 82              7025 	mov	r2,dpl
   2595 AB 83              7026 	mov	r3,dph
   2597 AC F0              7027 	mov	r4,b
                           7028 ;	../../../core/net/rime/collect.c:1411: collect_neighbor_list_purge(&tc->neighbor_list);
   2599 74 7C              7029 	mov	a,#0x7C
   259B 2A                 7030 	add	a,r2
   259C FD                 7031 	mov	r5,a
   259D E4                 7032 	clr	a
   259E 3B                 7033 	addc	a,r3
   259F FE                 7034 	mov	r6,a
   25A0 8C 07              7035 	mov	ar7,r4
   25A2 8D 82              7036 	mov	dpl,r5
   25A4 8E 83              7037 	mov	dph,r6
   25A6 8F F0              7038 	mov	b,r7
   25A8 C0 02              7039 	push	ar2
   25AA C0 03              7040 	push	ar3
   25AC C0 04              7041 	push	ar4
   25AE 12s00r00           7042 	lcall	_collect_neighbor_list_purge
   25B1 D0 04              7043 	pop	ar4
   25B3 D0 03              7044 	pop	ar3
   25B5 D0 02              7045 	pop	ar2
                           7046 ;	../../../core/net/rime/collect.c:1412: rimeaddr_copy(&tc->parent, &rimeaddr_null);
   25B7 74 B2              7047 	mov	a,#0xB2
   25B9 2A                 7048 	add	a,r2
   25BA FD                 7049 	mov	r5,a
   25BB E4                 7050 	clr	a
   25BC 3B                 7051 	addc	a,r3
   25BD FE                 7052 	mov	r6,a
   25BE 8C 07              7053 	mov	ar7,r4
   25C0 C0 02              7054 	push	ar2
   25C2 C0 03              7055 	push	ar3
   25C4 C0 04              7056 	push	ar4
   25C6 74r00              7057 	mov	a,#_rimeaddr_null
   25C8 C0 E0              7058 	push	acc
   25CA 74s00              7059 	mov	a,#(_rimeaddr_null >> 8)
   25CC C0 E0              7060 	push	acc
   25CE 74 80              7061 	mov	a,#0x80
   25D0 C0 E0              7062 	push	acc
   25D2 8D 82              7063 	mov	dpl,r5
   25D4 8E 83              7064 	mov	dph,r6
   25D6 8F F0              7065 	mov	b,r7
   25D8 12s00r00           7066 	lcall	_rimeaddr_copy
   25DB 15 81              7067 	dec	sp
   25DD 15 81              7068 	dec	sp
   25DF 15 81              7069 	dec	sp
   25E1 D0 04              7070 	pop	ar4
   25E3 D0 03              7071 	pop	ar3
   25E5 D0 02              7072 	pop	ar2
                           7073 ;	../../../core/net/rime/collect.c:1413: update_rtmetric(tc);
   25E7 8A 82              7074 	mov	dpl,r2
   25E9 8B 83              7075 	mov	dph,r3
   25EB 8C F0              7076 	mov	b,r4
   25ED C0 02              7077 	push	ar2
   25EF C0 03              7078 	push	ar3
   25F1 C0 04              7079 	push	ar4
   25F3 12s02rAE           7080 	lcall	_update_rtmetric
   25F6 D0 04              7081 	pop	ar4
   25F8 D0 03              7082 	pop	ar3
   25FA D0 02              7083 	pop	ar2
                           7084 ;	../../../core/net/rime/collect.c:1417: rimeaddr_copy(&tc->parent, &rimeaddr_null);
   25FC 74 B2              7085 	mov	a,#0xB2
   25FE 2A                 7086 	add	a,r2
   25FF FA                 7087 	mov	r2,a
   2600 E4                 7088 	clr	a
   2601 3B                 7089 	addc	a,r3
   2602 FB                 7090 	mov	r3,a
   2603 74r00              7091 	mov	a,#_rimeaddr_null
   2605 C0 E0              7092 	push	acc
   2607 74s00              7093 	mov	a,#(_rimeaddr_null >> 8)
   2609 C0 E0              7094 	push	acc
   260B 74 80              7095 	mov	a,#0x80
   260D C0 E0              7096 	push	acc
   260F 8A 82              7097 	mov	dpl,r2
   2611 8B 83              7098 	mov	dph,r3
   2613 8C F0              7099 	mov	b,r4
   2615 12s00r00           7100 	lcall	_rimeaddr_copy
   2618 15 81              7101 	dec	sp
   261A 15 81              7102 	dec	sp
   261C 15 81              7103 	dec	sp
   261E 22                 7104 	ret
                           7105 ;------------------------------------------------------------
                           7106 ;Allocation info for local variables in function 'collect_print_stats'
                           7107 ;------------------------------------------------------------
                           7108 ;------------------------------------------------------------
                           7109 ;	../../../core/net/rime/collect.c:1421: collect_print_stats(void)
                           7110 ;	-----------------------------------------
                           7111 ;	 function collect_print_stats
                           7112 ;	-----------------------------------------
   261F                    7113 _collect_print_stats:
                           7114 ;	../../../core/net/rime/collect.c:1429: }
   261F 22                 7115 	ret
                           7116 	.area CSEG    (CODE)
                           7117 	.area CONST   (CODE)
   0000                    7118 _attributes:
   0000 1A                 7119 	.db #0x1A	; 26
   0001 10                 7120 	.db #0x10	; 16
   0002 15                 7121 	.db #0x15	; 21
   0003 08                 7122 	.db #0x08	; 8
   0004 0D                 7123 	.db #0x0D	; 13
   0005 08                 7124 	.db #0x08	; 8
   0006 14                 7125 	.db #0x14	; 20
   0007 04                 7126 	.db #0x04	; 4
   0008 13                 7127 	.db #0x13	; 19
   0009 04                 7128 	.db #0x04	; 4
   000A 10                 7129 	.db #0x10	; 16
   000B 05                 7130 	.db #0x05	; 5
   000C 0E                 7131 	.db #0x0E	; 14
   000D 01                 7132 	.db #0x01	; 1
   000E 19                 7133 	.db #0x19	; 25
   000F 10                 7134 	.db #0x10	; 16
   0010 18                 7135 	.db #0x18	; 24
   0011 10                 7136 	.db #0x10	; 16
   0012 00                 7137 	.db #0x00	; 0
   0013 00                 7138 	.db #0x00	; 0
   0014                    7139 __str_0:
   0014 23 41 20 65 3D 25  7140 	.ascii "#A e=%d"
        64
   001B 0A                 7141 	.db 0x0A
   001C 00                 7142 	.db 0x00
   001D                    7143 __str_1:
   001D 23 41 20 6C 3D     7144 	.ascii "#A l="
   0022 00                 7145 	.db 0x00
   0023                    7146 __str_2:
   0023 25 64 20           7147 	.ascii "%d "
   0026 00                 7148 	.db 0x00
   0027                    7149 __str_3:
   0027 0A                 7150 	.db 0x0A
   0028 00                 7151 	.db 0x00
   0029                    7152 __str_4:
   0029 23 4C 20 25 64 20  7153 	.ascii "#L %d 0"
        30
   0030 0A                 7154 	.db 0x0A
   0031 00                 7155 	.db 0x00
   0032                    7156 __str_5:
   0032 23 4C 20 25 64 20  7157 	.ascii "#L %d 1"
        31
   0039 0A                 7158 	.db 0x0A
   003A 00                 7159 	.db 0x00
   003B                    7160 __str_6:
   003B 23 41 20 72 74 3D  7161 	.ascii "#A rt=%d,p=%d"
        25 64 2C 70 3D 25
        64
   0048 0A                 7162 	.db 0x0A
   0049 00                 7163 	.db 0x00
   004A                    7164 __str_7:
   004A 23 41 20 73 3D 25  7165 	.ascii "#A s=%d"
        64
   0051 0A                 7166 	.db 0x0A
   0052 00                 7167 	.db 0x00
   0053                    7168 __str_8:
   0053 25 64 2E 25 64 3A  7169 	.ascii "%d.%d: packet dropped: no queue buffer available"
        20 70 61 63 6B 65
        74 20 64 72 6F 70
        70 65 64 3A 20 6E
        6F 20 71 75 65 75
        65 20 62 75 66 66
        65 72 20 61 76 61
        69 6C 61 62 6C 65
   0083 0A                 7170 	.db 0x0A
   0084 00                 7171 	.db 0x00
   0085                    7172 __str_9:
   0085 25 64 2E 25 64 3A  7173 	.ascii "%d.%d: timedout after %d retransmissions to %d.%d (max retra"
        20 74 69 6D 65 64
        6F 75 74 20 61 66
        74 65 72 20 25 64
        20 72 65 74 72 61
        6E 73 6D 69 73 73
        69 6F 6E 73 20 74
        6F 20 25 64 2E 25
        64 20 28 6D 61 78
        20 72 65 74 72 61
   00C1 6E 73 6D 69 73 73  7174 	.ascii "nsmissions %d): packet dropped"
        69 6F 6E 73 20 25
        64 29 3A 20 70 61
        63 6B 65 74 20 64
        72 6F 70 70 65 64
   00DF 0A                 7175 	.db 0x0A
   00E0 00                 7176 	.db 0x00
   00E1                    7177 _unicast_callbacks:
   00E1r02s12              7178 	.byte _node_packet_received,(_node_packet_received >> 8)
   00E3r43s19              7179 	.byte _node_packet_sent,(_node_packet_sent >> 8)
   00E5                    7180 _neighbor_discovery_callbacks:
   00E5r8Cs1C              7181 	.byte _adv_received,(_adv_received >> 8)
   00E7 00 00              7182 	.byte #0x00,#0x00
   00E9                    7183 __str_10:
   00E9 23 41 20 72 74 3D  7184 	.ascii "#A rt=0,p=0"
        30 2C 70 3D 30
   00F4 0A                 7185 	.db 0x0A
   00F5 00                 7186 	.db 0x00
   00F6                    7187 __str_11:
   00F6 25 64 2E 25 64 3A  7188 	.ascii "%d.%d: drop originated packet: no queuebuf"
        20 64 72 6F 70 20
        6F 72 69 67 69 6E
        61 74 65 64 20 70
        61 63 6B 65 74 3A
        20 6E 6F 20 71 75
        65 75 65 62 75 66
   0120 0A                 7189 	.db 0x0A
   0121 00                 7190 	.db 0x00
                           7191 	.area XINIT   (CODE)
   0000                    7192 __xinit__send_queue_memb:
   0000 21 00              7193 	.byte #0x21,#0x00	; 33
   0002 04 00              7194 	.byte #0x04,#0x00	; 4
   0004r61s00 00           7195 	.byte _send_queue_memb_memb_count,(_send_queue_memb_memb_count >> 8),#0x00
   0007r65s00 00           7196 	.byte _send_queue_memb_memb_mem,(_send_queue_memb_memb_mem >> 8),#0x00
                           7197 	.area CABS    (ABS,CODE)
