                              1 ;--------------------------------------------------------
                              2 ; File Created by SDCC : free open source ANSI-C Compiler
                              3 ; Version 3.0.1 #6121 (Nov 17 2015) (CYGWIN)
                              4 ; This file was generated Sat Jan 27 13:26:07 2018
                              5 ;--------------------------------------------------------
                              6 	.module contikimac
                              7 	.optsdcc -mmcs51 --model-large
                              8 	
                              9 ;--------------------------------------------------------
                             10 ; Public variables in this module
                             11 ;--------------------------------------------------------
                             12 	.globl _contikimac_driver
                             13 	.globl _contikimac_debug_print
                             14 	.globl _contikimac_set_announcement_radio_txpower
                             15 	.globl _IRCON2_P2IF
                             16 	.globl _IRCON2_UTX0IF
                             17 	.globl _IRCON2_UTX1IF
                             18 	.globl _IRCON2_P1IF
                             19 	.globl _IRCON2_WDTIF
                             20 	.globl _CY
                             21 	.globl _AC
                             22 	.globl _F0
                             23 	.globl _RS1
                             24 	.globl _RS0
                             25 	.globl _OV
                             26 	.globl _F1
                             27 	.globl _P
                             28 	.globl _IRCON_DMAIF
                             29 	.globl _IRCON_T1IF
                             30 	.globl _IRCON_T2IF
                             31 	.globl _IRCON_T3IF
                             32 	.globl _IRCON_T4IF
                             33 	.globl _IRCON_P0IF
                             34 	.globl _IRCON_STIF
                             35 	.globl _IEN1_DMAIE
                             36 	.globl _IEN1_T1IE
                             37 	.globl _IEN1_T2IE
                             38 	.globl _IEN1_T3IE
                             39 	.globl _IEN1_T4IE
                             40 	.globl _IEN1_P0IE
                             41 	.globl _IEN0_RFERRIE
                             42 	.globl _IEN0_ADCIE
                             43 	.globl _IEN0_URX0IE
                             44 	.globl _IEN0_URX1IE
                             45 	.globl _IEN0_ENCIE
                             46 	.globl _IEN0_STIE
                             47 	.globl _IEN0_EA
                             48 	.globl _EA
                             49 	.globl _P2_4
                             50 	.globl _P2_3
                             51 	.globl _P2_2
                             52 	.globl _P2_1
                             53 	.globl _P2_0
                             54 	.globl _S0CON_ENCIF_0
                             55 	.globl _S0CON_ENCIF_1
                             56 	.globl _P1_7
                             57 	.globl _P1_6
                             58 	.globl _P1_5
                             59 	.globl _P1_4
                             60 	.globl _P1_3
                             61 	.globl _P1_2
                             62 	.globl _P1_1
                             63 	.globl _P1_0
                             64 	.globl _TCON_IT0
                             65 	.globl _TCON_RFERRIF
                             66 	.globl _TCON_IT1
                             67 	.globl _TCON_URX0IF
                             68 	.globl _TCON_ADCIF
                             69 	.globl _TCON_URX1IF
                             70 	.globl _P0_0
                             71 	.globl _P0_1
                             72 	.globl _P0_2
                             73 	.globl _P0_3
                             74 	.globl _P0_4
                             75 	.globl _P0_5
                             76 	.globl _P0_6
                             77 	.globl _P0_7
                             78 	.globl _P2DIR
                             79 	.globl _P1DIR
                             80 	.globl _P0DIR
                             81 	.globl _U1GCR
                             82 	.globl _U1UCR
                             83 	.globl _U1BAUD
                             84 	.globl _U1BUF
                             85 	.globl _U1CSR
                             86 	.globl _P2INP
                             87 	.globl _P1INP
                             88 	.globl _P2SEL
                             89 	.globl _P1SEL
                             90 	.globl _P0SEL
                             91 	.globl _ADCCFG
                             92 	.globl _PERCFG
                             93 	.globl _B
                             94 	.globl _T4CC1
                             95 	.globl _T4CCTL1
                             96 	.globl _T4CC0
                             97 	.globl _T4CCTL0
                             98 	.globl _T4CTL
                             99 	.globl _T4CNT
                            100 	.globl _RFIF
                            101 	.globl _IRCON2
                            102 	.globl _T1CCTL2
                            103 	.globl _T1CCTL1
                            104 	.globl _T1CCTL0
                            105 	.globl _T1CTL
                            106 	.globl _T1CNTH
                            107 	.globl _T1CNTL
                            108 	.globl _RFST
                            109 	.globl _ACC
                            110 	.globl _T1CC2H
                            111 	.globl _T1CC2L
                            112 	.globl _T1CC1H
                            113 	.globl _T1CC1L
                            114 	.globl _T1CC0H
                            115 	.globl _T1CC0L
                            116 	.globl _RFD
                            117 	.globl _TIMIF
                            118 	.globl _DMAREQ
                            119 	.globl _DMAARM
                            120 	.globl _DMA0CFGH
                            121 	.globl _DMA0CFGL
                            122 	.globl _DMA1CFGH
                            123 	.globl _DMA1CFGL
                            124 	.globl _DMAIRQ
                            125 	.globl _PSW
                            126 	.globl _T3CC1
                            127 	.globl _T3CCTL1
                            128 	.globl _T3CC0
                            129 	.globl _T3CCTL0
                            130 	.globl _T3CTL
                            131 	.globl _T3CNT
                            132 	.globl _WDCTL
                            133 	.globl _T2CON
                            134 	.globl _MEMCTR
                            135 	.globl _CLKCON
                            136 	.globl _U0GCR
                            137 	.globl _U0UCR
                            138 	.globl _T2CNF
                            139 	.globl _U0BAUD
                            140 	.globl _U0BUF
                            141 	.globl _IRCON
                            142 	.globl _SLEEP
                            143 	.globl _RNDH
                            144 	.globl _RNDL
                            145 	.globl _ADCH
                            146 	.globl _ADCL
                            147 	.globl _IP1
                            148 	.globl _IEN1
                            149 	.globl _RCCTL
                            150 	.globl _ADCCON3
                            151 	.globl _ADCCON2
                            152 	.globl _ADCCON1
                            153 	.globl _ENCCS
                            154 	.globl _ENCDO
                            155 	.globl _ENCDI
                            156 	.globl _FWDATA
                            157 	.globl _FCTL
                            158 	.globl _FADDRH
                            159 	.globl _FADDRL
                            160 	.globl _FWT
                            161 	.globl _IP0
                            162 	.globl _IEN0
                            163 	.globl _IE
                            164 	.globl _T2THD
                            165 	.globl _T2TLD
                            166 	.globl _T2CAPHPH
                            167 	.globl _T2CAPLPL
                            168 	.globl _T2OF2
                            169 	.globl _T2OF1
                            170 	.globl _T2OF0
                            171 	.globl _P2
                            172 	.globl _PSBANK
                            173 	.globl _FMAP
                            174 	.globl _T2PEROF2
                            175 	.globl _T2PEROF1
                            176 	.globl _T2PEROF0
                            177 	.globl _S1CON
                            178 	.globl _IEN2
                            179 	.globl _HSRC
                            180 	.globl _S0CON
                            181 	.globl _ST2
                            182 	.globl _ST1
                            183 	.globl _ST0
                            184 	.globl _T2CMP
                            185 	.globl __XPAGE
                            186 	.globl _DPS
                            187 	.globl _RFIM
                            188 	.globl _P1
                            189 	.globl _P0INP
                            190 	.globl _P1IEN
                            191 	.globl _PICTL
                            192 	.globl _P2IFG
                            193 	.globl _P1IFG
                            194 	.globl _P0IFG
                            195 	.globl _TCON
                            196 	.globl _PCON
                            197 	.globl _U0CSR
                            198 	.globl _DPH1
                            199 	.globl _DPL1
                            200 	.globl _DPH0
                            201 	.globl _DPL0
                            202 	.globl _SP
                            203 	.globl _P0
                            204 	.globl _phase_list
                            205 	.globl _ADC_SHADOW
                            206 	.globl _U1BUF_SHADOW
                            207 	.globl _RFD_SHADOW
                            208 	.globl _U0BUF_SHADOW
                            209 	.globl _RFSTATUS
                            210 	.globl _CHIPID
                            211 	.globl _CHVER
                            212 	.globl _FSMTC1
                            213 	.globl _RXFIFOCNT
                            214 	.globl _IOCFG3
                            215 	.globl _IOCFG2
                            216 	.globl _IOCFG1
                            217 	.globl _IOCFG0
                            218 	.globl _SHORTADDRL
                            219 	.globl _SHORTADDRH
                            220 	.globl _PANIDL
                            221 	.globl _PANIDH
                            222 	.globl _IEEE_ADDR7
                            223 	.globl _IEEE_ADDR6
                            224 	.globl _IEEE_ADDR5
                            225 	.globl _IEEE_ADDR4
                            226 	.globl _IEEE_ADDR3
                            227 	.globl _IEEE_ADDR2
                            228 	.globl _IEEE_ADDR1
                            229 	.globl _IEEE_ADDR0
                            230 	.globl _DACTSTL
                            231 	.globl _DACTSTH
                            232 	.globl _ADCTSTL
                            233 	.globl _ADCTSTH
                            234 	.globl _FSMSTATE
                            235 	.globl _AGCCTRLL
                            236 	.globl _AGCCTRLH
                            237 	.globl _MANORL
                            238 	.globl _MANORH
                            239 	.globl _MANANDL
                            240 	.globl _MANANDH
                            241 	.globl _FSMTCL
                            242 	.globl _FSMTCH
                            243 	.globl _RFPWR
                            244 	.globl _CSPT
                            245 	.globl _CSPCTRL
                            246 	.globl _CSPZ
                            247 	.globl _CSPY
                            248 	.globl _CSPX
                            249 	.globl _FSCTRLL
                            250 	.globl _FSCTRLH
                            251 	.globl _RXCTRL1L
                            252 	.globl _RXCTRL1H
                            253 	.globl _RXCTRL0L
                            254 	.globl _RXCTRL0H
                            255 	.globl _TXCTRLL
                            256 	.globl _TXCTRLH
                            257 	.globl _SYNCWORDL
                            258 	.globl _SYNCWORDH
                            259 	.globl _RSSIL
                            260 	.globl _RSSIH
                            261 	.globl _MDMCTRL1L
                            262 	.globl _MDMCTRL1H
                            263 	.globl _MDMCTRL0L
                            264 	.globl _MDMCTRL0H
                            265 ;--------------------------------------------------------
                            266 ; special function registers
                            267 ;--------------------------------------------------------
                            268 	.area RSEG    (ABS,DATA)
   0000                     269 	.org 0x0000
                    0080    270 _P0	=	0x0080
                    0081    271 _SP	=	0x0081
                    0082    272 _DPL0	=	0x0082
                    0083    273 _DPH0	=	0x0083
                    0084    274 _DPL1	=	0x0084
                    0085    275 _DPH1	=	0x0085
                    0086    276 _U0CSR	=	0x0086
                    0087    277 _PCON	=	0x0087
                    0088    278 _TCON	=	0x0088
                    0089    279 _P0IFG	=	0x0089
                    008A    280 _P1IFG	=	0x008a
                    008B    281 _P2IFG	=	0x008b
                    008C    282 _PICTL	=	0x008c
                    008D    283 _P1IEN	=	0x008d
                    008F    284 _P0INP	=	0x008f
                    0090    285 _P1	=	0x0090
                    0091    286 _RFIM	=	0x0091
                    0092    287 _DPS	=	0x0092
                    0093    288 __XPAGE	=	0x0093
                    0094    289 _T2CMP	=	0x0094
                    0095    290 _ST0	=	0x0095
                    0096    291 _ST1	=	0x0096
                    0097    292 _ST2	=	0x0097
                    0098    293 _S0CON	=	0x0098
                    0099    294 _HSRC	=	0x0099
                    009A    295 _IEN2	=	0x009a
                    009B    296 _S1CON	=	0x009b
                    009C    297 _T2PEROF0	=	0x009c
                    009D    298 _T2PEROF1	=	0x009d
                    009E    299 _T2PEROF2	=	0x009e
                    009F    300 _FMAP	=	0x009f
                    009F    301 _PSBANK	=	0x009f
                    00A0    302 _P2	=	0x00a0
                    00A1    303 _T2OF0	=	0x00a1
                    00A2    304 _T2OF1	=	0x00a2
                    00A3    305 _T2OF2	=	0x00a3
                    00A4    306 _T2CAPLPL	=	0x00a4
                    00A5    307 _T2CAPHPH	=	0x00a5
                    00A6    308 _T2TLD	=	0x00a6
                    00A7    309 _T2THD	=	0x00a7
                    00A8    310 _IE	=	0x00a8
                    00A8    311 _IEN0	=	0x00a8
                    00A9    312 _IP0	=	0x00a9
                    00AB    313 _FWT	=	0x00ab
                    00AC    314 _FADDRL	=	0x00ac
                    00AD    315 _FADDRH	=	0x00ad
                    00AE    316 _FCTL	=	0x00ae
                    00AF    317 _FWDATA	=	0x00af
                    00B1    318 _ENCDI	=	0x00b1
                    00B2    319 _ENCDO	=	0x00b2
                    00B3    320 _ENCCS	=	0x00b3
                    00B4    321 _ADCCON1	=	0x00b4
                    00B5    322 _ADCCON2	=	0x00b5
                    00B6    323 _ADCCON3	=	0x00b6
                    00B7    324 _RCCTL	=	0x00b7
                    00B8    325 _IEN1	=	0x00b8
                    00B9    326 _IP1	=	0x00b9
                    00BA    327 _ADCL	=	0x00ba
                    00BB    328 _ADCH	=	0x00bb
                    00BC    329 _RNDL	=	0x00bc
                    00BD    330 _RNDH	=	0x00bd
                    00BE    331 _SLEEP	=	0x00be
                    00C0    332 _IRCON	=	0x00c0
                    00C1    333 _U0BUF	=	0x00c1
                    00C2    334 _U0BAUD	=	0x00c2
                    00C3    335 _T2CNF	=	0x00c3
                    00C4    336 _U0UCR	=	0x00c4
                    00C5    337 _U0GCR	=	0x00c5
                    00C6    338 _CLKCON	=	0x00c6
                    00C7    339 _MEMCTR	=	0x00c7
                    00C8    340 _T2CON	=	0x00c8
                    00C9    341 _WDCTL	=	0x00c9
                    00CA    342 _T3CNT	=	0x00ca
                    00CB    343 _T3CTL	=	0x00cb
                    00CC    344 _T3CCTL0	=	0x00cc
                    00CD    345 _T3CC0	=	0x00cd
                    00CE    346 _T3CCTL1	=	0x00ce
                    00CF    347 _T3CC1	=	0x00cf
                    00D0    348 _PSW	=	0x00d0
                    00D1    349 _DMAIRQ	=	0x00d1
                    00D2    350 _DMA1CFGL	=	0x00d2
                    00D3    351 _DMA1CFGH	=	0x00d3
                    00D4    352 _DMA0CFGL	=	0x00d4
                    00D5    353 _DMA0CFGH	=	0x00d5
                    00D6    354 _DMAARM	=	0x00d6
                    00D7    355 _DMAREQ	=	0x00d7
                    00D8    356 _TIMIF	=	0x00d8
                    00D9    357 _RFD	=	0x00d9
                    00DA    358 _T1CC0L	=	0x00da
                    00DB    359 _T1CC0H	=	0x00db
                    00DC    360 _T1CC1L	=	0x00dc
                    00DD    361 _T1CC1H	=	0x00dd
                    00DE    362 _T1CC2L	=	0x00de
                    00DF    363 _T1CC2H	=	0x00df
                    00E0    364 _ACC	=	0x00e0
                    00E1    365 _RFST	=	0x00e1
                    00E2    366 _T1CNTL	=	0x00e2
                    00E3    367 _T1CNTH	=	0x00e3
                    00E4    368 _T1CTL	=	0x00e4
                    00E5    369 _T1CCTL0	=	0x00e5
                    00E6    370 _T1CCTL1	=	0x00e6
                    00E7    371 _T1CCTL2	=	0x00e7
                    00E8    372 _IRCON2	=	0x00e8
                    00E9    373 _RFIF	=	0x00e9
                    00EA    374 _T4CNT	=	0x00ea
                    00EB    375 _T4CTL	=	0x00eb
                    00EC    376 _T4CCTL0	=	0x00ec
                    00ED    377 _T4CC0	=	0x00ed
                    00EE    378 _T4CCTL1	=	0x00ee
                    00EF    379 _T4CC1	=	0x00ef
                    00F0    380 _B	=	0x00f0
                    00F1    381 _PERCFG	=	0x00f1
                    00F2    382 _ADCCFG	=	0x00f2
                    00F3    383 _P0SEL	=	0x00f3
                    00F4    384 _P1SEL	=	0x00f4
                    00F5    385 _P2SEL	=	0x00f5
                    00F6    386 _P1INP	=	0x00f6
                    00F7    387 _P2INP	=	0x00f7
                    00F8    388 _U1CSR	=	0x00f8
                    00F9    389 _U1BUF	=	0x00f9
                    00FA    390 _U1BAUD	=	0x00fa
                    00FB    391 _U1UCR	=	0x00fb
                    00FC    392 _U1GCR	=	0x00fc
                    00FD    393 _P0DIR	=	0x00fd
                    00FE    394 _P1DIR	=	0x00fe
                    00FF    395 _P2DIR	=	0x00ff
                            396 ;--------------------------------------------------------
                            397 ; special function bits
                            398 ;--------------------------------------------------------
                            399 	.area RSEG    (ABS,DATA)
   0000                     400 	.org 0x0000
                    0087    401 _P0_7	=	0x0087
                    0086    402 _P0_6	=	0x0086
                    0085    403 _P0_5	=	0x0085
                    0084    404 _P0_4	=	0x0084
                    0083    405 _P0_3	=	0x0083
                    0082    406 _P0_2	=	0x0082
                    0081    407 _P0_1	=	0x0081
                    0080    408 _P0_0	=	0x0080
                    008F    409 _TCON_URX1IF	=	0x008f
                    008D    410 _TCON_ADCIF	=	0x008d
                    008B    411 _TCON_URX0IF	=	0x008b
                    008A    412 _TCON_IT1	=	0x008a
                    0089    413 _TCON_RFERRIF	=	0x0089
                    0088    414 _TCON_IT0	=	0x0088
                    0090    415 _P1_0	=	0x0090
                    0091    416 _P1_1	=	0x0091
                    0092    417 _P1_2	=	0x0092
                    0093    418 _P1_3	=	0x0093
                    0094    419 _P1_4	=	0x0094
                    0095    420 _P1_5	=	0x0095
                    0096    421 _P1_6	=	0x0096
                    0097    422 _P1_7	=	0x0097
                    0099    423 _S0CON_ENCIF_1	=	0x0099
                    0098    424 _S0CON_ENCIF_0	=	0x0098
                    00A0    425 _P2_0	=	0x00a0
                    00A1    426 _P2_1	=	0x00a1
                    00A2    427 _P2_2	=	0x00a2
                    00A3    428 _P2_3	=	0x00a3
                    00A4    429 _P2_4	=	0x00a4
                    00AF    430 _EA	=	0x00af
                    00AF    431 _IEN0_EA	=	0x00af
                    00AD    432 _IEN0_STIE	=	0x00ad
                    00AC    433 _IEN0_ENCIE	=	0x00ac
                    00AB    434 _IEN0_URX1IE	=	0x00ab
                    00AA    435 _IEN0_URX0IE	=	0x00aa
                    00A9    436 _IEN0_ADCIE	=	0x00a9
                    00A8    437 _IEN0_RFERRIE	=	0x00a8
                    00BD    438 _IEN1_P0IE	=	0x00bd
                    00BC    439 _IEN1_T4IE	=	0x00bc
                    00BB    440 _IEN1_T3IE	=	0x00bb
                    00BA    441 _IEN1_T2IE	=	0x00ba
                    00B9    442 _IEN1_T1IE	=	0x00b9
                    00B8    443 _IEN1_DMAIE	=	0x00b8
                    00C7    444 _IRCON_STIF	=	0x00c7
                    00C5    445 _IRCON_P0IF	=	0x00c5
                    00C4    446 _IRCON_T4IF	=	0x00c4
                    00C3    447 _IRCON_T3IF	=	0x00c3
                    00C2    448 _IRCON_T2IF	=	0x00c2
                    00C1    449 _IRCON_T1IF	=	0x00c1
                    00C0    450 _IRCON_DMAIF	=	0x00c0
                    00D0    451 _P	=	0x00d0
                    00D1    452 _F1	=	0x00d1
                    00D2    453 _OV	=	0x00d2
                    00D3    454 _RS0	=	0x00d3
                    00D4    455 _RS1	=	0x00d4
                    00D5    456 _F0	=	0x00d5
                    00D6    457 _AC	=	0x00d6
                    00D7    458 _CY	=	0x00d7
                    00EC    459 _IRCON2_WDTIF	=	0x00ec
                    00EB    460 _IRCON2_P1IF	=	0x00eb
                    00EA    461 _IRCON2_UTX1IF	=	0x00ea
                    00E9    462 _IRCON2_UTX0IF	=	0x00e9
                    00E8    463 _IRCON2_P2IF	=	0x00e8
                            464 ;--------------------------------------------------------
                            465 ; overlayable register banks
                            466 ;--------------------------------------------------------
                            467 	.area REG_BANK_0	(REL,OVR,DATA)
   0000                     468 	.ds 8
                            469 ;--------------------------------------------------------
                            470 ; internal ram data
                            471 ;--------------------------------------------------------
                            472 	.area DSEG    (DATA)
                            473 ;--------------------------------------------------------
                            474 ; overlayable items in internal ram 
                            475 ;--------------------------------------------------------
                            476 	.area OSEG    (OVR,DATA)
                            477 ;--------------------------------------------------------
                            478 ; indirectly addressable internal ram data
                            479 ;--------------------------------------------------------
                            480 	.area ISEG    (DATA)
                            481 ;--------------------------------------------------------
                            482 ; absolute internal ram data
                            483 ;--------------------------------------------------------
                            484 	.area IABS    (ABS,DATA)
                            485 	.area IABS    (ABS,DATA)
                            486 ;--------------------------------------------------------
                            487 ; bit data
                            488 ;--------------------------------------------------------
                            489 	.area BSEG    (BIT)
                            490 ;--------------------------------------------------------
                            491 ; paged external ram data
                            492 ;--------------------------------------------------------
                            493 	.area PSEG    (PAG,XDATA)
                            494 ;--------------------------------------------------------
                            495 ; external ram data
                            496 ;--------------------------------------------------------
                            497 	.area XSEG    (XDATA)
                    DF02    498 _MDMCTRL0H	=	0xdf02
                    DF03    499 _MDMCTRL0L	=	0xdf03
                    DF04    500 _MDMCTRL1H	=	0xdf04
                    DF05    501 _MDMCTRL1L	=	0xdf05
                    DF06    502 _RSSIH	=	0xdf06
                    DF07    503 _RSSIL	=	0xdf07
                    DF08    504 _SYNCWORDH	=	0xdf08
                    DF09    505 _SYNCWORDL	=	0xdf09
                    DF0A    506 _TXCTRLH	=	0xdf0a
                    DF0B    507 _TXCTRLL	=	0xdf0b
                    DF0C    508 _RXCTRL0H	=	0xdf0c
                    DF0D    509 _RXCTRL0L	=	0xdf0d
                    DF0E    510 _RXCTRL1H	=	0xdf0e
                    DF0F    511 _RXCTRL1L	=	0xdf0f
                    DF10    512 _FSCTRLH	=	0xdf10
                    DF11    513 _FSCTRLL	=	0xdf11
                    DF12    514 _CSPX	=	0xdf12
                    DF13    515 _CSPY	=	0xdf13
                    DF14    516 _CSPZ	=	0xdf14
                    DF15    517 _CSPCTRL	=	0xdf15
                    DF16    518 _CSPT	=	0xdf16
                    DF17    519 _RFPWR	=	0xdf17
                    DF20    520 _FSMTCH	=	0xdf20
                    DF21    521 _FSMTCL	=	0xdf21
                    DF22    522 _MANANDH	=	0xdf22
                    DF23    523 _MANANDL	=	0xdf23
                    DF24    524 _MANORH	=	0xdf24
                    DF25    525 _MANORL	=	0xdf25
                    DF26    526 _AGCCTRLH	=	0xdf26
                    DF27    527 _AGCCTRLL	=	0xdf27
                    DF39    528 _FSMSTATE	=	0xdf39
                    DF3A    529 _ADCTSTH	=	0xdf3a
                    DF3B    530 _ADCTSTL	=	0xdf3b
                    DF3C    531 _DACTSTH	=	0xdf3c
                    DF3D    532 _DACTSTL	=	0xdf3d
                    DF43    533 _IEEE_ADDR0	=	0xdf43
                    DF44    534 _IEEE_ADDR1	=	0xdf44
                    DF45    535 _IEEE_ADDR2	=	0xdf45
                    DF46    536 _IEEE_ADDR3	=	0xdf46
                    DF47    537 _IEEE_ADDR4	=	0xdf47
                    DF48    538 _IEEE_ADDR5	=	0xdf48
                    DF49    539 _IEEE_ADDR6	=	0xdf49
                    DF4A    540 _IEEE_ADDR7	=	0xdf4a
                    DF4B    541 _PANIDH	=	0xdf4b
                    DF4C    542 _PANIDL	=	0xdf4c
                    DF4D    543 _SHORTADDRH	=	0xdf4d
                    DF4E    544 _SHORTADDRL	=	0xdf4e
                    DF4F    545 _IOCFG0	=	0xdf4f
                    DF50    546 _IOCFG1	=	0xdf50
                    DF51    547 _IOCFG2	=	0xdf51
                    DF52    548 _IOCFG3	=	0xdf52
                    DF53    549 _RXFIFOCNT	=	0xdf53
                    DF54    550 _FSMTC1	=	0xdf54
                    DF60    551 _CHVER	=	0xdf60
                    DF61    552 _CHIPID	=	0xdf61
                    DF62    553 _RFSTATUS	=	0xdf62
                    DFC1    554 _U0BUF_SHADOW	=	0xdfc1
                    DFD9    555 _RFD_SHADOW	=	0xdfd9
                    DFF9    556 _U1BUF_SHADOW	=	0xdff9
                    DFBA    557 _ADC_SHADOW	=	0xdfba
   0000                     558 _rt:
   0000                     559 	.ds 7
   0007                     560 _pt:
   0007                     561 	.ds 2
   0009                     562 _is_snooping:
   0009                     563 	.ds 1
   000A                     564 _phase_list_memb_memb_count:
   000A                     565 	.ds 30
   0028                     566 _phase_list_memb_memb_mem:
   0028                     567 	.ds 360
   0190                     568 _is_streaming:
   0190                     569 	.ds 1
   0191                     570 _is_streaming_to:
   0191                     571 	.ds 2
   0193                     572 _is_streaming_to_too:
   0193                     573 	.ds 2
   0195                     574 _stream_until:
   0195                     575 	.ds 2
   0197                     576 _received_seqnos:
   0197                     577 	.ds 24
   01AF                     578 _cycle_start:
   01AF                     579 	.ds 2
   01B1                     580 _powercycle_packet_seen_4_4:
   01B1                     581 	.ds 1
   01B2                     582 _powercycle_t0_4_4:
   01B2                     583 	.ds 2
   01B4                     584 _powercycle_count_4_4:
   01B4                     585 	.ds 1
   01B5                     586 _powercycle_start_6_13:
   01B5                     587 	.ds 2
   01B7                     588 _powercycle_silence_periods_6_13:
   01B7                     589 	.ds 1
   01B8                     590 _powercycle_periods_6_13:
   01B8                     591 	.ds 1
   01B9                     592 _contikimac_debug_print_one_cycle_start_1_1:
   01B9                     593 	.ds 2
                            594 ;--------------------------------------------------------
                            595 ; absolute external ram data
                            596 ;--------------------------------------------------------
                            597 	.area XABS    (ABS,XDATA)
                            598 ;--------------------------------------------------------
                            599 ; external initialized ram data
                            600 ;--------------------------------------------------------
                            601 	.area XISEG   (XDATA)
   0000                     602 _contikimac_is_on:
   0000                     603 	.ds 1
   0001                     604 _we_are_sending:
   0001                     605 	.ds 1
   0002                     606 _radio_is_on:
   0002                     607 	.ds 1
   0003                     608 _phase_list_list_list:
   0003                     609 	.ds 3
   0006                     610 _phase_list_list:
   0006                     611 	.ds 3
   0009                     612 _phase_list_memb:
   0009                     613 	.ds 10
   0013                     614 _phase_list::
   0013                     615 	.ds 6
                            616 	.area HOME    (CODE)
                            617 	.area GSINIT0 (CODE)
                            618 	.area GSINIT1 (CODE)
                            619 	.area GSINIT2 (CODE)
                            620 	.area GSINIT3 (CODE)
                            621 	.area GSINIT4 (CODE)
                            622 	.area GSINIT5 (CODE)
                            623 	.area GSINIT  (CODE)
                            624 	.area GSFINAL (CODE)
                            625 	.area CSEG    (CODE)
                            626 ;--------------------------------------------------------
                            627 ; global & static initialisations
                            628 ;--------------------------------------------------------
                            629 	.area HOME    (CODE)
                            630 	.area GSINIT  (CODE)
                            631 	.area GSFINAL (CODE)
                            632 	.area GSINIT  (CODE)
                            633 ;--------------------------------------------------------
                            634 ; Home
                            635 ;--------------------------------------------------------
                            636 	.area HOME    (CODE)
                            637 	.area HOME    (CODE)
                            638 ;--------------------------------------------------------
                            639 ; code
                            640 ;--------------------------------------------------------
                            641 	.area CSEG    (CODE)
                            642 ;------------------------------------------------------------
                            643 ;Allocation info for local variables in function 'on'
                            644 ;------------------------------------------------------------
                            645 ;------------------------------------------------------------
                            646 ;	../../../core/net/mac/contikimac.c:233: on(void)
                            647 ;	-----------------------------------------
                            648 ;	 function on
                            649 ;	-----------------------------------------
   0000                     650 _on:
                    0002    651 	ar2 = 0x02
                    0003    652 	ar3 = 0x03
                    0004    653 	ar4 = 0x04
                    0005    654 	ar5 = 0x05
                    0006    655 	ar6 = 0x06
                    0007    656 	ar7 = 0x07
                    0000    657 	ar0 = 0x00
                    0001    658 	ar1 = 0x01
                            659 ;	../../../core/net/mac/contikimac.c:235: if(contikimac_is_on && radio_is_on == 0) {
   0000 90s00r00            660 	mov	dptr,#_contikimac_is_on
   0003 E0                  661 	movx	a,@dptr
   0004 FA                  662 	mov	r2,a
   0005 60 26               663 	jz	00104$
   0007 90s00r02            664 	mov	dptr,#_radio_is_on
   000A E0                  665 	movx	a,@dptr
   000B FA                  666 	mov	r2,a
   000C 70 1F               667 	jnz	00104$
                            668 ;	../../../core/net/mac/contikimac.c:236: radio_is_on = 1;
   000E 90s00r02            669 	mov	dptr,#_radio_is_on
   0011 74 01               670 	mov	a,#0x01
   0013 F0                  671 	movx	@dptr,a
                            672 ;	../../../core/net/mac/contikimac.c:237: NETSTACK_RADIO.on();
   0014 90s00r10            673 	mov	dptr,#(_cc2430_rf_driver + 0x0010)
   0017 E4                  674 	clr	a
   0018 93                  675 	movc	a,@a+dptr
   0019 FA                  676 	mov	r2,a
   001A A3                  677 	inc	dptr
   001B E4                  678 	clr	a
   001C 93                  679 	movc	a,@a+dptr
   001D FB                  680 	mov	r3,a
   001E C0 02               681 	push	ar2
   0020 C0 03               682 	push	ar3
   0022 8A 82               683 	mov	dpl,r2
   0024 8B 83               684 	mov	dph,r3
   0026 12s00r00            685 	lcall	__sdcc_call_dptr
   0029 D0 03               686 	pop	ar3
   002B D0 02               687 	pop	ar2
   002D                     688 00104$:
   002D 22                  689 	ret
                            690 ;------------------------------------------------------------
                            691 ;Allocation info for local variables in function 'off'
                            692 ;------------------------------------------------------------
                            693 ;------------------------------------------------------------
                            694 ;	../../../core/net/mac/contikimac.c:242: off(void)
                            695 ;	-----------------------------------------
                            696 ;	 function off
                            697 ;	-----------------------------------------
   002E                     698 _off:
                            699 ;	../../../core/net/mac/contikimac.c:244: if(contikimac_is_on && radio_is_on != 0 && is_streaming == 0/* && is_snooping == 0*/) {
   002E 90s00r00            700 	mov	dptr,#_contikimac_is_on
   0031 E0                  701 	movx	a,@dptr
   0032 FA                  702 	mov	r2,a
   0033 60 2C               703 	jz	00105$
   0035 90s00r02            704 	mov	dptr,#_radio_is_on
   0038 E0                  705 	movx	a,@dptr
   0039 FA                  706 	mov	r2,a
   003A 60 25               707 	jz	00105$
   003C 90s01r90            708 	mov	dptr,#_is_streaming
   003F E0                  709 	movx	a,@dptr
   0040 FA                  710 	mov	r2,a
   0041 70 1E               711 	jnz	00105$
                            712 ;	../../../core/net/mac/contikimac.c:245: radio_is_on = 0;
   0043 90s00r02            713 	mov	dptr,#_radio_is_on
   0046 E4                  714 	clr	a
   0047 F0                  715 	movx	@dptr,a
                            716 ;	../../../core/net/mac/contikimac.c:246: NETSTACK_RADIO.off();
   0048 90s00r12            717 	mov	dptr,#(_cc2430_rf_driver + 0x0012)
   004B E4                  718 	clr	a
   004C 93                  719 	movc	a,@a+dptr
   004D FA                  720 	mov	r2,a
   004E A3                  721 	inc	dptr
   004F E4                  722 	clr	a
   0050 93                  723 	movc	a,@a+dptr
   0051 FB                  724 	mov	r3,a
   0052 C0 02               725 	push	ar2
   0054 C0 03               726 	push	ar3
   0056 8A 82               727 	mov	dpl,r2
   0058 8B 83               728 	mov	dph,r3
   005A 12s00r00            729 	lcall	__sdcc_call_dptr
   005D D0 03               730 	pop	ar3
   005F D0 02               731 	pop	ar2
   0061                     732 00105$:
   0061 22                  733 	ret
                            734 ;------------------------------------------------------------
                            735 ;Allocation info for local variables in function 'schedule_powercycle'
                            736 ;------------------------------------------------------------
                            737 ;time                      Allocated to stack - offset -4
                            738 ;t                         Allocated to registers r2 r3 r4 
                            739 ;r                         Allocated to registers r2 r3 
                            740 ;sloc0                     Allocated to stack - offset 1
                            741 ;------------------------------------------------------------
                            742 ;	../../../core/net/mac/contikimac.c:253: schedule_powercycle(struct rtimer *t, rtimer_clock_t time)
                            743 ;	-----------------------------------------
                            744 ;	 function schedule_powercycle
                            745 ;	-----------------------------------------
   0062                     746 _schedule_powercycle:
   0062 C0*00               747 	push	_bp
   0064 85 81*00            748 	mov	_bp,sp
   0067 05 81               749 	inc	sp
   0069 05 81               750 	inc	sp
   006B AA 82               751 	mov	r2,dpl
   006D AB 83               752 	mov	r3,dph
   006F AC F0               753 	mov	r4,b
                            754 ;	../../../core/net/mac/contikimac.c:257: if(contikimac_is_on) {
   0071 90s00r00            755 	mov	dptr,#_contikimac_is_on
   0074 E0                  756 	movx	a,@dptr
   0075 FD                  757 	mov	r5,a
   0076 70 03               758 	jnz	00112$
   0078 02s01r48            759 	ljmp	00107$
   007B                     760 00112$:
                            761 ;	../../../core/net/mac/contikimac.c:259: if(RTIMER_CLOCK_LT(RTIMER_TIME(t) + time, RTIMER_NOW() + 2)) {
   007B 8A 82               762 	mov	dpl,r2
   007D 8B 83               763 	mov	dph,r3
   007F 8C F0               764 	mov	b,r4
   0081 12s00r00            765 	lcall	__gptrget
   0084 FD                  766 	mov	r5,a
   0085 A3                  767 	inc	dptr
   0086 12s00r00            768 	lcall	__gptrget
   0089 FE                  769 	mov	r6,a
   008A C0 02               770 	push	ar2
   008C C0 03               771 	push	ar3
   008E C0 04               772 	push	ar4
   0090 E5*00               773 	mov	a,_bp
   0092 24 FC               774 	add	a,#0xfc
   0094 F8                  775 	mov	r0,a
   0095 E6                  776 	mov	a,@r0
   0096 2D                  777 	add	a,r5
   0097 FF                  778 	mov	r7,a
   0098 08                  779 	inc	r0
   0099 E6                  780 	mov	a,@r0
   009A 3E                  781 	addc	a,r6
   009B FA                  782 	mov	r2,a
   009C A8*00               783 	mov	r0,_bp
   009E 08                  784 	inc	r0
   009F A6 E2               785 	mov	@r0,_T1CNTL
   00A1 08                  786 	inc	r0
   00A2 76 00               787 	mov	@r0,#0x00
   00A4 AC E3               788 	mov	r4,_T1CNTH
   00A6 7B 00               789 	mov	r3,#0x00
   00A8 A8*00               790 	mov	r0,_bp
   00AA 08                  791 	inc	r0
   00AB EB                  792 	mov	a,r3
   00AC 26                  793 	add	a,@r0
   00AD FB                  794 	mov	r3,a
   00AE EC                  795 	mov	a,r4
   00AF 08                  796 	inc	r0
   00B0 36                  797 	addc	a,@r0
   00B1 FC                  798 	mov	r4,a
   00B2 74 02               799 	mov	a,#0x02
   00B4 2B                  800 	add	a,r3
   00B5 FB                  801 	mov	r3,a
   00B6 E4                  802 	clr	a
   00B7 3C                  803 	addc	a,r4
   00B8 FC                  804 	mov	r4,a
   00B9 EF                  805 	mov	a,r7
   00BA C3                  806 	clr	c
   00BB 9B                  807 	subb	a,r3
   00BC FF                  808 	mov	r7,a
   00BD EA                  809 	mov	a,r2
   00BE 9C                  810 	subb	a,r4
   00BF D0 04               811 	pop	ar4
   00C1 D0 03               812 	pop	ar3
   00C3 D0 02               813 	pop	ar2
   00C5 30 E7 2E            814 	jnb	acc.7,00102$
                            815 ;	../../../core/net/mac/contikimac.c:260: time = RTIMER_NOW() - RTIMER_TIME(t) + 2;
   00C8 C0 02               816 	push	ar2
   00CA C0 03               817 	push	ar3
   00CC C0 04               818 	push	ar4
   00CE AF E2               819 	mov	r7,_T1CNTL
   00D0 7A 00               820 	mov	r2,#0x00
   00D2 AC E3               821 	mov	r4,_T1CNTH
   00D4 7B 00               822 	mov	r3,#0x00
   00D6 EB                  823 	mov	a,r3
   00D7 2F                  824 	add	a,r7
   00D8 FF                  825 	mov	r7,a
   00D9 EC                  826 	mov	a,r4
   00DA 3A                  827 	addc	a,r2
   00DB FA                  828 	mov	r2,a
   00DC EF                  829 	mov	a,r7
   00DD C3                  830 	clr	c
   00DE 9D                  831 	subb	a,r5
   00DF FF                  832 	mov	r7,a
   00E0 EA                  833 	mov	a,r2
   00E1 9E                  834 	subb	a,r6
   00E2 FA                  835 	mov	r2,a
   00E3 E5*00               836 	mov	a,_bp
   00E5 24 FC               837 	add	a,#0xfc
   00E7 F8                  838 	mov	r0,a
   00E8 74 02               839 	mov	a,#0x02
   00EA 2F                  840 	add	a,r7
   00EB F6                  841 	mov	@r0,a
   00EC E4                  842 	clr	a
   00ED 3A                  843 	addc	a,r2
   00EE 08                  844 	inc	r0
   00EF F6                  845 	mov	@r0,a
                            846 ;	../../../core/net/mac/contikimac.c:270: printf("schedule_powercycle: could not set rtimer\n");
   00F0 D0 04               847 	pop	ar4
   00F2 D0 03               848 	pop	ar3
   00F4 D0 02               849 	pop	ar2
                            850 ;	../../../core/net/mac/contikimac.c:260: time = RTIMER_NOW() - RTIMER_TIME(t) + 2;
   00F6                     851 00102$:
                            852 ;	../../../core/net/mac/contikimac.c:266: r = rtimer_set(t, RTIMER_TIME(t) + time, 1,
   00F6 E5*00               853 	mov	a,_bp
   00F8 24 FC               854 	add	a,#0xfc
   00FA F8                  855 	mov	r0,a
   00FB E6                  856 	mov	a,@r0
   00FC 2D                  857 	add	a,r5
   00FD FD                  858 	mov	r5,a
   00FE 08                  859 	inc	r0
   00FF E6                  860 	mov	a,@r0
   0100 3E                  861 	addc	a,r6
   0101 FE                  862 	mov	r6,a
   0102 E4                  863 	clr	a
   0103 C0 E0               864 	push	acc
   0105 C0 E0               865 	push	acc
   0107 C0 E0               866 	push	acc
   0109 74r20               867 	mov	a,#_powercycle
   010B C0 E0               868 	push	acc
   010D 74s02               869 	mov	a,#(_powercycle >> 8)
   010F C0 E0               870 	push	acc
   0111 74 01               871 	mov	a,#0x01
   0113 C0 E0               872 	push	acc
   0115 E4                  873 	clr	a
   0116 C0 E0               874 	push	acc
   0118 C0 05               875 	push	ar5
   011A C0 06               876 	push	ar6
   011C 8A 82               877 	mov	dpl,r2
   011E 8B 83               878 	mov	dph,r3
   0120 8C F0               879 	mov	b,r4
   0122 12s00r00            880 	lcall	_rtimer_set
   0125 AA 82               881 	mov	r2,dpl
   0127 AB 83               882 	mov	r3,dph
   0129 E5 81               883 	mov	a,sp
   012B 24 F7               884 	add	a,#0xf7
   012D F5 81               885 	mov	sp,a
                            886 ;	../../../core/net/mac/contikimac.c:269: if(r != RTIMER_OK) {
   012F EA                  887 	mov	a,r2
   0130 4B                  888 	orl	a,r3
   0131 60 15               889 	jz	00107$
                            890 ;	../../../core/net/mac/contikimac.c:270: printf("schedule_powercycle: could not set rtimer\n");
   0133 74r00               891 	mov	a,#__str_0
   0135 C0 E0               892 	push	acc
   0137 74s00               893 	mov	a,#(__str_0 >> 8)
   0139 C0 E0               894 	push	acc
   013B 74 80               895 	mov	a,#0x80
   013D C0 E0               896 	push	acc
   013F 12s00r00            897 	lcall	_printf
   0142 15 81               898 	dec	sp
   0144 15 81               899 	dec	sp
   0146 15 81               900 	dec	sp
   0148                     901 00107$:
   0148 85*00 81            902 	mov	sp,_bp
   014B D0*00               903 	pop	_bp
   014D 22                  904 	ret
                            905 ;------------------------------------------------------------
                            906 ;Allocation info for local variables in function 'schedule_powercycle_fixed'
                            907 ;------------------------------------------------------------
                            908 ;fixed_time                Allocated to stack - offset -4
                            909 ;t                         Allocated to registers r2 r3 r4 
                            910 ;r                         Allocated to registers r2 r3 
                            911 ;------------------------------------------------------------
                            912 ;	../../../core/net/mac/contikimac.c:275: schedule_powercycle_fixed(struct rtimer *t, rtimer_clock_t fixed_time)
                            913 ;	-----------------------------------------
                            914 ;	 function schedule_powercycle_fixed
                            915 ;	-----------------------------------------
   014E                     916 _schedule_powercycle_fixed:
   014E C0*00               917 	push	_bp
   0150 85 81*00            918 	mov	_bp,sp
   0153 AA 82               919 	mov	r2,dpl
   0155 AB 83               920 	mov	r3,dph
   0157 AC F0               921 	mov	r4,b
                            922 ;	../../../core/net/mac/contikimac.c:279: if(contikimac_is_on) {
   0159 90s00r00            923 	mov	dptr,#_contikimac_is_on
   015C E0                  924 	movx	a,@dptr
   015D FD                  925 	mov	r5,a
   015E 70 03               926 	jnz	00112$
   0160 02s02r07            927 	ljmp	00107$
   0163                     928 00112$:
                            929 ;	../../../core/net/mac/contikimac.c:281: if(RTIMER_CLOCK_LT(fixed_time, RTIMER_NOW() + 1)) {
   0163 C0 02               930 	push	ar2
   0165 C0 03               931 	push	ar3
   0167 C0 04               932 	push	ar4
   0169 AD E2               933 	mov	r5,_T1CNTL
   016B 7E 00               934 	mov	r6,#0x00
   016D AA E3               935 	mov	r2,_T1CNTH
   016F 7F 00               936 	mov	r7,#0x00
   0171 EF                  937 	mov	a,r7
   0172 2D                  938 	add	a,r5
   0173 FD                  939 	mov	r5,a
   0174 EA                  940 	mov	a,r2
   0175 3E                  941 	addc	a,r6
   0176 FE                  942 	mov	r6,a
   0177 0D                  943 	inc	r5
   0178 BD 00 01            944 	cjne	r5,#0x00,00113$
   017B 0E                  945 	inc	r6
   017C                     946 00113$:
   017C E5*00               947 	mov	a,_bp
   017E 24 FC               948 	add	a,#0xfc
   0180 F8                  949 	mov	r0,a
   0181 E6                  950 	mov	a,@r0
   0182 C3                  951 	clr	c
   0183 9D                  952 	subb	a,r5
   0184 FD                  953 	mov	r5,a
   0185 08                  954 	inc	r0
   0186 E6                  955 	mov	a,@r0
   0187 9E                  956 	subb	a,r6
   0188 FE                  957 	mov	r6,a
   0189 D0 04               958 	pop	ar4
   018B D0 03               959 	pop	ar3
   018D D0 02               960 	pop	ar2
   018F 30 E7 27            961 	jnb	acc.7,00102$
                            962 ;	../../../core/net/mac/contikimac.c:282: fixed_time = RTIMER_NOW() + 1;
   0192 C0 02               963 	push	ar2
   0194 C0 03               964 	push	ar3
   0196 C0 04               965 	push	ar4
   0198 AD E2               966 	mov	r5,_T1CNTL
   019A 7E 00               967 	mov	r6,#0x00
   019C AA E3               968 	mov	r2,_T1CNTH
   019E 7F 00               969 	mov	r7,#0x00
   01A0 EF                  970 	mov	a,r7
   01A1 2D                  971 	add	a,r5
   01A2 FD                  972 	mov	r5,a
   01A3 EA                  973 	mov	a,r2
   01A4 3E                  974 	addc	a,r6
   01A5 FE                  975 	mov	r6,a
   01A6 E5*00               976 	mov	a,_bp
   01A8 24 FC               977 	add	a,#0xfc
   01AA F8                  978 	mov	r0,a
   01AB 74 01               979 	mov	a,#0x01
   01AD 2D                  980 	add	a,r5
   01AE F6                  981 	mov	@r0,a
   01AF E4                  982 	clr	a
   01B0 3E                  983 	addc	a,r6
   01B1 08                  984 	inc	r0
   01B2 F6                  985 	mov	@r0,a
                            986 ;	../../../core/net/mac/contikimac.c:292: printf("schedule_powercycle: could not set rtimer\n");
   01B3 D0 04               987 	pop	ar4
   01B5 D0 03               988 	pop	ar3
   01B7 D0 02               989 	pop	ar2
                            990 ;	../../../core/net/mac/contikimac.c:282: fixed_time = RTIMER_NOW() + 1;
   01B9                     991 00102$:
                            992 ;	../../../core/net/mac/contikimac.c:288: r = rtimer_set(t, fixed_time, 1,
   01B9 E4                  993 	clr	a
   01BA C0 E0               994 	push	acc
   01BC C0 E0               995 	push	acc
   01BE C0 E0               996 	push	acc
   01C0 74r20               997 	mov	a,#_powercycle
   01C2 C0 E0               998 	push	acc
   01C4 74s02               999 	mov	a,#(_powercycle >> 8)
   01C6 C0 E0              1000 	push	acc
   01C8 74 01              1001 	mov	a,#0x01
   01CA C0 E0              1002 	push	acc
   01CC E4                 1003 	clr	a
   01CD C0 E0              1004 	push	acc
   01CF E5*00              1005 	mov	a,_bp
   01D1 24 FC              1006 	add	a,#0xfc
   01D3 F8                 1007 	mov	r0,a
   01D4 E6                 1008 	mov	a,@r0
   01D5 C0 E0              1009 	push	acc
   01D7 08                 1010 	inc	r0
   01D8 E6                 1011 	mov	a,@r0
   01D9 C0 E0              1012 	push	acc
   01DB 8A 82              1013 	mov	dpl,r2
   01DD 8B 83              1014 	mov	dph,r3
   01DF 8C F0              1015 	mov	b,r4
   01E1 12s00r00           1016 	lcall	_rtimer_set
   01E4 AA 82              1017 	mov	r2,dpl
   01E6 AB 83              1018 	mov	r3,dph
   01E8 E5 81              1019 	mov	a,sp
   01EA 24 F7              1020 	add	a,#0xf7
   01EC F5 81              1021 	mov	sp,a
                           1022 ;	../../../core/net/mac/contikimac.c:291: if(r != RTIMER_OK) {
   01EE EA                 1023 	mov	a,r2
   01EF 4B                 1024 	orl	a,r3
   01F0 60 15              1025 	jz	00107$
                           1026 ;	../../../core/net/mac/contikimac.c:292: printf("schedule_powercycle: could not set rtimer\n");
   01F2 74r00              1027 	mov	a,#__str_0
   01F4 C0 E0              1028 	push	acc
   01F6 74s00              1029 	mov	a,#(__str_0 >> 8)
   01F8 C0 E0              1030 	push	acc
   01FA 74 80              1031 	mov	a,#0x80
   01FC C0 E0              1032 	push	acc
   01FE 12s00r00           1033 	lcall	_printf
   0201 15 81              1034 	dec	sp
   0203 15 81              1035 	dec	sp
   0205 15 81              1036 	dec	sp
   0207                    1037 00107$:
   0207 D0*00              1038 	pop	_bp
   0209 22                 1039 	ret
                           1040 ;------------------------------------------------------------
                           1041 ;Allocation info for local variables in function 'powercycle_turn_radio_off'
                           1042 ;------------------------------------------------------------
                           1043 ;------------------------------------------------------------
                           1044 ;	../../../core/net/mac/contikimac.c:297: powercycle_turn_radio_off(void)
                           1045 ;	-----------------------------------------
                           1046 ;	 function powercycle_turn_radio_off
                           1047 ;	-----------------------------------------
   020A                    1048 _powercycle_turn_radio_off:
                           1049 ;	../../../core/net/mac/contikimac.c:299: if(we_are_sending == 0) {
   020A 90s00r01           1050 	mov	dptr,#_we_are_sending
   020D E0                 1051 	movx	a,@dptr
   020E FA                 1052 	mov	r2,a
   020F 70 03              1053 	jnz	00103$
                           1054 ;	../../../core/net/mac/contikimac.c:300: off();
   0211 02s00r2E           1055 	ljmp	_off
   0214                    1056 00103$:
   0214 22                 1057 	ret
                           1058 ;------------------------------------------------------------
                           1059 ;Allocation info for local variables in function 'powercycle_turn_radio_on'
                           1060 ;------------------------------------------------------------
                           1061 ;------------------------------------------------------------
                           1062 ;	../../../core/net/mac/contikimac.c:304: powercycle_turn_radio_on(void)
                           1063 ;	-----------------------------------------
                           1064 ;	 function powercycle_turn_radio_on
                           1065 ;	-----------------------------------------
   0215                    1066 _powercycle_turn_radio_on:
                           1067 ;	../../../core/net/mac/contikimac.c:306: if(we_are_sending == 0) {
   0215 90s00r01           1068 	mov	dptr,#_we_are_sending
   0218 E0                 1069 	movx	a,@dptr
   0219 FA                 1070 	mov	r2,a
   021A 70 03              1071 	jnz	00103$
                           1072 ;	../../../core/net/mac/contikimac.c:307: on();
   021C 02s00r00           1073 	ljmp	_on
   021F                    1074 00103$:
   021F 22                 1075 	ret
                           1076 ;------------------------------------------------------------
                           1077 ;Allocation info for local variables in function 'powercycle'
                           1078 ;------------------------------------------------------------
                           1079 ;ptr                       Allocated to stack - offset -5
                           1080 ;t                         Allocated to stack - offset 1
                           1081 ;PT_YIELD_FLAG             Allocated to registers r5 
                           1082 ;packet_seen               Allocated with name '_powercycle_packet_seen_4_4'
                           1083 ;t0                        Allocated with name '_powercycle_t0_4_4'
                           1084 ;count                     Allocated with name '_powercycle_count_4_4'
                           1085 ;start                     Allocated with name '_powercycle_start_6_13'
                           1086 ;silence_periods           Allocated with name '_powercycle_silence_periods_6_13'
                           1087 ;periods                   Allocated with name '_powercycle_periods_6_13'
                           1088 ;------------------------------------------------------------
                           1089 ;	../../../core/net/mac/contikimac.c:311: powercycle(struct rtimer *t, void *ptr)
                           1090 ;	-----------------------------------------
                           1091 ;	 function powercycle
                           1092 ;	-----------------------------------------
   0220                    1093 _powercycle:
   0220 C0*00              1094 	push	_bp
   0222 85 81*00           1095 	mov	_bp,sp
   0225 C0 82              1096 	push	dpl
   0227 C0 83              1097 	push	dph
   0229 C0 F0              1098 	push	b
                           1099 ;	../../../core/net/mac/contikimac.c:313: PT_BEGIN(&pt);
   022B 7D 01              1100 	mov	r5,#0x01
   022D 90s00r07           1101 	mov	dptr,#_pt
   0230 E0                 1102 	movx	a,@dptr
   0231 FE                 1103 	mov	r6,a
   0232 A3                 1104 	inc	dptr
   0233 E0                 1105 	movx	a,@dptr
   0234 FF                 1106 	mov	r7,a
   0235 BE 00 05           1107 	cjne	r6,#0x00,00201$
   0238 BF 00 02           1108 	cjne	r7,#0x00,00201$
   023B 80 1E              1109 	sjmp	00164$
   023D                    1110 00201$:
   023D BE 6B 06           1111 	cjne	r6,#0x6B,00202$
   0240 BF 01 03           1112 	cjne	r7,#0x01,00202$
   0243 02s03r5D           1113 	ljmp	00111$
   0246                    1114 00202$:
   0246 BE A4 06           1115 	cjne	r6,#0xA4,00203$
   0249 BF 01 03           1116 	cjne	r7,#0x01,00203$
   024C 02s04rB2           1117 	ljmp	00134$
   024F                    1118 00203$:
   024F BE C0 06           1119 	cjne	r6,#0xC0,00204$
   0252 BF 01 03           1120 	cjne	r7,#0x01,00204$
   0255 02s05r8D           1121 	ljmp	00155$
   0258                    1122 00204$:
   0258 02s05r98           1123 	ljmp	00166$
                           1124 ;	../../../core/net/mac/contikimac.c:315: while(1) {
   025B                    1125 00164$:
                           1126 ;	../../../core/net/mac/contikimac.c:320: cycle_start = RTIMER_NOW();
   025B AE E2              1127 	mov	r6,_T1CNTL
   025D 7F 00              1128 	mov	r7,#0x00
   025F AB E3              1129 	mov	r3,_T1CNTH
   0261 7A 00              1130 	mov	r2,#0x00
   0263 90s01rAF           1131 	mov	dptr,#_cycle_start
   0266 EA                 1132 	mov	a,r2
   0267 2E                 1133 	add	a,r6
   0268 F0                 1134 	movx	@dptr,a
   0269 EB                 1135 	mov	a,r3
   026A 3F                 1136 	addc	a,r7
   026B A3                 1137 	inc	dptr
   026C F0                 1138 	movx	@dptr,a
                           1139 ;	../../../core/net/mac/contikimac.c:322: if(WITH_STREAMING && is_streaming) {
   026D 90s01r90           1140 	mov	dptr,#_is_streaming
   0270 E0                 1141 	movx	a,@dptr
   0271 FA                 1142 	mov	r2,a
   0272 60 5B              1143 	jz	00105$
                           1144 ;	../../../core/net/mac/contikimac.c:326: if(!RTIMER_CLOCK_LT(RTIMER_NOW(), stream_until))
   0274 AE E2              1145 	mov	r6,_T1CNTL
   0276 7F 00              1146 	mov	r7,#0x00
   0278 AB E3              1147 	mov	r3,_T1CNTH
   027A 7A 00              1148 	mov	r2,#0x00
   027C EA                 1149 	mov	a,r2
   027D 2E                 1150 	add	a,r6
   027E FE                 1151 	mov	r6,a
   027F EB                 1152 	mov	a,r3
   0280 3F                 1153 	addc	a,r7
   0281 FF                 1154 	mov	r7,a
   0282 90s01r95           1155 	mov	dptr,#_stream_until
   0285 E0                 1156 	movx	a,@dptr
   0286 FA                 1157 	mov	r2,a
   0287 A3                 1158 	inc	dptr
   0288 E0                 1159 	movx	a,@dptr
   0289 FB                 1160 	mov	r3,a
   028A EE                 1161 	mov	a,r6
   028B C3                 1162 	clr	c
   028C 9A                 1163 	subb	a,r2
   028D FE                 1164 	mov	r6,a
   028E EF                 1165 	mov	a,r7
   028F 9B                 1166 	subb	a,r3
   0290 FF                 1167 	mov	r7,a
   0291 20 E7 3B           1168 	jb	acc.7,00105$
                           1169 ;	../../../core/net/mac/contikimac.c:329: is_streaming = 0;
   0294 90s01r90           1170 	mov	dptr,#_is_streaming
   0297 E4                 1171 	clr	a
   0298 F0                 1172 	movx	@dptr,a
                           1173 ;	../../../core/net/mac/contikimac.c:330: rimeaddr_copy(&is_streaming_to, &rimeaddr_null);
   0299 74r00              1174 	mov	a,#_rimeaddr_null
   029B C0 E0              1175 	push	acc
   029D 74s00              1176 	mov	a,#(_rimeaddr_null >> 8)
   029F C0 E0              1177 	push	acc
   02A1 74 80              1178 	mov	a,#0x80
   02A3 C0 E0              1179 	push	acc
   02A5 90s01r91           1180 	mov	dptr,#_is_streaming_to
   02A8 75 F0 00           1181 	mov	b,#0x00
   02AB 12s00r00           1182 	lcall	_rimeaddr_copy
   02AE 15 81              1183 	dec	sp
   02B0 15 81              1184 	dec	sp
   02B2 15 81              1185 	dec	sp
                           1186 ;	../../../core/net/mac/contikimac.c:331: rimeaddr_copy(&is_streaming_to_too, &rimeaddr_null);
   02B4 74r00              1187 	mov	a,#_rimeaddr_null
   02B6 C0 E0              1188 	push	acc
   02B8 74s00              1189 	mov	a,#(_rimeaddr_null >> 8)
   02BA C0 E0              1190 	push	acc
   02BC 74 80              1191 	mov	a,#0x80
   02BE C0 E0              1192 	push	acc
   02C0 90s01r93           1193 	mov	dptr,#_is_streaming_to_too
   02C3 75 F0 00           1194 	mov	b,#0x00
   02C6 12s00r00           1195 	lcall	_rimeaddr_copy
   02C9 15 81              1196 	dec	sp
   02CB 15 81              1197 	dec	sp
   02CD 15 81              1198 	dec	sp
   02CF                    1199 00105$:
                           1200 ;	../../../core/net/mac/contikimac.c:335: packet_seen = 0;
   02CF 90s01rB1           1201 	mov	dptr,#_powercycle_packet_seen_4_4
   02D2 E4                 1202 	clr	a
   02D3 F0                 1203 	movx	@dptr,a
                           1204 ;	../../../core/net/mac/contikimac.c:337: do {
   02D4                    1205 00152$:
                           1206 ;	../../../core/net/mac/contikimac.c:338: for(count = 0; count < CCA_COUNT_MAX; ++count) {
   02D4 90s01rB4           1207 	mov	dptr,#_powercycle_count_4_4
   02D7 E4                 1208 	clr	a
   02D8 F0                 1209 	movx	@dptr,a
   02D9                    1210 00117$:
   02D9 90s01rB4           1211 	mov	dptr,#_powercycle_count_4_4
   02DC E0                 1212 	movx	a,@dptr
   02DD FE                 1213 	mov	r6,a
   02DE BE 02 00           1214 	cjne	r6,#0x02,00207$
   02E1                    1215 00207$:
   02E1 40 03              1216 	jc	00208$
   02E3 02s03r70           1217 	ljmp	00120$
   02E6                    1218 00208$:
                           1219 ;	../../../core/net/mac/contikimac.c:339: t0 = RTIMER_NOW();
   02E6 AE E2              1220 	mov	r6,_T1CNTL
   02E8 7F 00              1221 	mov	r7,#0x00
   02EA AB E3              1222 	mov	r3,_T1CNTH
   02EC 7A 00              1223 	mov	r2,#0x00
   02EE 90s01rB2           1224 	mov	dptr,#_powercycle_t0_4_4
   02F1 EA                 1225 	mov	a,r2
   02F2 2E                 1226 	add	a,r6
   02F3 F0                 1227 	movx	@dptr,a
   02F4 EB                 1228 	mov	a,r3
   02F5 3F                 1229 	addc	a,r7
   02F6 A3                 1230 	inc	dptr
   02F7 F0                 1231 	movx	@dptr,a
                           1232 ;	../../../core/net/mac/contikimac.c:340: if(we_are_sending == 0) {
   02F8 90s00r01           1233 	mov	dptr,#_we_are_sending
   02FB E0                 1234 	movx	a,@dptr
   02FC FA                 1235 	mov	r2,a
   02FD 70 27              1236 	jnz	00110$
                           1237 ;	../../../core/net/mac/contikimac.c:341: powercycle_turn_radio_on();
   02FF 12s02r15           1238 	lcall	_powercycle_turn_radio_on
                           1239 ;	../../../core/net/mac/contikimac.c:355: if(NETSTACK_RADIO.channel_clear() == 0) {
   0302 90s00r0A           1240 	mov	dptr,#(_cc2430_rf_driver + 0x000a)
   0305 E4                 1241 	clr	a
   0306 93                 1242 	movc	a,@a+dptr
   0307 FE                 1243 	mov	r6,a
   0308 A3                 1244 	inc	dptr
   0309 E4                 1245 	clr	a
   030A 93                 1246 	movc	a,@a+dptr
   030B FF                 1247 	mov	r7,a
   030C 8E 82              1248 	mov	dpl,r6
   030E 8F 83              1249 	mov	dph,r7
   0310 12s00r00           1250 	lcall	__sdcc_call_dptr
   0313 AE 82              1251 	mov	r6,dpl
   0315 AF 83              1252 	mov	r7,dph
   0317 EE                 1253 	mov	a,r6
   0318 4F                 1254 	orl	a,r7
   0319 70 08              1255 	jnz	00108$
                           1256 ;	../../../core/net/mac/contikimac.c:356: packet_seen = 1;
   031B 90s01rB1           1257 	mov	dptr,#_powercycle_packet_seen_4_4
   031E 74 01              1258 	mov	a,#0x01
   0320 F0                 1259 	movx	@dptr,a
                           1260 ;	../../../core/net/mac/contikimac.c:357: break;
   0321 80 4D              1261 	sjmp	00120$
   0323                    1262 00108$:
                           1263 ;	../../../core/net/mac/contikimac.c:359: powercycle_turn_radio_off();
   0323 12s02r0A           1264 	lcall	_powercycle_turn_radio_off
   0326                    1265 00110$:
                           1266 ;	../../../core/net/mac/contikimac.c:361: schedule_powercycle_fixed(t, RTIMER_NOW() + CCA_SLEEP_TIME);
   0326 AE E2              1267 	mov	r6,_T1CNTL
   0328 7F 00              1268 	mov	r7,#0x00
   032A AB E3              1269 	mov	r3,_T1CNTH
   032C 7A 00              1270 	mov	r2,#0x00
   032E EA                 1271 	mov	a,r2
   032F 2E                 1272 	add	a,r6
   0330 FE                 1273 	mov	r6,a
   0331 EB                 1274 	mov	a,r3
   0332 3F                 1275 	addc	a,r7
   0333 FF                 1276 	mov	r7,a
   0334 74 07              1277 	mov	a,#0x07
   0336 2E                 1278 	add	a,r6
   0337 FE                 1279 	mov	r6,a
   0338 E4                 1280 	clr	a
   0339 3F                 1281 	addc	a,r7
   033A FF                 1282 	mov	r7,a
   033B C0 06              1283 	push	ar6
   033D C0 07              1284 	push	ar7
   033F A8*00              1285 	mov	r0,_bp
   0341 08                 1286 	inc	r0
   0342 86 82              1287 	mov	dpl,@r0
   0344 08                 1288 	inc	r0
   0345 86 83              1289 	mov	dph,@r0
   0347 08                 1290 	inc	r0
   0348 86 F0              1291 	mov	b,@r0
   034A 12s01r4E           1292 	lcall	_schedule_powercycle_fixed
   034D 15 81              1293 	dec	sp
   034F 15 81              1294 	dec	sp
                           1295 ;	../../../core/net/mac/contikimac.c:363: PT_YIELD(&pt);
   0351 7D 00              1296 	mov	r5,#0x00
   0353 90s00r07           1297 	mov	dptr,#_pt
   0356 74 6B              1298 	mov	a,#0x6B
   0358 F0                 1299 	movx	@dptr,a
   0359 A3                 1300 	inc	dptr
   035A 74 01              1301 	mov	a,#0x01
   035C F0                 1302 	movx	@dptr,a
   035D                    1303 00111$:
   035D ED                 1304 	mov	a,r5
   035E 70 06              1305 	jnz	00115$
   0360 75 82 01           1306 	mov	dpl,#0x01
   0363 02s05rA2           1307 	ljmp	00167$
   0366                    1308 00115$:
                           1309 ;	../../../core/net/mac/contikimac.c:338: for(count = 0; count < CCA_COUNT_MAX; ++count) {
   0366 90s01rB4           1310 	mov	dptr,#_powercycle_count_4_4
   0369 E0                 1311 	movx	a,@dptr
   036A 24 01              1312 	add	a,#0x01
   036C F0                 1313 	movx	@dptr,a
   036D 02s02rD9           1314 	ljmp	00117$
   0370                    1315 00120$:
                           1316 ;	../../../core/net/mac/contikimac.c:366: if(packet_seen) {
   0370 90s01rB1           1317 	mov	dptr,#_powercycle_packet_seen_4_4
   0373 E0                 1318 	movx	a,@dptr
   0374 FA                 1319 	mov	r2,a
   0375 70 03              1320 	jnz	00213$
   0377 02s04rFA           1321 	ljmp	00153$
   037A                    1322 00213$:
                           1323 ;	../../../core/net/mac/contikimac.c:369: start = RTIMER_NOW();
   037A AA E2              1324 	mov	r2,_T1CNTL
   037C 7B 00              1325 	mov	r3,#0x00
   037E AE E3              1326 	mov	r6,_T1CNTH
   0380 7C 00              1327 	mov	r4,#0x00
   0382 90s01rB5           1328 	mov	dptr,#_powercycle_start_6_13
   0385 EC                 1329 	mov	a,r4
   0386 2A                 1330 	add	a,r2
   0387 F0                 1331 	movx	@dptr,a
   0388 EE                 1332 	mov	a,r6
   0389 3B                 1333 	addc	a,r3
   038A A3                 1334 	inc	dptr
   038B F0                 1335 	movx	@dptr,a
                           1336 ;	../../../core/net/mac/contikimac.c:371: periods = silence_periods = 0;
   038C 90s01rB7           1337 	mov	dptr,#_powercycle_silence_periods_6_13
   038F E4                 1338 	clr	a
   0390 F0                 1339 	movx	@dptr,a
   0391 90s01rB8           1340 	mov	dptr,#_powercycle_periods_6_13
   0394 F0                 1341 	movx	@dptr,a
                           1342 ;	../../../core/net/mac/contikimac.c:372: while(we_are_sending == 0 && radio_is_on &&
   0395                    1343 00142$:
   0395 90s00r01           1344 	mov	dptr,#_we_are_sending
   0398 E0                 1345 	movx	a,@dptr
   0399 FA                 1346 	mov	r2,a
   039A 60 03              1347 	jz	00214$
   039C 02s04rBE           1348 	ljmp	00144$
   039F                    1349 00214$:
   039F 90s00r02           1350 	mov	dptr,#_radio_is_on
   03A2 E0                 1351 	movx	a,@dptr
   03A3 FA                 1352 	mov	r2,a
   03A4 70 03              1353 	jnz	00215$
   03A6 02s04rBE           1354 	ljmp	00144$
   03A9                    1355 00215$:
                           1356 ;	../../../core/net/mac/contikimac.c:373: RTIMER_CLOCK_LT(RTIMER_NOW(), (start + LISTEN_TIME_AFTER_PACKET_DETECTED))) {
   03A9 AA E2              1357 	mov	r2,_T1CNTL
   03AB 7B 00              1358 	mov	r3,#0x00
   03AD AE E3              1359 	mov	r6,_T1CNTH
   03AF 7C 00              1360 	mov	r4,#0x00
   03B1 EC                 1361 	mov	a,r4
   03B2 2A                 1362 	add	a,r2
   03B3 FA                 1363 	mov	r2,a
   03B4 EE                 1364 	mov	a,r6
   03B5 3B                 1365 	addc	a,r3
   03B6 FB                 1366 	mov	r3,a
   03B7 90s01rB5           1367 	mov	dptr,#_powercycle_start_6_13
   03BA E0                 1368 	movx	a,@dptr
   03BB FC                 1369 	mov	r4,a
   03BC A3                 1370 	inc	dptr
   03BD E0                 1371 	movx	a,@dptr
   03BE FE                 1372 	mov	r6,a
   03BF 74 C3              1373 	mov	a,#0xC3
   03C1 2C                 1374 	add	a,r4
   03C2 FC                 1375 	mov	r4,a
   03C3 E4                 1376 	clr	a
   03C4 3E                 1377 	addc	a,r6
   03C5 FE                 1378 	mov	r6,a
   03C6 EA                 1379 	mov	a,r2
   03C7 C3                 1380 	clr	c
   03C8 9C                 1381 	subb	a,r4
   03C9 FA                 1382 	mov	r2,a
   03CA EB                 1383 	mov	a,r3
   03CB 9E                 1384 	subb	a,r6
   03CC FB                 1385 	mov	r3,a
   03CD 20 E7 03           1386 	jb	acc.7,00216$
   03D0 02s04rBE           1387 	ljmp	00144$
   03D3                    1388 00216$:
                           1389 ;	../../../core/net/mac/contikimac.c:381: if(NETSTACK_RADIO.channel_clear()) {
   03D3 90s00r0A           1390 	mov	dptr,#(_cc2430_rf_driver + 0x000a)
   03D6 E4                 1391 	clr	a
   03D7 93                 1392 	movc	a,@a+dptr
   03D8 FA                 1393 	mov	r2,a
   03D9 A3                 1394 	inc	dptr
   03DA E4                 1395 	clr	a
   03DB 93                 1396 	movc	a,@a+dptr
   03DC FB                 1397 	mov	r3,a
   03DD 8A 82              1398 	mov	dpl,r2
   03DF 8B 83              1399 	mov	dph,r3
   03E1 12s00r00           1400 	lcall	__sdcc_call_dptr
   03E4 AA 82              1401 	mov	r2,dpl
   03E6 AB 83              1402 	mov	r3,dph
   03E8 EA                 1403 	mov	a,r2
   03E9 4B                 1404 	orl	a,r3
   03EA 60 09              1405 	jz	00122$
                           1406 ;	../../../core/net/mac/contikimac.c:382: ++silence_periods;
   03EC 90s01rB7           1407 	mov	dptr,#_powercycle_silence_periods_6_13
   03EF E0                 1408 	movx	a,@dptr
   03F0 24 01              1409 	add	a,#0x01
   03F2 F0                 1410 	movx	@dptr,a
   03F3 80 05              1411 	sjmp	00123$
   03F5                    1412 00122$:
                           1413 ;	../../../core/net/mac/contikimac.c:384: silence_periods = 0;
   03F5 90s01rB7           1414 	mov	dptr,#_powercycle_silence_periods_6_13
   03F8 E4                 1415 	clr	a
   03F9 F0                 1416 	movx	@dptr,a
   03FA                    1417 00123$:
                           1418 ;	../../../core/net/mac/contikimac.c:387: ++periods;
   03FA 90s01rB8           1419 	mov	dptr,#_powercycle_periods_6_13
   03FD E0                 1420 	movx	a,@dptr
   03FE 24 01              1421 	add	a,#0x01
   0400 F0                 1422 	movx	@dptr,a
                           1423 ;	../../../core/net/mac/contikimac.c:389: if(NETSTACK_RADIO.receiving_packet()) {
   0401 90s00r0C           1424 	mov	dptr,#(_cc2430_rf_driver + 0x000c)
   0404 E4                 1425 	clr	a
   0405 93                 1426 	movc	a,@a+dptr
   0406 FA                 1427 	mov	r2,a
   0407 A3                 1428 	inc	dptr
   0408 E4                 1429 	clr	a
   0409 93                 1430 	movc	a,@a+dptr
   040A FB                 1431 	mov	r3,a
   040B 8A 82              1432 	mov	dpl,r2
   040D 8B 83              1433 	mov	dph,r3
   040F 12s00r00           1434 	lcall	__sdcc_call_dptr
   0412 AA 82              1435 	mov	r2,dpl
   0414 AB 83              1436 	mov	r3,dph
   0416 EA                 1437 	mov	a,r2
   0417 4B                 1438 	orl	a,r3
   0418 60 05              1439 	jz	00125$
                           1440 ;	../../../core/net/mac/contikimac.c:390: silence_periods = 0;
   041A 90s01rB7           1441 	mov	dptr,#_powercycle_silence_periods_6_13
   041D E4                 1442 	clr	a
   041E F0                 1443 	movx	@dptr,a
   041F                    1444 00125$:
                           1445 ;	../../../core/net/mac/contikimac.c:392: if(silence_periods > MAX_SILENCE_PERIODS) {
   041F 90s01rB7           1446 	mov	dptr,#_powercycle_silence_periods_6_13
   0422 E0                 1447 	movx	a,@dptr
   0423 FA                 1448 	mov	r2,a
   0424 74 05              1449 	mov	a,#0x05
   0426 B5 02 00           1450 	cjne	a,ar2,00221$
   0429                    1451 00221$:
   0429 50 06              1452 	jnc	00127$
                           1453 ;	../../../core/net/mac/contikimac.c:394: powercycle_turn_radio_off();
   042B 12s02r0A           1454 	lcall	_powercycle_turn_radio_off
                           1455 ;	../../../core/net/mac/contikimac.c:399: break;
   042E 02s04rBE           1456 	ljmp	00144$
   0431                    1457 00127$:
                           1458 ;	../../../core/net/mac/contikimac.c:402: if(periods > MAX_NONACTIVITY_PERIODIC && !(NETSTACK_RADIO.receiving_packet() ||
   0431 90s01rB8           1459 	mov	dptr,#_powercycle_periods_6_13
   0434 E0                 1460 	movx	a,@dptr
   0435 FA                 1461 	mov	r2,a
   0436 74 0A              1462 	mov	a,#0x0A
   0438 B5 02 00           1463 	cjne	a,ar2,00223$
   043B                    1464 00223$:
   043B 50 37              1465 	jnc	00129$
   043D 90s00r0C           1466 	mov	dptr,#(_cc2430_rf_driver + 0x000c)
   0440 E4                 1467 	clr	a
   0441 93                 1468 	movc	a,@a+dptr
   0442 FA                 1469 	mov	r2,a
   0443 A3                 1470 	inc	dptr
   0444 E4                 1471 	clr	a
   0445 93                 1472 	movc	a,@a+dptr
   0446 FB                 1473 	mov	r3,a
   0447 8A 82              1474 	mov	dpl,r2
   0449 8B 83              1475 	mov	dph,r3
   044B 12s00r00           1476 	lcall	__sdcc_call_dptr
   044E AA 82              1477 	mov	r2,dpl
   0450 AB 83              1478 	mov	r3,dph
   0452 EA                 1479 	mov	a,r2
   0453 4B                 1480 	orl	a,r3
   0454 70 1E              1481 	jnz	00129$
                           1482 ;	../../../core/net/mac/contikimac.c:403: NETSTACK_RADIO.pending_packet())) {
   0456 90s00r0E           1483 	mov	dptr,#(_cc2430_rf_driver + 0x000e)
   0459 E4                 1484 	clr	a
   045A 93                 1485 	movc	a,@a+dptr
   045B FA                 1486 	mov	r2,a
   045C A3                 1487 	inc	dptr
   045D E4                 1488 	clr	a
   045E 93                 1489 	movc	a,@a+dptr
   045F FB                 1490 	mov	r3,a
   0460 8A 82              1491 	mov	dpl,r2
   0462 8B 83              1492 	mov	dph,r3
   0464 12s00r00           1493 	lcall	__sdcc_call_dptr
   0467 AA 82              1494 	mov	r2,dpl
   0469 AB 83              1495 	mov	r3,dph
   046B EA                 1496 	mov	a,r2
   046C 4B                 1497 	orl	a,r3
   046D 70 05              1498 	jnz	00129$
                           1499 ;	../../../core/net/mac/contikimac.c:405: powercycle_turn_radio_off();
   046F 12s02r0A           1500 	lcall	_powercycle_turn_radio_off
                           1501 ;	../../../core/net/mac/contikimac.c:411: break;
   0472 80 4A              1502 	sjmp	00144$
   0474                    1503 00129$:
                           1504 ;	../../../core/net/mac/contikimac.c:414: if(NETSTACK_RADIO.pending_packet()) {
   0474 90s00r0E           1505 	mov	dptr,#(_cc2430_rf_driver + 0x000e)
   0477 E4                 1506 	clr	a
   0478 93                 1507 	movc	a,@a+dptr
   0479 FA                 1508 	mov	r2,a
   047A A3                 1509 	inc	dptr
   047B E4                 1510 	clr	a
   047C 93                 1511 	movc	a,@a+dptr
   047D FB                 1512 	mov	r3,a
   047E 8A 82              1513 	mov	dpl,r2
   0480 8B 83              1514 	mov	dph,r3
   0482 12s00r00           1515 	lcall	__sdcc_call_dptr
   0485 AA 82              1516 	mov	r2,dpl
   0487 AB 83              1517 	mov	r3,dph
   0489 EA                 1518 	mov	a,r2
   048A 4B                 1519 	orl	a,r3
   048B 70 31              1520 	jnz	00144$
                           1521 ;	../../../core/net/mac/contikimac.c:418: schedule_powercycle(t, CCA_CHECK_TIME + CCA_SLEEP_TIME);
   048D 74 08              1522 	mov	a,#0x08
   048F C0 E0              1523 	push	acc
   0491 E4                 1524 	clr	a
   0492 C0 E0              1525 	push	acc
   0494 A8*00              1526 	mov	r0,_bp
   0496 08                 1527 	inc	r0
   0497 86 82              1528 	mov	dpl,@r0
   0499 08                 1529 	inc	r0
   049A 86 83              1530 	mov	dph,@r0
   049C 08                 1531 	inc	r0
   049D 86 F0              1532 	mov	b,@r0
   049F 12s00r62           1533 	lcall	_schedule_powercycle
   04A2 15 81              1534 	dec	sp
   04A4 15 81              1535 	dec	sp
                           1536 ;	../../../core/net/mac/contikimac.c:420: PT_YIELD(&pt);
   04A6 7D 00              1537 	mov	r5,#0x00
   04A8 90s00r07           1538 	mov	dptr,#_pt
   04AB 74 A4              1539 	mov	a,#0xA4
   04AD F0                 1540 	movx	@dptr,a
   04AE A3                 1541 	inc	dptr
   04AF 74 01              1542 	mov	a,#0x01
   04B1 F0                 1543 	movx	@dptr,a
   04B2                    1544 00134$:
   04B2 ED                 1545 	mov	a,r5
   04B3 60 03              1546 	jz	00231$
   04B5 02s03r95           1547 	ljmp	00142$
   04B8                    1548 00231$:
   04B8 75 82 01           1549 	mov	dpl,#0x01
   04BB 02s05rA2           1550 	ljmp	00167$
   04BE                    1551 00144$:
                           1552 ;	../../../core/net/mac/contikimac.c:423: if(radio_is_on && !(NETSTACK_RADIO.receiving_packet() ||
   04BE 90s00r02           1553 	mov	dptr,#_radio_is_on
   04C1 E0                 1554 	movx	a,@dptr
   04C2 FA                 1555 	mov	r2,a
   04C3 60 35              1556 	jz	00153$
   04C5 90s00r0C           1557 	mov	dptr,#(_cc2430_rf_driver + 0x000c)
   04C8 E4                 1558 	clr	a
   04C9 93                 1559 	movc	a,@a+dptr
   04CA FA                 1560 	mov	r2,a
   04CB A3                 1561 	inc	dptr
   04CC E4                 1562 	clr	a
   04CD 93                 1563 	movc	a,@a+dptr
   04CE FB                 1564 	mov	r3,a
   04CF 8A 82              1565 	mov	dpl,r2
   04D1 8B 83              1566 	mov	dph,r3
   04D3 12s00r00           1567 	lcall	__sdcc_call_dptr
   04D6 AA 82              1568 	mov	r2,dpl
   04D8 AB 83              1569 	mov	r3,dph
   04DA EA                 1570 	mov	a,r2
   04DB 4B                 1571 	orl	a,r3
   04DC 70 1C              1572 	jnz	00153$
                           1573 ;	../../../core/net/mac/contikimac.c:424: NETSTACK_RADIO.pending_packet())) {
   04DE 90s00r0E           1574 	mov	dptr,#(_cc2430_rf_driver + 0x000e)
   04E1 E4                 1575 	clr	a
   04E2 93                 1576 	movc	a,@a+dptr
   04E3 FA                 1577 	mov	r2,a
   04E4 A3                 1578 	inc	dptr
   04E5 E4                 1579 	clr	a
   04E6 93                 1580 	movc	a,@a+dptr
   04E7 FB                 1581 	mov	r3,a
   04E8 8A 82              1582 	mov	dpl,r2
   04EA 8B 83              1583 	mov	dph,r3
   04EC 12s00r00           1584 	lcall	__sdcc_call_dptr
   04EF AA 82              1585 	mov	r2,dpl
   04F1 AB 83              1586 	mov	r3,dph
   04F3 EA                 1587 	mov	a,r2
   04F4 4B                 1588 	orl	a,r3
   04F5 70 03              1589 	jnz	00153$
                           1590 ;	../../../core/net/mac/contikimac.c:426: powercycle_turn_radio_off();
   04F7 12s02r0A           1591 	lcall	_powercycle_turn_radio_off
   04FA                    1592 00153$:
                           1593 ;	../../../core/net/mac/contikimac.c:437: } while(is_snooping &&
   04FA 90s00r09           1594 	mov	dptr,#_is_snooping
   04FD E0                 1595 	movx	a,@dptr
   04FE FA                 1596 	mov	r2,a
   04FF 60 2B              1597 	jz	00154$
                           1598 ;	../../../core/net/mac/contikimac.c:438: RTIMER_CLOCK_LT(RTIMER_NOW() - cycle_start, CYCLE_TIME - CHECK_TIME));
   0501 AA E2              1599 	mov	r2,_T1CNTL
   0503 7B 00              1600 	mov	r3,#0x00
   0505 AE E3              1601 	mov	r6,_T1CNTH
   0507 7C 00              1602 	mov	r4,#0x00
   0509 EC                 1603 	mov	a,r4
   050A 2A                 1604 	add	a,r2
   050B FA                 1605 	mov	r2,a
   050C EE                 1606 	mov	a,r6
   050D 3B                 1607 	addc	a,r3
   050E FB                 1608 	mov	r3,a
   050F 90s01rAF           1609 	mov	dptr,#_cycle_start
   0512 E0                 1610 	movx	a,@dptr
   0513 FC                 1611 	mov	r4,a
   0514 A3                 1612 	inc	dptr
   0515 E0                 1613 	movx	a,@dptr
   0516 FE                 1614 	mov	r6,a
   0517 EA                 1615 	mov	a,r2
   0518 C3                 1616 	clr	c
   0519 9C                 1617 	subb	a,r4
   051A FA                 1618 	mov	r2,a
   051B EB                 1619 	mov	a,r3
   051C 9E                 1620 	subb	a,r6
   051D FB                 1621 	mov	r3,a
   051E EA                 1622 	mov	a,r2
   051F 24 CE              1623 	add	a,#0xce
   0521 FA                 1624 	mov	r2,a
   0522 EB                 1625 	mov	a,r3
   0523 34 F0              1626 	addc	a,#0xf0
   0525 FB                 1627 	mov	r3,a
   0526 30 E7 03           1628 	jnb	acc.7,00238$
   0529 02s02rD4           1629 	ljmp	00152$
   052C                    1630 00238$:
   052C                    1631 00154$:
                           1632 ;	../../../core/net/mac/contikimac.c:440: if(is_snooping) {
   052C 90s00r09           1633 	mov	dptr,#_is_snooping
   052F E0                 1634 	movx	a,@dptr
                           1635 ;	../../../core/net/mac/contikimac.c:443: if(RTIMER_CLOCK_LT(RTIMER_NOW() - cycle_start, CYCLE_TIME)) {
   0530 AA E2              1636 	mov	r2,_T1CNTL
   0532 7B 00              1637 	mov	r3,#0x00
   0534 AE E3              1638 	mov	r6,_T1CNTH
   0536 7C 00              1639 	mov	r4,#0x00
   0538 EC                 1640 	mov	a,r4
   0539 2A                 1641 	add	a,r2
   053A FA                 1642 	mov	r2,a
   053B EE                 1643 	mov	a,r6
   053C 3B                 1644 	addc	a,r3
   053D FB                 1645 	mov	r3,a
   053E 90s01rAF           1646 	mov	dptr,#_cycle_start
   0541 E0                 1647 	movx	a,@dptr
   0542 FC                 1648 	mov	r4,a
   0543 A3                 1649 	inc	dptr
   0544 E0                 1650 	movx	a,@dptr
   0545 FE                 1651 	mov	r6,a
   0546 EA                 1652 	mov	a,r2
   0547 C3                 1653 	clr	c
   0548 9C                 1654 	subb	a,r4
   0549 FA                 1655 	mov	r2,a
   054A EB                 1656 	mov	a,r3
   054B 9E                 1657 	subb	a,r6
   054C FB                 1658 	mov	r3,a
   054D EA                 1659 	mov	a,r2
   054E 24 BE              1660 	add	a,#0xbe
   0550 FA                 1661 	mov	r2,a
   0551 EB                 1662 	mov	a,r3
   0552 34 F0              1663 	addc	a,#0xf0
   0554 FB                 1664 	mov	r3,a
   0555 20 E7 03           1665 	jb	acc.7,00239$
   0558 02s02r5B           1666 	ljmp	00164$
   055B                    1667 00239$:
                           1668 ;	../../../core/net/mac/contikimac.c:445: schedule_powercycle_fixed(t, CYCLE_TIME + cycle_start);
   055B 90s01rAF           1669 	mov	dptr,#_cycle_start
   055E E0                 1670 	movx	a,@dptr
   055F FA                 1671 	mov	r2,a
   0560 A3                 1672 	inc	dptr
   0561 E0                 1673 	movx	a,@dptr
   0562 FB                 1674 	mov	r3,a
   0563 74 42              1675 	mov	a,#0x42
   0565 2A                 1676 	add	a,r2
   0566 FA                 1677 	mov	r2,a
   0567 74 0F              1678 	mov	a,#0x0F
   0569 3B                 1679 	addc	a,r3
   056A FB                 1680 	mov	r3,a
   056B C0 02              1681 	push	ar2
   056D C0 03              1682 	push	ar3
   056F A8*00              1683 	mov	r0,_bp
   0571 08                 1684 	inc	r0
   0572 86 82              1685 	mov	dpl,@r0
   0574 08                 1686 	inc	r0
   0575 86 83              1687 	mov	dph,@r0
   0577 08                 1688 	inc	r0
   0578 86 F0              1689 	mov	b,@r0
   057A 12s01r4E           1690 	lcall	_schedule_powercycle_fixed
   057D 15 81              1691 	dec	sp
   057F 15 81              1692 	dec	sp
                           1693 ;	../../../core/net/mac/contikimac.c:448: PT_YIELD(&pt);
   0581 7D 00              1694 	mov	r5,#0x00
   0583 90s00r07           1695 	mov	dptr,#_pt
   0586 74 C0              1696 	mov	a,#0xC0
   0588 F0                 1697 	movx	@dptr,a
   0589 A3                 1698 	inc	dptr
   058A 74 01              1699 	mov	a,#0x01
   058C F0                 1700 	movx	@dptr,a
   058D                    1701 00155$:
   058D ED                 1702 	mov	a,r5
   058E 60 03              1703 	jz	00240$
   0590 02s02r5B           1704 	ljmp	00164$
   0593                    1705 00240$:
   0593 75 82 01           1706 	mov	dpl,#0x01
                           1707 ;	../../../core/net/mac/contikimac.c:453: PT_END(&pt);
   0596 80 0A              1708 	sjmp	00167$
   0598                    1709 00166$:
   0598 90s00r07           1710 	mov	dptr,#_pt
   059B E4                 1711 	clr	a
   059C F0                 1712 	movx	@dptr,a
   059D A3                 1713 	inc	dptr
   059E F0                 1714 	movx	@dptr,a
   059F 75 82 03           1715 	mov	dpl,#0x03
   05A2                    1716 00167$:
   05A2 85*00 81           1717 	mov	sp,_bp
   05A5 D0*00              1718 	pop	_bp
   05A7 22                 1719 	ret
                           1720 ;------------------------------------------------------------
                           1721 ;Allocation info for local variables in function 'broadcast_rate_drop'
                           1722 ;------------------------------------------------------------
                           1723 ;------------------------------------------------------------
                           1724 ;	../../../core/net/mac/contikimac.c:528: broadcast_rate_drop(void)
                           1725 ;	-----------------------------------------
                           1726 ;	 function broadcast_rate_drop
                           1727 ;	-----------------------------------------
   05A8                    1728 _broadcast_rate_drop:
                           1729 ;	../../../core/net/mac/contikimac.c:544: return 0;
   05A8 90 00 00           1730 	mov	dptr,#0x0000
   05AB 22                 1731 	ret
                           1732 ;------------------------------------------------------------
                           1733 ;Allocation info for local variables in function 'send_packet'
                           1734 ;------------------------------------------------------------
                           1735 ;mac_callback_ptr          Allocated to stack - offset -5
                           1736 ;mac_callback              Allocated to stack - offset 1
                           1737 ;t0                        Allocated to stack - offset 3
                           1738 ;t                         Allocated to registers 
                           1739 ;encounter_time            Allocated to stack - offset 5
                           1740 ;last_transmission_time    Allocated to registers 
                           1741 ;first_transmission        Allocated to registers 
                           1742 ;strobes                   Allocated to registers r6 r7 
                           1743 ;got_strobe_ack            Allocated to registers r2 
                           1744 ;hdrlen                    Allocated to stack - offset 7
                           1745 ;len                       Allocated to registers r4 r5 
                           1746 ;is_broadcast              Allocated to stack - offset 9
                           1747 ;is_reliable               Allocated to registers 
                           1748 ;is_known_receiver         Allocated to stack - offset 10
                           1749 ;collisions                Allocated to stack - offset 11
                           1750 ;transmit_len              Allocated to stack - offset 12
                           1751 ;i                         Allocated to stack - offset 14
                           1752 ;ret                       Allocated to registers r2 r3 
                           1753 ;chdr                      Allocated to registers r4 r5 r7 
                           1754 ;wt                        Allocated to stack - offset 16
                           1755 ;now                       Allocated to stack - offset 18
                           1756 ;ret                       Allocated to stack - offset 20
                           1757 ;ackbuf                    Allocated to stack - offset 22
                           1758 ;sloc0                     Allocated to stack - offset 25
                           1759 ;sloc1                     Allocated to stack - offset 27
                           1760 ;sloc2                     Allocated to stack - offset 28
                           1761 ;sloc3                     Allocated to stack - offset 29
                           1762 ;sloc4                     Allocated to stack - offset 31
                           1763 ;------------------------------------------------------------
                           1764 ;	../../../core/net/mac/contikimac.c:549: send_packet(mac_callback_t mac_callback, void *mac_callback_ptr)
                           1765 ;	-----------------------------------------
                           1766 ;	 function send_packet
                           1767 ;	-----------------------------------------
   05AC                    1768 _send_packet:
   05AC C0*00              1769 	push	_bp
   05AE 85 81*00           1770 	mov	_bp,sp
   05B1 C0 82              1771 	push	dpl
   05B3 C0 83              1772 	push	dph
   05B5 E5 81              1773 	mov	a,sp
   05B7 24 20              1774 	add	a,#0x20
   05B9 F5 81              1775 	mov	sp,a
                           1776 ;	../../../core/net/mac/contikimac.c:553: rtimer_clock_t encounter_time = 0, last_transmission_time = 0;
   05BB E5*00              1777 	mov	a,_bp
   05BD 24 05              1778 	add	a,#0x05
   05BF F8                 1779 	mov	r0,a
   05C0 E4                 1780 	clr	a
   05C1 F6                 1781 	mov	@r0,a
   05C2 08                 1782 	inc	r0
   05C3 F6                 1783 	mov	@r0,a
                           1784 ;	../../../core/net/mac/contikimac.c:558: uint8_t is_broadcast = 0;
   05C4 E5*00              1785 	mov	a,_bp
   05C6 24 09              1786 	add	a,#0x09
   05C8 F8                 1787 	mov	r0,a
   05C9 76 00              1788 	mov	@r0,#0x00
                           1789 ;	../../../core/net/mac/contikimac.c:560: uint8_t is_known_receiver = 0;
   05CB E5*00              1790 	mov	a,_bp
   05CD 24 0A              1791 	add	a,#0x0a
   05CF F8                 1792 	mov	r0,a
   05D0 76 00              1793 	mov	@r0,#0x00
                           1794 ;	../../../core/net/mac/contikimac.c:569: if(packetbuf_totlen() == 0) {
   05D2 12s00r00           1795 	lcall	_packetbuf_totlen
   05D5 E5 82              1796 	mov	a,dpl
   05D7 85 83 F0           1797 	mov	b,dph
   05DA 45 F0              1798 	orl	a,b
   05DC 70 06              1799 	jnz	00102$
                           1800 ;	../../../core/net/mac/contikimac.c:571: return MAC_TX_ERR_FATAL;
   05DE 90 00 05           1801 	mov	dptr,#0x0005
   05E1 02s0DrA4           1802 	ljmp	00210$
   05E4                    1803 00102$:
                           1804 ;	../../../core/net/mac/contikimac.c:575: packetbuf_set_addr(PACKETBUF_ADDR_SENDER, &rimeaddr_node_addr);
   05E4 74r00              1805 	mov	a,#_rimeaddr_node_addr
   05E6 C0 E0              1806 	push	acc
   05E8 74s00              1807 	mov	a,#(_rimeaddr_node_addr >> 8)
   05EA C0 E0              1808 	push	acc
   05EC E4                 1809 	clr	a
   05ED C0 E0              1810 	push	acc
   05EF 75 82 18           1811 	mov	dpl,#0x18
   05F2 12s00r00           1812 	lcall	_packetbuf_set_addr
   05F5 15 81              1813 	dec	sp
   05F7 15 81              1814 	dec	sp
   05F9 15 81              1815 	dec	sp
                           1816 ;	../../../core/net/mac/contikimac.c:576: if(rimeaddr_cmp(packetbuf_addr(PACKETBUF_ADDR_RECEIVER), &rimeaddr_null)) {
   05FB 75 82 19           1817 	mov	dpl,#0x19
   05FE 12s00r00           1818 	lcall	_packetbuf_addr
   0601 AC 82              1819 	mov	r4,dpl
   0603 AD 83              1820 	mov	r5,dph
   0605 AA F0              1821 	mov	r2,b
   0607 74r00              1822 	mov	a,#_rimeaddr_null
   0609 C0 E0              1823 	push	acc
   060B 74s00              1824 	mov	a,#(_rimeaddr_null >> 8)
   060D C0 E0              1825 	push	acc
   060F 74 80              1826 	mov	a,#0x80
   0611 C0 E0              1827 	push	acc
   0613 8C 82              1828 	mov	dpl,r4
   0615 8D 83              1829 	mov	dph,r5
   0617 8A F0              1830 	mov	b,r2
   0619 12s00r00           1831 	lcall	_rimeaddr_cmp
   061C AA 82              1832 	mov	r2,dpl
   061E AB 83              1833 	mov	r3,dph
   0620 15 81              1834 	dec	sp
   0622 15 81              1835 	dec	sp
   0624 15 81              1836 	dec	sp
   0626 EA                 1837 	mov	a,r2
   0627 4B                 1838 	orl	a,r3
   0628 60 19              1839 	jz	00106$
                           1840 ;	../../../core/net/mac/contikimac.c:577: is_broadcast = 1;
   062A E5*00              1841 	mov	a,_bp
   062C 24 09              1842 	add	a,#0x09
   062E F8                 1843 	mov	r0,a
   062F 76 01              1844 	mov	@r0,#0x01
                           1845 ;	../../../core/net/mac/contikimac.c:580: if(broadcast_rate_drop()) {
   0631 12s05rA8           1846 	lcall	_broadcast_rate_drop
   0634 E5 82              1847 	mov	a,dpl
   0636 85 83 F0           1848 	mov	b,dph
   0639 45 F0              1849 	orl	a,b
   063B 60 06              1850 	jz	00106$
                           1851 ;	../../../core/net/mac/contikimac.c:581: return MAC_TX_COLLISION;
   063D 90 00 01           1852 	mov	dptr,#0x0001
   0640 02s0DrA4           1853 	ljmp	00210$
   0643                    1854 00106$:
                           1855 ;	../../../core/net/mac/contikimac.c:600: is_reliable = packetbuf_attr(PACKETBUF_ATTR_RELIABLE) ||
   0643 75 82 0C           1856 	mov	dpl,#0x0C
   0646 12s00r00           1857 	lcall	_packetbuf_attr
   0649 E5 82              1858 	mov	a,dpl
   064B 85 83 F0           1859 	mov	b,dph
   064E 45 F0              1860 	orl	a,b
   0650 70 0B              1861 	jnz	00214$
                           1862 ;	../../../core/net/mac/contikimac.c:601: packetbuf_attr(PACKETBUF_ATTR_ERELIABLE);
   0652 75 82 17           1863 	mov	dpl,#0x17
   0655 12s00r00           1864 	lcall	_packetbuf_attr
   0658 E5 82              1865 	mov	a,dpl
   065A 85 83 F0           1866 	mov	b,dph
   065D                    1867 00214$:
                           1868 ;	../../../core/net/mac/contikimac.c:604: if(packetbuf_attr(PACKETBUF_ATTR_PACKET_TYPE) ==
   065D 75 82 0E           1869 	mov	dpl,#0x0E
   0660 12s00r00           1870 	lcall	_packetbuf_attr
   0663 AA 82              1871 	mov	r2,dpl
   0665 AB 83              1872 	mov	r3,dph
   0667 BA 02 05           1873 	cjne	r2,#0x02,00265$
   066A BB 00 02           1874 	cjne	r3,#0x00,00265$
   066D 80 03              1875 	sjmp	00266$
   066F                    1876 00265$:
   066F 02s07r23           1877 	ljmp	00113$
   0672                    1878 00266$:
                           1879 ;	../../../core/net/mac/contikimac.c:606: if(rimeaddr_cmp(&is_streaming_to, &rimeaddr_null)) {
   0672 74r00              1880 	mov	a,#_rimeaddr_null
   0674 C0 E0              1881 	push	acc
   0676 74s00              1882 	mov	a,#(_rimeaddr_null >> 8)
   0678 C0 E0              1883 	push	acc
   067A 74 80              1884 	mov	a,#0x80
   067C C0 E0              1885 	push	acc
   067E 90s01r91           1886 	mov	dptr,#_is_streaming_to
   0681 75 F0 00           1887 	mov	b,#0x00
   0684 12s00r00           1888 	lcall	_rimeaddr_cmp
   0687 AA 82              1889 	mov	r2,dpl
   0689 AB 83              1890 	mov	r3,dph
   068B 15 81              1891 	dec	sp
   068D 15 81              1892 	dec	sp
   068F 15 81              1893 	dec	sp
   0691 EA                 1894 	mov	a,r2
   0692 4B                 1895 	orl	a,r3
   0693 60 23              1896 	jz	00110$
                           1897 ;	../../../core/net/mac/contikimac.c:608: packetbuf_addr(PACKETBUF_ADDR_RECEIVER));
   0695 75 82 19           1898 	mov	dpl,#0x19
   0698 12s00r00           1899 	lcall	_packetbuf_addr
   069B AA 82              1900 	mov	r2,dpl
   069D AB 83              1901 	mov	r3,dph
   069F AC F0              1902 	mov	r4,b
                           1903 ;	../../../core/net/mac/contikimac.c:607: rimeaddr_copy(&is_streaming_to,
   06A1 C0 02              1904 	push	ar2
   06A3 C0 03              1905 	push	ar3
   06A5 C0 04              1906 	push	ar4
   06A7 90s01r91           1907 	mov	dptr,#_is_streaming_to
   06AA 75 F0 00           1908 	mov	b,#0x00
   06AD 12s00r00           1909 	lcall	_rimeaddr_copy
   06B0 15 81              1910 	dec	sp
   06B2 15 81              1911 	dec	sp
   06B4 15 81              1912 	dec	sp
   06B6 80 4A              1913 	sjmp	00111$
   06B8                    1914 00110$:
                           1915 ;	../../../core/net/mac/contikimac.c:610: (&is_streaming_to, packetbuf_addr(PACKETBUF_ADDR_RECEIVER))) {
   06B8 75 82 19           1916 	mov	dpl,#0x19
   06BB 12s00r00           1917 	lcall	_packetbuf_addr
   06BE AA 82              1918 	mov	r2,dpl
   06C0 AB 83              1919 	mov	r3,dph
   06C2 AC F0              1920 	mov	r4,b
   06C4 C0 02              1921 	push	ar2
   06C6 C0 03              1922 	push	ar3
   06C8 C0 04              1923 	push	ar4
   06CA 90s01r91           1924 	mov	dptr,#_is_streaming_to
   06CD 75 F0 00           1925 	mov	b,#0x00
   06D0 12s00r00           1926 	lcall	_rimeaddr_cmp
   06D3 AA 82              1927 	mov	r2,dpl
   06D5 AB 83              1928 	mov	r3,dph
   06D7 15 81              1929 	dec	sp
   06D9 15 81              1930 	dec	sp
   06DB 15 81              1931 	dec	sp
   06DD EA                 1932 	mov	a,r2
   06DE 4B                 1933 	orl	a,r3
   06DF 70 21              1934 	jnz	00111$
                           1935 ;	../../../core/net/mac/contikimac.c:612: packetbuf_addr(PACKETBUF_ADDR_RECEIVER));
   06E1 75 82 19           1936 	mov	dpl,#0x19
   06E4 12s00r00           1937 	lcall	_packetbuf_addr
   06E7 AA 82              1938 	mov	r2,dpl
   06E9 AB 83              1939 	mov	r3,dph
   06EB AC F0              1940 	mov	r4,b
                           1941 ;	../../../core/net/mac/contikimac.c:611: rimeaddr_copy(&is_streaming_to_too,
   06ED C0 02              1942 	push	ar2
   06EF C0 03              1943 	push	ar3
   06F1 C0 04              1944 	push	ar4
   06F3 90s01r93           1945 	mov	dptr,#_is_streaming_to_too
   06F6 75 F0 00           1946 	mov	b,#0x00
   06F9 12s00r00           1947 	lcall	_rimeaddr_copy
   06FC 15 81              1948 	dec	sp
   06FE 15 81              1949 	dec	sp
   0700 15 81              1950 	dec	sp
                           1951 ;	../../../core/net/mac/contikimac.c:904: return ret;
                           1952 ;	../../../core/net/mac/contikimac.c:611: rimeaddr_copy(&is_streaming_to_too,
   0702                    1953 00111$:
                           1954 ;	../../../core/net/mac/contikimac.c:614: stream_until = RTIMER_NOW() + DEFAULT_STREAM_TIME;
   0702 AA E2              1955 	mov	r2,_T1CNTL
   0704 7B 00              1956 	mov	r3,#0x00
   0706 AD E3              1957 	mov	r5,_T1CNTH
   0708 E4                 1958 	clr	a
   0709 FC                 1959 	mov	r4,a
   070A 2A                 1960 	add	a,r2
   070B FA                 1961 	mov	r2,a
   070C ED                 1962 	mov	a,r5
   070D 3B                 1963 	addc	a,r3
   070E FB                 1964 	mov	r3,a
   070F 90s01r95           1965 	mov	dptr,#_stream_until
   0712 74 42              1966 	mov	a,#0x42
   0714 2A                 1967 	add	a,r2
   0715 F0                 1968 	movx	@dptr,a
   0716 74 0F              1969 	mov	a,#0x0F
   0718 3B                 1970 	addc	a,r3
   0719 A3                 1971 	inc	dptr
   071A F0                 1972 	movx	@dptr,a
                           1973 ;	../../../core/net/mac/contikimac.c:615: is_streaming = 1;
   071B 90s01r90           1974 	mov	dptr,#_is_streaming
   071E 74 01              1975 	mov	a,#0x01
   0720 F0                 1976 	movx	@dptr,a
   0721 80 05              1977 	sjmp	00116$
   0723                    1978 00113$:
                           1979 ;	../../../core/net/mac/contikimac.c:617: is_streaming = 0;
   0723 90s01r90           1980 	mov	dptr,#_is_streaming
   0726 E4                 1981 	clr	a
   0727 F0                 1982 	movx	@dptr,a
   0728                    1983 00116$:
                           1984 ;	../../../core/net/mac/contikimac.c:621: if(is_streaming) {
   0728 90s01r90           1985 	mov	dptr,#_is_streaming
   072B E0                 1986 	movx	a,@dptr
   072C FA                 1987 	mov	r2,a
   072D 60 11              1988 	jz	00118$
                           1989 ;	../../../core/net/mac/contikimac.c:622: packetbuf_set_attr(PACKETBUF_ATTR_PENDING, 1);
   072F 74 01              1990 	mov	a,#0x01
   0731 C0 E0              1991 	push	acc
   0733 E4                 1992 	clr	a
   0734 C0 E0              1993 	push	acc
   0736 75 82 12           1994 	mov	dpl,#0x12
   0739 12s00r00           1995 	lcall	_packetbuf_set_attr
   073C 15 81              1996 	dec	sp
   073E 15 81              1997 	dec	sp
   0740                    1998 00118$:
                           1999 ;	../../../core/net/mac/contikimac.c:624: packetbuf_set_attr(PACKETBUF_ATTR_MAC_ACK, 1);
   0740 74 01              2000 	mov	a,#0x01
   0742 C0 E0              2001 	push	acc
   0744 E4                 2002 	clr	a
   0745 C0 E0              2003 	push	acc
   0747 75 82 0B           2004 	mov	dpl,#0x0B
   074A 12s00r00           2005 	lcall	_packetbuf_set_attr
   074D 15 81              2006 	dec	sp
   074F 15 81              2007 	dec	sp
                           2008 ;	../../../core/net/mac/contikimac.c:627: hdrlen = packetbuf_totlen();
   0751 12s00r00           2009 	lcall	_packetbuf_totlen
   0754 AA 82              2010 	mov	r2,dpl
   0756 AB 83              2011 	mov	r3,dph
   0758 E5*00              2012 	mov	a,_bp
   075A 24 07              2013 	add	a,#0x07
   075C F8                 2014 	mov	r0,a
   075D A6 02              2015 	mov	@r0,ar2
   075F 08                 2016 	inc	r0
   0760 A6 03              2017 	mov	@r0,ar3
                           2018 ;	../../../core/net/mac/contikimac.c:628: if(packetbuf_hdralloc(sizeof(struct hdr)) == 0) {
   0762 90 00 02           2019 	mov	dptr,#0x0002
   0765 12s00r00           2020 	lcall	_packetbuf_hdralloc
   0768 E5 82              2021 	mov	a,dpl
   076A 85 83 F0           2022 	mov	b,dph
   076D 45 F0              2023 	orl	a,b
   076F 70 06              2024 	jnz	00120$
                           2025 ;	../../../core/net/mac/contikimac.c:631: return MAC_TX_ERR_FATAL;
   0771 90 00 05           2026 	mov	dptr,#0x0005
   0774 02s0DrA4           2027 	ljmp	00210$
   0777                    2028 00120$:
                           2029 ;	../../../core/net/mac/contikimac.c:633: chdr = packetbuf_hdrptr();
   0777 12s00r00           2030 	lcall	_packetbuf_hdrptr
                           2031 ;	../../../core/net/mac/contikimac.c:634: chdr->id = CONTIKIMAC_ID;
   077A AC 82              2032 	mov	r4,dpl
   077C AD 83              2033 	mov	r5,dph
   077E AF F0              2034 	mov	r7,b
   0780 E4                 2035 	clr	a
   0781 12s00r00           2036 	lcall	__gptrput
                           2037 ;	../../../core/net/mac/contikimac.c:635: chdr->len = hdrlen;
   0784 0C                 2038 	inc	r4
   0785 BC 00 01           2039 	cjne	r4,#0x00,00271$
   0788 0D                 2040 	inc	r5
   0789                    2041 00271$:
   0789 E5*00              2042 	mov	a,_bp
   078B 24 07              2043 	add	a,#0x07
   078D F8                 2044 	mov	r0,a
   078E 86 02              2045 	mov	ar2,@r0
   0790 8C 82              2046 	mov	dpl,r4
   0792 8D 83              2047 	mov	dph,r5
   0794 8F F0              2048 	mov	b,r7
   0796 EA                 2049 	mov	a,r2
   0797 12s00r00           2050 	lcall	__gptrput
                           2051 ;	../../../core/net/mac/contikimac.c:638: hdrlen = NETSTACK_FRAMER.create();
   079A 90s00r00           2052 	mov	dptr,#_framer_nullmac
   079D E4                 2053 	clr	a
   079E 93                 2054 	movc	a,@a+dptr
   079F FA                 2055 	mov	r2,a
   07A0 A3                 2056 	inc	dptr
   07A1 E4                 2057 	clr	a
   07A2 93                 2058 	movc	a,@a+dptr
   07A3 FB                 2059 	mov	r3,a
   07A4 8A 82              2060 	mov	dpl,r2
   07A6 8B 83              2061 	mov	dph,r3
   07A8 12s00r00           2062 	lcall	__sdcc_call_dptr
   07AB AA 82              2063 	mov	r2,dpl
   07AD AB 83              2064 	mov	r3,dph
   07AF E5*00              2065 	mov	a,_bp
   07B1 24 07              2066 	add	a,#0x07
   07B3 F8                 2067 	mov	r0,a
   07B4 A6 02              2068 	mov	@r0,ar2
   07B6 08                 2069 	inc	r0
   07B7 A6 03              2070 	mov	@r0,ar3
                           2071 ;	../../../core/net/mac/contikimac.c:639: if(hdrlen == 0) {
   07B9 E5*00              2072 	mov	a,_bp
   07BB 24 07              2073 	add	a,#0x07
   07BD F8                 2074 	mov	r0,a
   07BE E6                 2075 	mov	a,@r0
   07BF 08                 2076 	inc	r0
   07C0 46                 2077 	orl	a,@r0
   07C1 70 0C              2078 	jnz	00122$
                           2079 ;	../../../core/net/mac/contikimac.c:642: packetbuf_hdr_remove(sizeof(struct hdr));
   07C3 90 00 02           2080 	mov	dptr,#0x0002
   07C6 12s00r00           2081 	lcall	_packetbuf_hdr_remove
                           2082 ;	../../../core/net/mac/contikimac.c:643: return MAC_TX_ERR_FATAL;
   07C9 90 00 05           2083 	mov	dptr,#0x0005
   07CC 02s0DrA4           2084 	ljmp	00210$
   07CF                    2085 00122$:
                           2086 ;	../../../core/net/mac/contikimac.c:645: hdrlen += sizeof(struct hdr);
   07CF E5*00              2087 	mov	a,_bp
   07D1 24 07              2088 	add	a,#0x07
   07D3 F8                 2089 	mov	r0,a
   07D4 74 02              2090 	mov	a,#0x02
   07D6 26                 2091 	add	a,@r0
   07D7 F6                 2092 	mov	@r0,a
   07D8 E4                 2093 	clr	a
   07D9 08                 2094 	inc	r0
   07DA 36                 2095 	addc	a,@r0
   07DB F6                 2096 	mov	@r0,a
                           2097 ;	../../../core/net/mac/contikimac.c:658: transmit_len = packetbuf_totlen();
   07DC 12s00r00           2098 	lcall	_packetbuf_totlen
   07DF AA 82              2099 	mov	r2,dpl
   07E1 AB 83              2100 	mov	r3,dph
   07E3 E5*00              2101 	mov	a,_bp
   07E5 24 0C              2102 	add	a,#0x0c
   07E7 F8                 2103 	mov	r0,a
   07E8 A6 02              2104 	mov	@r0,ar2
   07EA 08                 2105 	inc	r0
   07EB A6 03              2106 	mov	@r0,ar3
                           2107 ;	../../../core/net/mac/contikimac.c:659: if(transmit_len < SHORTEST_PACKET_SIZE) {
   07ED E5*00              2108 	mov	a,_bp
   07EF 24 0C              2109 	add	a,#0x0c
   07F1 F8                 2110 	mov	r0,a
   07F2 C3                 2111 	clr	c
   07F3 E6                 2112 	mov	a,@r0
   07F4 94 2B              2113 	subb	a,#0x2B
   07F6 08                 2114 	inc	r0
   07F7 E6                 2115 	mov	a,@r0
   07F8 64 80              2116 	xrl	a,#0x80
   07FA 94 80              2117 	subb	a,#0x80
   07FC 50 0A              2118 	jnc	00124$
                           2119 ;	../../../core/net/mac/contikimac.c:668: transmit_len = SHORTEST_PACKET_SIZE;
   07FE E5*00              2120 	mov	a,_bp
   0800 24 0C              2121 	add	a,#0x0c
   0802 F8                 2122 	mov	r0,a
   0803 76 2B              2123 	mov	@r0,#0x2B
   0805 08                 2124 	inc	r0
   0806 76 00              2125 	mov	@r0,#0x00
   0808                    2126 00124$:
                           2127 ;	../../../core/net/mac/contikimac.c:672: packetbuf_compact();
   0808 12s00r00           2128 	lcall	_packetbuf_compact
                           2129 ;	../../../core/net/mac/contikimac.c:674: NETSTACK_RADIO.prepare(packetbuf_hdrptr(), transmit_len);
   080B 90s00r02           2130 	mov	dptr,#(_cc2430_rf_driver + 0x0002)
   080E E4                 2131 	clr	a
   080F 93                 2132 	movc	a,@a+dptr
   0810 FF                 2133 	mov	r7,a
   0811 A3                 2134 	inc	dptr
   0812 E4                 2135 	clr	a
   0813 93                 2136 	movc	a,@a+dptr
   0814 FC                 2137 	mov	r4,a
   0815 C0 04              2138 	push	ar4
   0817 C0 07              2139 	push	ar7
   0819 12s00r00           2140 	lcall	_packetbuf_hdrptr
   081C AD 82              2141 	mov	r5,dpl
   081E AA 83              2142 	mov	r2,dph
   0820 AB F0              2143 	mov	r3,b
   0822 D0 07              2144 	pop	ar7
   0824 D0 04              2145 	pop	ar4
   0826 C0 04              2146 	push	ar4
   0828 C0 07              2147 	push	ar7
   082A E5*00              2148 	mov	a,_bp
   082C 24 0C              2149 	add	a,#0x0c
   082E F8                 2150 	mov	r0,a
   082F E6                 2151 	mov	a,@r0
   0830 C0 E0              2152 	push	acc
   0832 08                 2153 	inc	r0
   0833 E6                 2154 	mov	a,@r0
   0834 C0 E0              2155 	push	acc
   0836 74r49              2156 	mov	a,#00275$
   0838 C0 E0              2157 	push	acc
   083A 74s08              2158 	mov	a,#(00275$ >> 8)
   083C C0 E0              2159 	push	acc
   083E C0 07              2160 	push	ar7
   0840 C0 04              2161 	push	ar4
   0842 8D 82              2162 	mov	dpl,r5
   0844 8A 83              2163 	mov	dph,r2
   0846 8B F0              2164 	mov	b,r3
   0848 22                 2165 	ret
   0849                    2166 00275$:
   0849 15 81              2167 	dec	sp
   084B 15 81              2168 	dec	sp
   084D D0 07              2169 	pop	ar7
   084F D0 04              2170 	pop	ar4
                           2171 ;	../../../core/net/mac/contikimac.c:677: packetbuf_hdr_remove(hdrlen);
   0851 E5*00              2172 	mov	a,_bp
   0853 24 07              2173 	add	a,#0x07
   0855 F8                 2174 	mov	r0,a
   0856 86 82              2175 	mov	dpl,@r0
   0858 08                 2176 	inc	r0
   0859 86 83              2177 	mov	dph,@r0
   085B 12s00r00           2178 	lcall	_packetbuf_hdr_remove
                           2179 ;	../../../core/net/mac/contikimac.c:679: if(!is_broadcast && !is_streaming) {
   085E E5*00              2180 	mov	a,_bp
   0860 24 09              2181 	add	a,#0x09
   0862 F8                 2182 	mov	r0,a
   0863 E6                 2183 	mov	a,@r0
   0864 70 6C              2184 	jnz	00139$
   0866 90s01r90           2185 	mov	dptr,#_is_streaming
   0869 E0                 2186 	movx	a,@dptr
   086A FA                 2187 	mov	r2,a
   086B 70 65              2188 	jnz	00139$
                           2189 ;	../../../core/net/mac/contikimac.c:697: ret = phase_wait(&phase_list, packetbuf_addr(PACKETBUF_ADDR_RECEIVER),
   086D 75 82 19           2190 	mov	dpl,#0x19
   0870 12s00r00           2191 	lcall	_packetbuf_addr
   0873 AA 82              2192 	mov	r2,dpl
   0875 AB 83              2193 	mov	r3,dph
   0877 AF F0              2194 	mov	r7,b
   0879 E5*00              2195 	mov	a,_bp
   087B 24 FB              2196 	add	a,#0xfb
   087D F8                 2197 	mov	r0,a
   087E E6                 2198 	mov	a,@r0
   087F C0 E0              2199 	push	acc
   0881 08                 2200 	inc	r0
   0882 E6                 2201 	mov	a,@r0
   0883 C0 E0              2202 	push	acc
   0885 08                 2203 	inc	r0
   0886 E6                 2204 	mov	a,@r0
   0887 C0 E0              2205 	push	acc
   0889 A8*00              2206 	mov	r0,_bp
   088B 08                 2207 	inc	r0
   088C E6                 2208 	mov	a,@r0
   088D C0 E0              2209 	push	acc
   088F 08                 2210 	inc	r0
   0890 E6                 2211 	mov	a,@r0
   0891 C0 E0              2212 	push	acc
   0893 74 70              2213 	mov	a,#0x70
   0895 C0 E0              2214 	push	acc
   0897 E4                 2215 	clr	a
   0898 C0 E0              2216 	push	acc
   089A 74 42              2217 	mov	a,#0x42
   089C C0 E0              2218 	push	acc
   089E 74 0F              2219 	mov	a,#0x0F
   08A0 C0 E0              2220 	push	acc
   08A2 C0 02              2221 	push	ar2
   08A4 C0 03              2222 	push	ar3
   08A6 C0 07              2223 	push	ar7
   08A8 90s00r13           2224 	mov	dptr,#_phase_list
   08AB 75 F0 00           2225 	mov	b,#0x00
   08AE 12s00r00           2226 	lcall	_phase_wait
   08B1 AA 82              2227 	mov	r2,dpl
   08B3 E5 81              2228 	mov	a,sp
   08B5 24 F4              2229 	add	a,#0xf4
   08B7 F5 81              2230 	mov	sp,a
   08B9 7B 00              2231 	mov	r3,#0x00
                           2232 ;	../../../core/net/mac/contikimac.c:700: if(ret == PHASE_DEFERRED) {
   08BB BA 02 09           2233 	cjne	r2,#0x02,00132$
   08BE BB 00 06           2234 	cjne	r3,#0x00,00132$
                           2235 ;	../../../core/net/mac/contikimac.c:701: return MAC_TX_DEFERRED;
   08C1 90 00 03           2236 	mov	dptr,#0x0003
   08C4 02s0DrA4           2237 	ljmp	00210$
   08C7                    2238 00132$:
                           2239 ;	../../../core/net/mac/contikimac.c:703: if(ret != PHASE_UNKNOWN) {
   08C7 EA                 2240 	mov	a,r2
   08C8 4B                 2241 	orl	a,r3
   08C9 60 07              2242 	jz	00139$
                           2243 ;	../../../core/net/mac/contikimac.c:704: is_known_receiver = 1;
   08CB E5*00              2244 	mov	a,_bp
   08CD 24 0A              2245 	add	a,#0x0a
   08CF F8                 2246 	mov	r0,a
   08D0 76 01              2247 	mov	@r0,#0x01
   08D2                    2248 00139$:
                           2249 ;	../../../core/net/mac/contikimac.c:714: we_are_sending = 1;
   08D2 90s00r01           2250 	mov	dptr,#_we_are_sending
   08D5 74 01              2251 	mov	a,#0x01
   08D7 F0                 2252 	movx	@dptr,a
                           2253 ;	../../../core/net/mac/contikimac.c:721: if(NETSTACK_RADIO.receiving_packet() || NETSTACK_RADIO.pending_packet()) {
   08D8 90s00r0C           2254 	mov	dptr,#(_cc2430_rf_driver + 0x000c)
   08DB E4                 2255 	clr	a
   08DC 93                 2256 	movc	a,@a+dptr
   08DD FF                 2257 	mov	r7,a
   08DE A3                 2258 	inc	dptr
   08DF E4                 2259 	clr	a
   08E0 93                 2260 	movc	a,@a+dptr
   08E1 FC                 2261 	mov	r4,a
   08E2 8F 82              2262 	mov	dpl,r7
   08E4 8C 83              2263 	mov	dph,r4
   08E6 12s00r00           2264 	lcall	__sdcc_call_dptr
   08E9 AF 82              2265 	mov	r7,dpl
   08EB AC 83              2266 	mov	r4,dph
   08ED EF                 2267 	mov	a,r7
   08EE 4C                 2268 	orl	a,r4
   08EF 70 19              2269 	jnz	00141$
   08F1 90s00r0E           2270 	mov	dptr,#(_cc2430_rf_driver + 0x000e)
   08F4 E4                 2271 	clr	a
   08F5 93                 2272 	movc	a,@a+dptr
   08F6 FF                 2273 	mov	r7,a
   08F7 A3                 2274 	inc	dptr
   08F8 E4                 2275 	clr	a
   08F9 93                 2276 	movc	a,@a+dptr
   08FA FC                 2277 	mov	r4,a
   08FB 8F 82              2278 	mov	dpl,r7
   08FD 8C 83              2279 	mov	dph,r4
   08FF 12s00r00           2280 	lcall	__sdcc_call_dptr
   0902 AF 82              2281 	mov	r7,dpl
   0904 AC 83              2282 	mov	r4,dph
   0906 EF                 2283 	mov	a,r7
   0907 4C                 2284 	orl	a,r4
   0908 60 0B              2285 	jz	00142$
   090A                    2286 00141$:
                           2287 ;	../../../core/net/mac/contikimac.c:722: we_are_sending = 0;
   090A 90s00r01           2288 	mov	dptr,#_we_are_sending
   090D E4                 2289 	clr	a
   090E F0                 2290 	movx	@dptr,a
                           2291 ;	../../../core/net/mac/contikimac.c:725: return MAC_TX_COLLISION;
   090F 90 00 01           2292 	mov	dptr,#0x0001
   0912 02s0DrA4           2293 	ljmp	00210$
   0915                    2294 00142$:
                           2295 ;	../../../core/net/mac/contikimac.c:730: off();
   0915 12s00r2E           2296 	lcall	_off
                           2297 ;	../../../core/net/mac/contikimac.c:736: collisions = 0;
   0918 E5*00              2298 	mov	a,_bp
   091A 24 1C              2299 	add	a,#0x1c
   091C F8                 2300 	mov	r0,a
   091D 76 00              2301 	mov	@r0,#0x00
                           2302 ;	../../../core/net/mac/contikimac.c:738: got_strobe_ack = 0;
   091F 7A 00              2303 	mov	r2,#0x00
                           2304 ;	../../../core/net/mac/contikimac.c:740: if(packetbuf_attr(PACKETBUF_ATTR_PACKET_TYPE) !=
   0921 75 82 0E           2305 	mov	dpl,#0x0E
   0924 C0 02              2306 	push	ar2
   0926 12s00r00           2307 	lcall	_packetbuf_attr
   0929 AD 82              2308 	mov	r5,dpl
   092B AE 83              2309 	mov	r6,dph
   092D D0 02              2310 	pop	ar2
   092F BD 01 06           2311 	cjne	r5,#0x01,00285$
   0932 BE 00 03           2312 	cjne	r6,#0x00,00285$
   0935 02s0Ar1E           2313 	ljmp	00157$
   0938                    2314 00285$:
                           2315 ;	../../../core/net/mac/contikimac.c:741: PACKETBUF_ATTR_PACKET_TYPE_ACK && is_streaming == 0) {
   0938 90s01r90           2316 	mov	dptr,#_is_streaming
   093B E0                 2317 	movx	a,@dptr
   093C FD                 2318 	mov	r5,a
   093D 60 03              2319 	jz	00286$
   093F 02s0Ar1E           2320 	ljmp	00157$
   0942                    2321 00286$:
                           2322 ;	../../../core/net/mac/contikimac.c:743: for(i = 0; i < CCA_COUNT_MAX; ++i) {
   0942 E5*00              2323 	mov	a,_bp
   0944 24 0E              2324 	add	a,#0x0e
   0946 F8                 2325 	mov	r0,a
   0947 E4                 2326 	clr	a
   0948 F6                 2327 	mov	@r0,a
   0949 08                 2328 	inc	r0
   094A F6                 2329 	mov	@r0,a
   094B                    2330 00152$:
   094B E5*00              2331 	mov	a,_bp
   094D 24 0E              2332 	add	a,#0x0e
   094F F8                 2333 	mov	r0,a
   0950 C3                 2334 	clr	c
   0951 E6                 2335 	mov	a,@r0
   0952 94 02              2336 	subb	a,#0x02
   0954 08                 2337 	inc	r0
   0955 E6                 2338 	mov	a,@r0
   0956 64 80              2339 	xrl	a,#0x80
   0958 94 80              2340 	subb	a,#0x80
   095A 40 03              2341 	jc	00287$
   095C 02s0Ar1E           2342 	ljmp	00157$
   095F                    2343 00287$:
                           2344 ;	../../../core/net/mac/contikimac.c:744: t0 = RTIMER_NOW();
   095F AF E2              2345 	mov	r7,_T1CNTL
   0961 7E 00              2346 	mov	r6,#0x00
   0963 AD E3              2347 	mov	r5,_T1CNTH
   0965 E4                 2348 	clr	a
   0966 2F                 2349 	add	a,r7
   0967 FF                 2350 	mov	r7,a
   0968 ED                 2351 	mov	a,r5
   0969 3E                 2352 	addc	a,r6
   096A FE                 2353 	mov	r6,a
   096B E5*00              2354 	mov	a,_bp
   096D 24 03              2355 	add	a,#0x03
   096F F8                 2356 	mov	r0,a
   0970 A6 07              2357 	mov	@r0,ar7
   0972 08                 2358 	inc	r0
   0973 A6 06              2359 	mov	@r0,ar6
                           2360 ;	../../../core/net/mac/contikimac.c:745: on();
   0975 C0 02              2361 	push	ar2
   0977 12s00r00           2362 	lcall	_on
   097A D0 02              2363 	pop	ar2
                           2364 ;	../../../core/net/mac/contikimac.c:904: return ret;
                           2365 ;	../../../core/net/mac/contikimac.c:749: while(RTIMER_CLOCK_LT(RTIMER_NOW(), t0 + CCA_CHECK_TIME)) { }
   097C E5*00              2366 	mov	a,_bp
   097E 24 03              2367 	add	a,#0x03
   0980 F8                 2368 	mov	r0,a
   0981 E5*00              2369 	mov	a,_bp
   0983 24 19              2370 	add	a,#0x19
   0985 F9                 2371 	mov	r1,a
   0986 74 01              2372 	mov	a,#0x01
   0988 26                 2373 	add	a,@r0
   0989 F7                 2374 	mov	@r1,a
   098A E4                 2375 	clr	a
   098B 08                 2376 	inc	r0
   098C 36                 2377 	addc	a,@r0
   098D 09                 2378 	inc	r1
   098E F7                 2379 	mov	@r1,a
   098F                    2380 00144$:
   098F AE E2              2381 	mov	r6,_T1CNTL
   0991 7F 00              2382 	mov	r7,#0x00
   0993 AD E3              2383 	mov	r5,_T1CNTH
   0995 E4                 2384 	clr	a
   0996 FC                 2385 	mov	r4,a
   0997 2E                 2386 	add	a,r6
   0998 FE                 2387 	mov	r6,a
   0999 ED                 2388 	mov	a,r5
   099A 3F                 2389 	addc	a,r7
   099B FF                 2390 	mov	r7,a
   099C E5*00              2391 	mov	a,_bp
   099E 24 19              2392 	add	a,#0x19
   09A0 F8                 2393 	mov	r0,a
   09A1 EE                 2394 	mov	a,r6
   09A2 C3                 2395 	clr	c
   09A3 96                 2396 	subb	a,@r0
   09A4 FE                 2397 	mov	r6,a
   09A5 EF                 2398 	mov	a,r7
   09A6 08                 2399 	inc	r0
   09A7 96                 2400 	subb	a,@r0
   09A8 FF                 2401 	mov	r7,a
   09A9 20 E7 E3           2402 	jb	acc.7,00144$
                           2403 ;	../../../core/net/mac/contikimac.c:751: if(NETSTACK_RADIO.channel_clear() == 0) {
   09AC 90s00r0A           2404 	mov	dptr,#(_cc2430_rf_driver + 0x000a)
   09AF E4                 2405 	clr	a
   09B0 93                 2406 	movc	a,@a+dptr
   09B1 FC                 2407 	mov	r4,a
   09B2 A3                 2408 	inc	dptr
   09B3 E4                 2409 	clr	a
   09B4 93                 2410 	movc	a,@a+dptr
   09B5 FD                 2411 	mov	r5,a
   09B6 C0 02              2412 	push	ar2
   09B8 8C 82              2413 	mov	dpl,r4
   09BA 8D 83              2414 	mov	dph,r5
   09BC 12s00r00           2415 	lcall	__sdcc_call_dptr
   09BF AC 82              2416 	mov	r4,dpl
   09C1 AD 83              2417 	mov	r5,dph
   09C3 D0 02              2418 	pop	ar2
   09C5 EC                 2419 	mov	a,r4
   09C6 4D                 2420 	orl	a,r5
   09C7 70 10              2421 	jnz	00148$
                           2422 ;	../../../core/net/mac/contikimac.c:752: collisions++;
   09C9 E5*00              2423 	mov	a,_bp
   09CB 24 1C              2424 	add	a,#0x1c
   09CD F8                 2425 	mov	r0,a
   09CE 76 01              2426 	mov	@r0,#0x01
                           2427 ;	../../../core/net/mac/contikimac.c:753: off();
   09D0 C0 02              2428 	push	ar2
   09D2 12s00r2E           2429 	lcall	_off
   09D5 D0 02              2430 	pop	ar2
                           2431 ;	../../../core/net/mac/contikimac.c:754: break;
   09D7 80 45              2432 	sjmp	00157$
   09D9                    2433 00148$:
                           2434 ;	../../../core/net/mac/contikimac.c:756: off();
   09D9 C0 02              2435 	push	ar2
   09DB 12s00r2E           2436 	lcall	_off
   09DE D0 02              2437 	pop	ar2
                           2438 ;	../../../core/net/mac/contikimac.c:760: while(RTIMER_CLOCK_LT(RTIMER_NOW(), t0 + CCA_SLEEP_TIME + CCA_CHECK_TIME)) { }
   09E0 E5*00              2439 	mov	a,_bp
   09E2 24 03              2440 	add	a,#0x03
   09E4 F8                 2441 	mov	r0,a
   09E5 E5*00              2442 	mov	a,_bp
   09E7 24 19              2443 	add	a,#0x19
   09E9 F9                 2444 	mov	r1,a
   09EA 74 08              2445 	mov	a,#0x08
   09EC 26                 2446 	add	a,@r0
   09ED F7                 2447 	mov	@r1,a
   09EE E4                 2448 	clr	a
   09EF 08                 2449 	inc	r0
   09F0 36                 2450 	addc	a,@r0
   09F1 09                 2451 	inc	r1
   09F2 F7                 2452 	mov	@r1,a
   09F3                    2453 00149$:
   09F3 AE E2              2454 	mov	r6,_T1CNTL
   09F5 7F 00              2455 	mov	r7,#0x00
   09F7 AD E3              2456 	mov	r5,_T1CNTH
   09F9 E4                 2457 	clr	a
   09FA FC                 2458 	mov	r4,a
   09FB 2E                 2459 	add	a,r6
   09FC FE                 2460 	mov	r6,a
   09FD ED                 2461 	mov	a,r5
   09FE 3F                 2462 	addc	a,r7
   09FF FF                 2463 	mov	r7,a
   0A00 E5*00              2464 	mov	a,_bp
   0A02 24 19              2465 	add	a,#0x19
   0A04 F8                 2466 	mov	r0,a
   0A05 EE                 2467 	mov	a,r6
   0A06 C3                 2468 	clr	c
   0A07 96                 2469 	subb	a,@r0
   0A08 FE                 2470 	mov	r6,a
   0A09 EF                 2471 	mov	a,r7
   0A0A 08                 2472 	inc	r0
   0A0B 96                 2473 	subb	a,@r0
   0A0C FF                 2474 	mov	r7,a
   0A0D 20 E7 E3           2475 	jb	acc.7,00149$
                           2476 ;	../../../core/net/mac/contikimac.c:743: for(i = 0; i < CCA_COUNT_MAX; ++i) {
   0A10 E5*00              2477 	mov	a,_bp
   0A12 24 0E              2478 	add	a,#0x0e
   0A14 F8                 2479 	mov	r0,a
   0A15 06                 2480 	inc	@r0
   0A16 B6 00 02           2481 	cjne	@r0,#0x00,00292$
   0A19 08                 2482 	inc	r0
   0A1A 06                 2483 	inc	@r0
   0A1B                    2484 00292$:
   0A1B 02s09r4B           2485 	ljmp	00152$
   0A1E                    2486 00157$:
                           2487 ;	../../../core/net/mac/contikimac.c:765: if(collisions > 0) {
   0A1E E5*00              2488 	mov	a,_bp
   0A20 24 1C              2489 	add	a,#0x1c
   0A22 F8                 2490 	mov	r0,a
   0A23 E6                 2491 	mov	a,@r0
   0A24 60 0E              2492 	jz	00160$
                           2493 ;	../../../core/net/mac/contikimac.c:766: we_are_sending = 0;
   0A26 90s00r01           2494 	mov	dptr,#_we_are_sending
   0A29 E4                 2495 	clr	a
   0A2A F0                 2496 	movx	@dptr,a
                           2497 ;	../../../core/net/mac/contikimac.c:767: off();
   0A2B 12s00r2E           2498 	lcall	_off
                           2499 ;	../../../core/net/mac/contikimac.c:769: return MAC_TX_COLLISION;
   0A2E 90 00 01           2500 	mov	dptr,#0x0001
   0A31 02s0DrA4           2501 	ljmp	00210$
   0A34                    2502 00160$:
                           2503 ;	../../../core/net/mac/contikimac.c:772: if(!is_broadcast) {
   0A34 E5*00              2504 	mov	a,_bp
   0A36 24 09              2505 	add	a,#0x09
   0A38 F8                 2506 	mov	r0,a
   0A39 E6                 2507 	mov	a,@r0
   0A3A 70 07              2508 	jnz	00162$
                           2509 ;	../../../core/net/mac/contikimac.c:773: on();
   0A3C C0 02              2510 	push	ar2
   0A3E 12s00r00           2511 	lcall	_on
   0A41 D0 02              2512 	pop	ar2
   0A43                    2513 00162$:
                           2514 ;	../../../core/net/mac/contikimac.c:776: watchdog_periodic();
   0A43 C0 02              2515 	push	ar2
   0A45 12s00r00           2516 	lcall	_watchdog_periodic
   0A48 D0 02              2517 	pop	ar2
                           2518 ;	../../../core/net/mac/contikimac.c:777: t0 = RTIMER_NOW();
   0A4A AB E2              2519 	mov	r3,_T1CNTL
   0A4C 7D 00              2520 	mov	r5,#0x00
   0A4E AC E3              2521 	mov	r4,_T1CNTH
   0A50 E4                 2522 	clr	a
   0A51 2B                 2523 	add	a,r3
   0A52 FE                 2524 	mov	r6,a
   0A53 EC                 2525 	mov	a,r4
   0A54 3D                 2526 	addc	a,r5
   0A55 FC                 2527 	mov	r4,a
   0A56 E5*00              2528 	mov	a,_bp
   0A58 24 03              2529 	add	a,#0x03
   0A5A F8                 2530 	mov	r0,a
   0A5B A6 06              2531 	mov	@r0,ar6
   0A5D 08                 2532 	inc	r0
   0A5E A6 04              2533 	mov	@r0,ar4
                           2534 ;	../../../core/net/mac/contikimac.c:778: t = RTIMER_NOW();
   0A60 E5 E2              2535 	mov	a,_T1CNTL
   0A62 E5 E3              2536 	mov	a,_T1CNTH
                           2537 ;	../../../core/net/mac/contikimac.c:784: for(strobes = 0, collisions = 0;
   0A64 E5*00              2538 	mov	a,_bp
   0A66 24 1C              2539 	add	a,#0x1c
   0A68 F8                 2540 	mov	r0,a
   0A69 76 00              2541 	mov	@r0,#0x00
   0A6B E5*00              2542 	mov	a,_bp
   0A6D 24 03              2543 	add	a,#0x03
   0A6F F8                 2544 	mov	r0,a
   0A70 E5*00              2545 	mov	a,_bp
   0A72 24 1D              2546 	add	a,#0x1d
   0A74 F9                 2547 	mov	r1,a
   0A75 74 62              2548 	mov	a,#0x62
   0A77 26                 2549 	add	a,@r0
   0A78 F7                 2550 	mov	@r1,a
   0A79 74 0F              2551 	mov	a,#0x0F
   0A7B 08                 2552 	inc	r0
   0A7C 36                 2553 	addc	a,@r0
   0A7D 09                 2554 	inc	r1
   0A7E F7                 2555 	mov	@r1,a
   0A7F E5*00              2556 	mov	a,_bp
   0A81 24 03              2557 	add	a,#0x03
   0A83 F8                 2558 	mov	r0,a
   0A84 E5*00              2559 	mov	a,_bp
   0A86 24 19              2560 	add	a,#0x19
   0A88 F9                 2561 	mov	r1,a
   0A89 74 0D              2562 	mov	a,#0x0D
   0A8B 26                 2563 	add	a,@r0
   0A8C F7                 2564 	mov	@r1,a
   0A8D 74 03              2565 	mov	a,#0x03
   0A8F 08                 2566 	inc	r0
   0A90 36                 2567 	addc	a,@r0
   0A91 09                 2568 	inc	r1
   0A92 F7                 2569 	mov	@r1,a
   0A93 E5*00              2570 	mov	a,_bp
   0A95 24 1B              2571 	add	a,#0x1b
   0A97 F8                 2572 	mov	r0,a
   0A98 E5*00              2573 	mov	a,_bp
   0A9A 24 16              2574 	add	a,#0x16
   0A9C F6                 2575 	mov	@r0,a
   0A9D E5*00              2576 	mov	a,_bp
   0A9F 24 0B              2577 	add	a,#0x0b
   0AA1 F8                 2578 	mov	r0,a
   0AA2 76 00              2579 	mov	@r0,#0x00
   0AA4 7E 00              2580 	mov	r6,#0x00
   0AA6 7F 00              2581 	mov	r7,#0x00
   0AA8                    2582 00182$:
                           2583 ;	../../../core/net/mac/contikimac.c:785: got_strobe_ack == 0 && collisions == 0 &&
   0AA8 E5*00              2584 	mov	a,_bp
   0AAA 24 0B              2585 	add	a,#0x0b
   0AAC F8                 2586 	mov	r0,a
   0AAD E6                 2587 	mov	a,@r0
   0AAE 60 03              2588 	jz	00295$
   0AB0 02s0Dr22           2589 	ljmp	00191$
   0AB3                    2590 00295$:
                           2591 ;	../../../core/net/mac/contikimac.c:786: RTIMER_CLOCK_LT(RTIMER_NOW(), t0 + STROBE_TIME); strobes++) {
   0AB3 C0 06              2592 	push	ar6
   0AB5 C0 07              2593 	push	ar7
   0AB7 AE E2              2594 	mov	r6,_T1CNTL
   0AB9 7F 00              2595 	mov	r7,#0x00
   0ABB AD E3              2596 	mov	r5,_T1CNTH
   0ABD E4                 2597 	clr	a
   0ABE FC                 2598 	mov	r4,a
   0ABF 2E                 2599 	add	a,r6
   0AC0 FE                 2600 	mov	r6,a
   0AC1 ED                 2601 	mov	a,r5
   0AC2 3F                 2602 	addc	a,r7
   0AC3 FF                 2603 	mov	r7,a
   0AC4 E5*00              2604 	mov	a,_bp
   0AC6 24 1D              2605 	add	a,#0x1d
   0AC8 F8                 2606 	mov	r0,a
   0AC9 EE                 2607 	mov	a,r6
   0ACA C3                 2608 	clr	c
   0ACB 96                 2609 	subb	a,@r0
   0ACC EF                 2610 	mov	a,r7
   0ACD 08                 2611 	inc	r0
   0ACE 96                 2612 	subb	a,@r0
   0ACF D0 07              2613 	pop	ar7
   0AD1 D0 06              2614 	pop	ar6
   0AD3 20 E7 03           2615 	jb	acc.7,00296$
   0AD6 02s0Dr22           2616 	ljmp	00191$
   0AD9                    2617 00296$:
                           2618 ;	../../../core/net/mac/contikimac.c:789: watchdog_periodic();
   0AD9 C0 02              2619 	push	ar2
   0ADB C0 06              2620 	push	ar6
   0ADD C0 07              2621 	push	ar7
   0ADF 12s00r00           2622 	lcall	_watchdog_periodic
   0AE2 D0 07              2623 	pop	ar7
   0AE4 D0 06              2624 	pop	ar6
   0AE6 D0 02              2625 	pop	ar2
                           2626 ;	../../../core/net/mac/contikimac.c:791: if(is_known_receiver && !RTIMER_CLOCK_LT(RTIMER_NOW(), t0 + MAX_PHASE_STROBE_TIME)) {
   0AE8 E5*00              2627 	mov	a,_bp
   0AEA 24 0A              2628 	add	a,#0x0a
   0AEC F8                 2629 	mov	r0,a
   0AED E6                 2630 	mov	a,@r0
   0AEE 60 27              2631 	jz	00164$
   0AF0 C0 06              2632 	push	ar6
   0AF2 C0 07              2633 	push	ar7
   0AF4 AC E2              2634 	mov	r4,_T1CNTL
   0AF6 7D 00              2635 	mov	r5,#0x00
   0AF8 AF E3              2636 	mov	r7,_T1CNTH
   0AFA E4                 2637 	clr	a
   0AFB 2C                 2638 	add	a,r4
   0AFC FC                 2639 	mov	r4,a
   0AFD EF                 2640 	mov	a,r7
   0AFE 3D                 2641 	addc	a,r5
   0AFF FD                 2642 	mov	r5,a
   0B00 E5*00              2643 	mov	a,_bp
   0B02 24 19              2644 	add	a,#0x19
   0B04 F8                 2645 	mov	r0,a
   0B05 EC                 2646 	mov	a,r4
   0B06 C3                 2647 	clr	c
   0B07 96                 2648 	subb	a,@r0
   0B08 FC                 2649 	mov	r4,a
   0B09 ED                 2650 	mov	a,r5
   0B0A 08                 2651 	inc	r0
   0B0B 96                 2652 	subb	a,@r0
   0B0C FD                 2653 	mov	r5,a
   0B0D D0 07              2654 	pop	ar7
   0B0F D0 06              2655 	pop	ar6
   0B11 20 E7 03           2656 	jb	acc.7,00298$
   0B14 02s0Dr22           2657 	ljmp	00191$
   0B17                    2658 00298$:
                           2659 ;	../../../core/net/mac/contikimac.c:792: break;
   0B17                    2660 00164$:
                           2661 ;	../../../core/net/mac/contikimac.c:797: t = RTIMER_NOW();
   0B17 C0 06              2662 	push	ar6
   0B19 C0 07              2663 	push	ar7
   0B1B E5 E2              2664 	mov	a,_T1CNTL
   0B1D E5 E3              2665 	mov	a,_T1CNTH
                           2666 ;	../../../core/net/mac/contikimac.c:801: rtimer_clock_t now = RTIMER_NOW();
   0B1F AC E2              2667 	mov	r4,_T1CNTL
   0B21 7D 00              2668 	mov	r5,#0x00
   0B23 AF E3              2669 	mov	r7,_T1CNTH
   0B25 E4                 2670 	clr	a
   0B26 FE                 2671 	mov	r6,a
   0B27 2C                 2672 	add	a,r4
   0B28 FC                 2673 	mov	r4,a
   0B29 EF                 2674 	mov	a,r7
   0B2A 3D                 2675 	addc	a,r5
   0B2B FD                 2676 	mov	r5,a
   0B2C E5*00              2677 	mov	a,_bp
   0B2E 24 12              2678 	add	a,#0x12
   0B30 F8                 2679 	mov	r0,a
   0B31 A6 04              2680 	mov	@r0,ar4
   0B33 08                 2681 	inc	r0
   0B34 A6 05              2682 	mov	@r0,ar5
                           2683 ;	../../../core/net/mac/contikimac.c:804: ret = NETSTACK_RADIO.transmit(transmit_len);
   0B36 90s00r04           2684 	mov	dptr,#(_cc2430_rf_driver + 0x0004)
   0B39 E4                 2685 	clr	a
   0B3A 93                 2686 	movc	a,@a+dptr
   0B3B FC                 2687 	mov	r4,a
   0B3C A3                 2688 	inc	dptr
   0B3D E4                 2689 	clr	a
   0B3E 93                 2690 	movc	a,@a+dptr
   0B3F FD                 2691 	mov	r5,a
   0B40 C0 02              2692 	push	ar2
   0B42 C0 04              2693 	push	ar4
   0B44 C0 05              2694 	push	ar5
   0B46 C0 06              2695 	push	ar6
   0B48 C0 07              2696 	push	ar7
   0B4A 74r61              2697 	mov	a,#00299$
   0B4C C0 E0              2698 	push	acc
   0B4E 74s0B              2699 	mov	a,#(00299$ >> 8)
   0B50 C0 E0              2700 	push	acc
   0B52 C0 04              2701 	push	ar4
   0B54 C0 05              2702 	push	ar5
   0B56 E5*00              2703 	mov	a,_bp
   0B58 24 0C              2704 	add	a,#0x0c
   0B5A F8                 2705 	mov	r0,a
   0B5B 86 82              2706 	mov	dpl,@r0
   0B5D 08                 2707 	inc	r0
   0B5E 86 83              2708 	mov	dph,@r0
   0B60 22                 2709 	ret
   0B61                    2710 00299$:
   0B61 C8                 2711 	xch	a,r0
   0B62 E5*00              2712 	mov	a,_bp
   0B64 24 14              2713 	add	a,#0x14
   0B66 C8                 2714 	xch	a,r0
   0B67 A6 82              2715 	mov	@r0,dpl
   0B69 08                 2716 	inc	r0
   0B6A A6 83              2717 	mov	@r0,dph
   0B6C D0 07              2718 	pop	ar7
   0B6E D0 06              2719 	pop	ar6
   0B70 D0 05              2720 	pop	ar5
   0B72 D0 04              2721 	pop	ar4
   0B74 D0 02              2722 	pop	ar2
                           2723 ;	../../../core/net/mac/contikimac.c:806: wt = RTIMER_NOW();
   0B76 AC E2              2724 	mov	r4,_T1CNTL
   0B78 7D 00              2725 	mov	r5,#0x00
   0B7A AF E3              2726 	mov	r7,_T1CNTH
   0B7C E4                 2727 	clr	a
   0B7D 2C                 2728 	add	a,r4
   0B7E FC                 2729 	mov	r4,a
   0B7F EF                 2730 	mov	a,r7
   0B80 3D                 2731 	addc	a,r5
   0B81 FD                 2732 	mov	r5,a
   0B82 E5*00              2733 	mov	a,_bp
   0B84 24 10              2734 	add	a,#0x10
   0B86 F8                 2735 	mov	r0,a
   0B87 A6 04              2736 	mov	@r0,ar4
   0B89 08                 2737 	inc	r0
   0B8A A6 05              2738 	mov	@r0,ar5
                           2739 ;	../../../core/net/mac/contikimac.c:904: return ret;
   0B8C D0 07              2740 	pop	ar7
   0B8E D0 06              2741 	pop	ar6
                           2742 ;	../../../core/net/mac/contikimac.c:810: while(RTIMER_CLOCK_LT(RTIMER_NOW(), wt + INTER_PACKET_INTERVAL)) { }
   0B90 E5*00              2743 	mov	a,_bp
   0B92 24 10              2744 	add	a,#0x10
   0B94 F8                 2745 	mov	r0,a
   0B95 E5*00              2746 	mov	a,_bp
   0B97 24 1F              2747 	add	a,#0x1f
   0B99 F9                 2748 	mov	r1,a
   0B9A 74 03              2749 	mov	a,#0x03
   0B9C 26                 2750 	add	a,@r0
   0B9D F7                 2751 	mov	@r1,a
   0B9E E4                 2752 	clr	a
   0B9F 08                 2753 	inc	r0
   0BA0 36                 2754 	addc	a,@r0
   0BA1 09                 2755 	inc	r1
   0BA2 F7                 2756 	mov	@r1,a
   0BA3                    2757 00166$:
   0BA3 C0 06              2758 	push	ar6
   0BA5 C0 07              2759 	push	ar7
   0BA7 AE E2              2760 	mov	r6,_T1CNTL
   0BA9 7F 00              2761 	mov	r7,#0x00
   0BAB AD E3              2762 	mov	r5,_T1CNTH
   0BAD E4                 2763 	clr	a
   0BAE FC                 2764 	mov	r4,a
   0BAF 2E                 2765 	add	a,r6
   0BB0 FE                 2766 	mov	r6,a
   0BB1 ED                 2767 	mov	a,r5
   0BB2 3F                 2768 	addc	a,r7
   0BB3 FF                 2769 	mov	r7,a
   0BB4 E5*00              2770 	mov	a,_bp
   0BB6 24 1F              2771 	add	a,#0x1f
   0BB8 F8                 2772 	mov	r0,a
   0BB9 EE                 2773 	mov	a,r6
   0BBA C3                 2774 	clr	c
   0BBB 96                 2775 	subb	a,@r0
   0BBC EF                 2776 	mov	a,r7
   0BBD 08                 2777 	inc	r0
   0BBE 96                 2778 	subb	a,@r0
   0BBF D0 07              2779 	pop	ar7
   0BC1 D0 06              2780 	pop	ar6
   0BC3 20 E7 DD           2781 	jb	acc.7,00166$
                           2782 ;	../../../core/net/mac/contikimac.c:812: if(!is_broadcast && (NETSTACK_RADIO.receiving_packet() ||
   0BC6 E5*00              2783 	mov	a,_bp
   0BC8 24 09              2784 	add	a,#0x09
   0BCA F8                 2785 	mov	r0,a
   0BCB E6                 2786 	mov	a,@r0
   0BCC 60 03              2787 	jz	00301$
   0BCE 02s0Dr1A           2788 	ljmp	00176$
   0BD1                    2789 00301$:
   0BD1 90s00r0C           2790 	mov	dptr,#(_cc2430_rf_driver + 0x000c)
   0BD4 E4                 2791 	clr	a
   0BD5 93                 2792 	movc	a,@a+dptr
   0BD6 FC                 2793 	mov	r4,a
   0BD7 A3                 2794 	inc	dptr
   0BD8 E4                 2795 	clr	a
   0BD9 93                 2796 	movc	a,@a+dptr
   0BDA FD                 2797 	mov	r5,a
   0BDB C0 02              2798 	push	ar2
   0BDD C0 06              2799 	push	ar6
   0BDF C0 07              2800 	push	ar7
   0BE1 8C 82              2801 	mov	dpl,r4
   0BE3 8D 83              2802 	mov	dph,r5
   0BE5 12s00r00           2803 	lcall	__sdcc_call_dptr
   0BE8 AC 82              2804 	mov	r4,dpl
   0BEA AD 83              2805 	mov	r5,dph
   0BEC D0 07              2806 	pop	ar7
   0BEE D0 06              2807 	pop	ar6
   0BF0 D0 02              2808 	pop	ar2
   0BF2 EC                 2809 	mov	a,r4
   0BF3 4D                 2810 	orl	a,r5
   0BF4 70 4D              2811 	jnz	00175$
                           2812 ;	../../../core/net/mac/contikimac.c:813: NETSTACK_RADIO.pending_packet() ||
   0BF6 90s00r0E           2813 	mov	dptr,#(_cc2430_rf_driver + 0x000e)
   0BF9 E4                 2814 	clr	a
   0BFA 93                 2815 	movc	a,@a+dptr
   0BFB FC                 2816 	mov	r4,a
   0BFC A3                 2817 	inc	dptr
   0BFD E4                 2818 	clr	a
   0BFE 93                 2819 	movc	a,@a+dptr
   0BFF FD                 2820 	mov	r5,a
   0C00 C0 02              2821 	push	ar2
   0C02 C0 06              2822 	push	ar6
   0C04 C0 07              2823 	push	ar7
   0C06 8C 82              2824 	mov	dpl,r4
   0C08 8D 83              2825 	mov	dph,r5
   0C0A 12s00r00           2826 	lcall	__sdcc_call_dptr
   0C0D AC 82              2827 	mov	r4,dpl
   0C0F AD 83              2828 	mov	r5,dph
   0C11 D0 07              2829 	pop	ar7
   0C13 D0 06              2830 	pop	ar6
   0C15 D0 02              2831 	pop	ar2
   0C17 EC                 2832 	mov	a,r4
   0C18 4D                 2833 	orl	a,r5
   0C19 70 28              2834 	jnz	00175$
                           2835 ;	../../../core/net/mac/contikimac.c:814: NETSTACK_RADIO.channel_clear() == 0)) {
   0C1B 90s00r0A           2836 	mov	dptr,#(_cc2430_rf_driver + 0x000a)
   0C1E E4                 2837 	clr	a
   0C1F 93                 2838 	movc	a,@a+dptr
   0C20 FC                 2839 	mov	r4,a
   0C21 A3                 2840 	inc	dptr
   0C22 E4                 2841 	clr	a
   0C23 93                 2842 	movc	a,@a+dptr
   0C24 FD                 2843 	mov	r5,a
   0C25 C0 02              2844 	push	ar2
   0C27 C0 06              2845 	push	ar6
   0C29 C0 07              2846 	push	ar7
   0C2B 8C 82              2847 	mov	dpl,r4
   0C2D 8D 83              2848 	mov	dph,r5
   0C2F 12s00r00           2849 	lcall	__sdcc_call_dptr
   0C32 AC 82              2850 	mov	r4,dpl
   0C34 AD 83              2851 	mov	r5,dph
   0C36 D0 07              2852 	pop	ar7
   0C38 D0 06              2853 	pop	ar6
   0C3A D0 02              2854 	pop	ar2
   0C3C EC                 2855 	mov	a,r4
   0C3D 4D                 2856 	orl	a,r5
   0C3E 60 03              2857 	jz	00307$
   0C40 02s0Dr1A           2858 	ljmp	00176$
   0C43                    2859 00307$:
   0C43                    2860 00175$:
                           2861 ;	../../../core/net/mac/contikimac.c:816: wt = RTIMER_NOW();
   0C43 C0 06              2862 	push	ar6
   0C45 C0 07              2863 	push	ar7
   0C47 AC E2              2864 	mov	r4,_T1CNTL
   0C49 7D 00              2865 	mov	r5,#0x00
   0C4B AF E3              2866 	mov	r7,_T1CNTH
   0C4D E4                 2867 	clr	a
   0C4E 2C                 2868 	add	a,r4
   0C4F FC                 2869 	mov	r4,a
   0C50 EF                 2870 	mov	a,r7
   0C51 3D                 2871 	addc	a,r5
   0C52 FD                 2872 	mov	r5,a
   0C53 E5*00              2873 	mov	a,_bp
   0C55 24 10              2874 	add	a,#0x10
   0C57 F8                 2875 	mov	r0,a
   0C58 A6 04              2876 	mov	@r0,ar4
   0C5A 08                 2877 	inc	r0
   0C5B A6 05              2878 	mov	@r0,ar5
                           2879 ;	../../../core/net/mac/contikimac.c:904: return ret;
   0C5D D0 07              2880 	pop	ar7
   0C5F D0 06              2881 	pop	ar6
                           2882 ;	../../../core/net/mac/contikimac.c:820: while(RTIMER_CLOCK_LT(RTIMER_NOW(), wt + AFTER_ACK_DETECTECT_WAIT_TIME)) { }
   0C61 E5*00              2883 	mov	a,_bp
   0C63 24 10              2884 	add	a,#0x10
   0C65 F8                 2885 	mov	r0,a
   0C66 E5*00              2886 	mov	a,_bp
   0C68 24 1F              2887 	add	a,#0x1f
   0C6A F9                 2888 	mov	r1,a
   0C6B 74 0A              2889 	mov	a,#0x0A
   0C6D 26                 2890 	add	a,@r0
   0C6E F7                 2891 	mov	@r1,a
   0C6F E4                 2892 	clr	a
   0C70 08                 2893 	inc	r0
   0C71 36                 2894 	addc	a,@r0
   0C72 09                 2895 	inc	r1
   0C73 F7                 2896 	mov	@r1,a
   0C74                    2897 00169$:
   0C74 C0 06              2898 	push	ar6
   0C76 C0 07              2899 	push	ar7
   0C78 AE E2              2900 	mov	r6,_T1CNTL
   0C7A 7F 00              2901 	mov	r7,#0x00
   0C7C AD E3              2902 	mov	r5,_T1CNTH
   0C7E E4                 2903 	clr	a
   0C7F FC                 2904 	mov	r4,a
   0C80 2E                 2905 	add	a,r6
   0C81 FE                 2906 	mov	r6,a
   0C82 ED                 2907 	mov	a,r5
   0C83 3F                 2908 	addc	a,r7
   0C84 FF                 2909 	mov	r7,a
   0C85 E5*00              2910 	mov	a,_bp
   0C87 24 1F              2911 	add	a,#0x1f
   0C89 F8                 2912 	mov	r0,a
   0C8A EE                 2913 	mov	a,r6
   0C8B C3                 2914 	clr	c
   0C8C 96                 2915 	subb	a,@r0
   0C8D EF                 2916 	mov	a,r7
   0C8E 08                 2917 	inc	r0
   0C8F 96                 2918 	subb	a,@r0
   0C90 D0 07              2919 	pop	ar7
   0C92 D0 06              2920 	pop	ar6
   0C94 20 E7 DD           2921 	jb	acc.7,00169$
                           2922 ;	../../../core/net/mac/contikimac.c:822: len = NETSTACK_RADIO.read(ackbuf, ACK_LEN);
   0C97 C0 06              2923 	push	ar6
   0C99 C0 07              2924 	push	ar7
   0C9B 90s00r08           2925 	mov	dptr,#(_cc2430_rf_driver + 0x0008)
   0C9E E4                 2926 	clr	a
   0C9F 93                 2927 	movc	a,@a+dptr
   0CA0 FB                 2928 	mov	r3,a
   0CA1 A3                 2929 	inc	dptr
   0CA2 E4                 2930 	clr	a
   0CA3 93                 2931 	movc	a,@a+dptr
   0CA4 FD                 2932 	mov	r5,a
   0CA5 E5*00              2933 	mov	a,_bp
   0CA7 24 1B              2934 	add	a,#0x1b
   0CA9 F8                 2935 	mov	r0,a
   0CAA 86 06              2936 	mov	ar6,@r0
   0CAC 7F 00              2937 	mov	r7,#0x00
   0CAE 7C 40              2938 	mov	r4,#0x40
   0CB0 C0 02              2939 	push	ar2
   0CB2 C0 03              2940 	push	ar3
   0CB4 C0 06              2941 	push	ar6
   0CB6 C0 07              2942 	push	ar7
   0CB8 74 03              2943 	mov	a,#0x03
   0CBA C0 E0              2944 	push	acc
   0CBC E4                 2945 	clr	a
   0CBD C0 E0              2946 	push	acc
   0CBF 74rD2              2947 	mov	a,#00309$
   0CC1 C0 E0              2948 	push	acc
   0CC3 74s0C              2949 	mov	a,#(00309$ >> 8)
   0CC5 C0 E0              2950 	push	acc
   0CC7 C0 03              2951 	push	ar3
   0CC9 C0 05              2952 	push	ar5
   0CCB 8E 82              2953 	mov	dpl,r6
   0CCD 8F 83              2954 	mov	dph,r7
   0CCF 8C F0              2955 	mov	b,r4
   0CD1 22                 2956 	ret
   0CD2                    2957 00309$:
   0CD2 AC 82              2958 	mov	r4,dpl
   0CD4 AD 83              2959 	mov	r5,dph
   0CD6 15 81              2960 	dec	sp
   0CD8 15 81              2961 	dec	sp
   0CDA D0 07              2962 	pop	ar7
   0CDC D0 06              2963 	pop	ar6
   0CDE D0 03              2964 	pop	ar3
   0CE0 D0 02              2965 	pop	ar2
                           2966 ;	../../../core/net/mac/contikimac.c:823: if(len == ACK_LEN) {
   0CE2 BC 03 05           2967 	cjne	r4,#0x03,00310$
   0CE5 BD 00 02           2968 	cjne	r5,#0x00,00310$
   0CE8 80 06              2969 	sjmp	00311$
   0CEA                    2970 00310$:
   0CEA D0 07              2971 	pop	ar7
   0CEC D0 06              2972 	pop	ar6
   0CEE 80 18              2973 	sjmp	00173$
   0CF0                    2974 00311$:
   0CF0 D0 07              2975 	pop	ar7
   0CF2 D0 06              2976 	pop	ar6
                           2977 ;	../../../core/net/mac/contikimac.c:824: got_strobe_ack = 1;
   0CF4 7A 01              2978 	mov	r2,#0x01
                           2979 ;	../../../core/net/mac/contikimac.c:826: encounter_time = now;
   0CF6 E5*00              2980 	mov	a,_bp
   0CF8 24 12              2981 	add	a,#0x12
   0CFA F8                 2982 	mov	r0,a
   0CFB E5*00              2983 	mov	a,_bp
   0CFD 24 05              2984 	add	a,#0x05
   0CFF F9                 2985 	mov	r1,a
   0D00 E6                 2986 	mov	a,@r0
   0D01 F7                 2987 	mov	@r1,a
   0D02 08                 2988 	inc	r0
   0D03 09                 2989 	inc	r1
   0D04 E6                 2990 	mov	a,@r0
   0D05 F7                 2991 	mov	@r1,a
                           2992 ;	../../../core/net/mac/contikimac.c:827: break;
   0D06 80 1A              2993 	sjmp	00191$
   0D08                    2994 00173$:
                           2995 ;	../../../core/net/mac/contikimac.c:830: collisions++;
   0D08 E5*00              2996 	mov	a,_bp
   0D0A 24 0B              2997 	add	a,#0x0b
   0D0C F8                 2998 	mov	r0,a
   0D0D 06                 2999 	inc	@r0
   0D0E E5*00              3000 	mov	a,_bp
   0D10 24 0B              3001 	add	a,#0x0b
   0D12 F8                 3002 	mov	r0,a
   0D13 E5*00              3003 	mov	a,_bp
   0D15 24 1C              3004 	add	a,#0x1c
   0D17 F9                 3005 	mov	r1,a
   0D18 E6                 3006 	mov	a,@r0
   0D19 F7                 3007 	mov	@r1,a
   0D1A                    3008 00176$:
                           3009 ;	../../../core/net/mac/contikimac.c:786: RTIMER_CLOCK_LT(RTIMER_NOW(), t0 + STROBE_TIME); strobes++) {
   0D1A 0E                 3010 	inc	r6
   0D1B BE 00 01           3011 	cjne	r6,#0x00,00312$
   0D1E 0F                 3012 	inc	r7
   0D1F                    3013 00312$:
   0D1F 02s0ArA8           3014 	ljmp	00182$
                           3015 ;	../../../core/net/mac/contikimac.c:845: off();
   0D22                    3016 00191$:
                           3017 ;	../../../core/net/mac/contikimac.c:848: off();
   0D22 C0 02              3018 	push	ar2
   0D24 12s00r2E           3019 	lcall	_off
   0D27 D0 02              3020 	pop	ar2
                           3021 ;	../../../core/net/mac/contikimac.c:871: we_are_sending = 0;
   0D29 90s00r01           3022 	mov	dptr,#_we_are_sending
   0D2C E4                 3023 	clr	a
   0D2D F0                 3024 	movx	@dptr,a
                           3025 ;	../../../core/net/mac/contikimac.c:876: if(collisions > 0) {
   0D2E E5*00              3026 	mov	a,_bp
   0D30 24 1C              3027 	add	a,#0x1c
   0D32 F8                 3028 	mov	r0,a
   0D33 E6                 3029 	mov	a,@r0
   0D34 60 06              3030 	jz	00198$
                           3031 ;	../../../core/net/mac/contikimac.c:877: ret = MAC_TX_COLLISION;
   0D36 7A 01              3032 	mov	r2,#0x01
   0D38 7B 00              3033 	mov	r3,#0x00
   0D3A 80 14              3034 	sjmp	00208$
   0D3C                    3035 00198$:
                           3036 ;	../../../core/net/mac/contikimac.c:878: } else if(!is_broadcast && !got_strobe_ack) {
   0D3C E5*00              3037 	mov	a,_bp
   0D3E 24 09              3038 	add	a,#0x09
   0D40 F8                 3039 	mov	r0,a
   0D41 E6                 3040 	mov	a,@r0
   0D42 70 08              3041 	jnz	00194$
   0D44 EA                 3042 	mov	a,r2
                           3043 ;	../../../core/net/mac/contikimac.c:879: ret = MAC_TX_NOACK;
   0D45 70 05              3044 	jnz	00194$
   0D47 7A 02              3045 	mov	r2,#0x02
   0D49 FB                 3046 	mov	r3,a
   0D4A 80 04              3047 	sjmp	00208$
   0D4C                    3048 00194$:
                           3049 ;	../../../core/net/mac/contikimac.c:881: ret = MAC_TX_OK;
   0D4C 7A 00              3050 	mov	r2,#0x00
   0D4E 7B 00              3051 	mov	r3,#0x00
                           3052 ;	../../../core/net/mac/contikimac.c:892: phase_update(&phase_list, packetbuf_addr(PACKETBUF_ADDR_RECEIVER), encounter_time,
   0D50                    3053 00208$:
                           3054 ;	../../../core/net/mac/contikimac.c:896: if(collisions == 0 && is_streaming == 0) {
   0D50 E5*00              3055 	mov	a,_bp
   0D52 24 1C              3056 	add	a,#0x1c
   0D54 F8                 3057 	mov	r0,a
   0D55 E6                 3058 	mov	a,@r0
   0D56 70 48              3059 	jnz	00209$
   0D58 90s01r90           3060 	mov	dptr,#_is_streaming
   0D5B E0                 3061 	movx	a,@dptr
   0D5C FC                 3062 	mov	r4,a
   0D5D 70 41              3063 	jnz	00209$
                           3064 ;	../../../core/net/mac/contikimac.c:897: phase_update(&phase_list, packetbuf_addr(PACKETBUF_ADDR_RECEIVER), encounter_time,
   0D5F 75 82 19           3065 	mov	dpl,#0x19
   0D62 C0 02              3066 	push	ar2
   0D64 C0 03              3067 	push	ar3
   0D66 12s00r00           3068 	lcall	_packetbuf_addr
   0D69 AC 82              3069 	mov	r4,dpl
   0D6B AD 83              3070 	mov	r5,dph
   0D6D AE F0              3071 	mov	r6,b
   0D6F E5*00              3072 	mov	a,_bp
   0D71 24 14              3073 	add	a,#0x14
   0D73 F8                 3074 	mov	r0,a
   0D74 E6                 3075 	mov	a,@r0
   0D75 C0 E0              3076 	push	acc
   0D77 08                 3077 	inc	r0
   0D78 E6                 3078 	mov	a,@r0
   0D79 C0 E0              3079 	push	acc
   0D7B E5*00              3080 	mov	a,_bp
   0D7D 24 05              3081 	add	a,#0x05
   0D7F F8                 3082 	mov	r0,a
   0D80 E6                 3083 	mov	a,@r0
   0D81 C0 E0              3084 	push	acc
   0D83 08                 3085 	inc	r0
   0D84 E6                 3086 	mov	a,@r0
   0D85 C0 E0              3087 	push	acc
   0D87 C0 04              3088 	push	ar4
   0D89 C0 05              3089 	push	ar5
   0D8B C0 06              3090 	push	ar6
   0D8D 90s00r13           3091 	mov	dptr,#_phase_list
   0D90 75 F0 00           3092 	mov	b,#0x00
   0D93 12s00r00           3093 	lcall	_phase_update
   0D96 E5 81              3094 	mov	a,sp
   0D98 24 F9              3095 	add	a,#0xf9
   0D9A F5 81              3096 	mov	sp,a
   0D9C D0 03              3097 	pop	ar3
   0D9E D0 02              3098 	pop	ar2
   0DA0                    3099 00209$:
                           3100 ;	../../../core/net/mac/contikimac.c:904: return ret;
   0DA0 8A 82              3101 	mov	dpl,r2
   0DA2 8B 83              3102 	mov	dph,r3
   0DA4                    3103 00210$:
   0DA4 85*00 81           3104 	mov	sp,_bp
   0DA7 D0*00              3105 	pop	_bp
   0DA9 22                 3106 	ret
                           3107 ;------------------------------------------------------------
                           3108 ;Allocation info for local variables in function 'qsend_packet'
                           3109 ;------------------------------------------------------------
                           3110 ;ptr                       Allocated to stack - offset -5
                           3111 ;sent                      Allocated to registers r2 r3 
                           3112 ;ret                       Allocated to registers r4 r5 
                           3113 ;------------------------------------------------------------
                           3114 ;	../../../core/net/mac/contikimac.c:908: qsend_packet(mac_callback_t sent, void *ptr)
                           3115 ;	-----------------------------------------
                           3116 ;	 function qsend_packet
                           3117 ;	-----------------------------------------
   0DAA                    3118 _qsend_packet:
   0DAA C0*00              3119 	push	_bp
   0DAC 85 81*00           3120 	mov	_bp,sp
   0DAF AA 82              3121 	mov	r2,dpl
   0DB1 AB 83              3122 	mov	r3,dph
                           3123 ;	../../../core/net/mac/contikimac.c:910: int ret = send_packet(sent, ptr);
   0DB3 C0 02              3124 	push	ar2
   0DB5 C0 03              3125 	push	ar3
   0DB7 E5*00              3126 	mov	a,_bp
   0DB9 24 FB              3127 	add	a,#0xfb
   0DBB F8                 3128 	mov	r0,a
   0DBC E6                 3129 	mov	a,@r0
   0DBD C0 E0              3130 	push	acc
   0DBF 08                 3131 	inc	r0
   0DC0 E6                 3132 	mov	a,@r0
   0DC1 C0 E0              3133 	push	acc
   0DC3 08                 3134 	inc	r0
   0DC4 E6                 3135 	mov	a,@r0
   0DC5 C0 E0              3136 	push	acc
   0DC7 8A 82              3137 	mov	dpl,r2
   0DC9 8B 83              3138 	mov	dph,r3
   0DCB 12s05rAC           3139 	lcall	_send_packet
   0DCE AC 82              3140 	mov	r4,dpl
   0DD0 AD 83              3141 	mov	r5,dph
   0DD2 15 81              3142 	dec	sp
   0DD4 15 81              3143 	dec	sp
   0DD6 15 81              3144 	dec	sp
   0DD8 D0 03              3145 	pop	ar3
   0DDA D0 02              3146 	pop	ar2
                           3147 ;	../../../core/net/mac/contikimac.c:911: if(ret != MAC_TX_DEFERRED) {
   0DDC BC 03 05           3148 	cjne	r4,#0x03,00106$
   0DDF BD 00 02           3149 	cjne	r5,#0x00,00106$
   0DE2 80 28              3150 	sjmp	00103$
   0DE4                    3151 00106$:
                           3152 ;	../../../core/net/mac/contikimac.c:912: mac_call_sent_callback(sent, ptr, ret, 1);
   0DE4 74 01              3153 	mov	a,#0x01
   0DE6 C0 E0              3154 	push	acc
   0DE8 E4                 3155 	clr	a
   0DE9 C0 E0              3156 	push	acc
   0DEB C0 04              3157 	push	ar4
   0DED C0 05              3158 	push	ar5
   0DEF E5*00              3159 	mov	a,_bp
   0DF1 24 FB              3160 	add	a,#0xfb
   0DF3 F8                 3161 	mov	r0,a
   0DF4 E6                 3162 	mov	a,@r0
   0DF5 C0 E0              3163 	push	acc
   0DF7 08                 3164 	inc	r0
   0DF8 E6                 3165 	mov	a,@r0
   0DF9 C0 E0              3166 	push	acc
   0DFB 08                 3167 	inc	r0
   0DFC E6                 3168 	mov	a,@r0
   0DFD C0 E0              3169 	push	acc
   0DFF 8A 82              3170 	mov	dpl,r2
   0E01 8B 83              3171 	mov	dph,r3
   0E03 12s00r00           3172 	lcall	_mac_call_sent_callback
   0E06 E5 81              3173 	mov	a,sp
   0E08 24 F9              3174 	add	a,#0xf9
   0E0A F5 81              3175 	mov	sp,a
   0E0C                    3176 00103$:
   0E0C D0*00              3177 	pop	_bp
   0E0E 22                 3178 	ret
                           3179 ;------------------------------------------------------------
                           3180 ;Allocation info for local variables in function 'input_packet'
                           3181 ;------------------------------------------------------------
                           3182 ;chdr                      Allocated to registers r2 r3 r4 
                           3183 ;i                         Allocated to stack - offset 1
                           3184 ;sloc0                     Allocated to stack - offset 3
                           3185 ;sloc1                     Allocated to stack - offset 5
                           3186 ;------------------------------------------------------------
                           3187 ;	../../../core/net/mac/contikimac.c:917: input_packet(void)
                           3188 ;	-----------------------------------------
                           3189 ;	 function input_packet
                           3190 ;	-----------------------------------------
   0E0F                    3191 _input_packet:
   0E0F C0*00              3192 	push	_bp
   0E11 E5 81              3193 	mov	a,sp
   0E13 F5*00              3194 	mov	_bp,a
   0E15 24 07              3195 	add	a,#0x07
   0E17 F5 81              3196 	mov	sp,a
                           3197 ;	../../../core/net/mac/contikimac.c:921: off();
   0E19 12s00r2E           3198 	lcall	_off
                           3199 ;	../../../core/net/mac/contikimac.c:926: if(packetbuf_totlen() > 0 && NETSTACK_FRAMER.parse()) {
   0E1C 12s00r00           3200 	lcall	_packetbuf_totlen
   0E1F E5 82              3201 	mov	a,dpl
   0E21 85 83 F0           3202 	mov	b,dph
   0E24 45 F0              3203 	orl	a,b
   0E26 70 03              3204 	jnz	00140$
   0E28 02s10rC7           3205 	ljmp	00124$
   0E2B                    3206 00140$:
   0E2B 90s00r02           3207 	mov	dptr,#(_framer_nullmac + 0x0002)
   0E2E E4                 3208 	clr	a
   0E2F 93                 3209 	movc	a,@a+dptr
   0E30 FA                 3210 	mov	r2,a
   0E31 A3                 3211 	inc	dptr
   0E32 E4                 3212 	clr	a
   0E33 93                 3213 	movc	a,@a+dptr
   0E34 FB                 3214 	mov	r3,a
   0E35 8A 82              3215 	mov	dpl,r2
   0E37 8B 83              3216 	mov	dph,r3
   0E39 12s00r00           3217 	lcall	__sdcc_call_dptr
   0E3C AA 82              3218 	mov	r2,dpl
   0E3E AB 83              3219 	mov	r3,dph
   0E40 EA                 3220 	mov	a,r2
   0E41 4B                 3221 	orl	a,r3
   0E42 70 03              3222 	jnz	00142$
   0E44 02s10rC7           3223 	ljmp	00124$
   0E47                    3224 00142$:
                           3225 ;	../../../core/net/mac/contikimac.c:930: chdr = packetbuf_dataptr();
   0E47 12s00r00           3226 	lcall	_packetbuf_dataptr
                           3227 ;	../../../core/net/mac/contikimac.c:931: if(chdr->id != CONTIKIMAC_ID) {
   0E4A AA 82              3228 	mov	r2,dpl
   0E4C AB 83              3229 	mov	r3,dph
   0E4E AC F0              3230 	mov	r4,b
   0E50 12s00r00           3231 	lcall	__gptrget
   0E53 60 03              3232 	jz	00102$
                           3233 ;	../../../core/net/mac/contikimac.c:933: return;
   0E55 02s10rC7           3234 	ljmp	00124$
   0E58                    3235 00102$:
                           3236 ;	../../../core/net/mac/contikimac.c:935: packetbuf_hdrreduce(sizeof(struct hdr));
   0E58 90 00 02           3237 	mov	dptr,#0x0002
   0E5B C0 02              3238 	push	ar2
   0E5D C0 03              3239 	push	ar3
   0E5F C0 04              3240 	push	ar4
   0E61 12s00r00           3241 	lcall	_packetbuf_hdrreduce
   0E64 D0 04              3242 	pop	ar4
   0E66 D0 03              3243 	pop	ar3
   0E68 D0 02              3244 	pop	ar2
                           3245 ;	../../../core/net/mac/contikimac.c:936: packetbuf_set_datalen(chdr->len);
   0E6A 0A                 3246 	inc	r2
   0E6B BA 00 01           3247 	cjne	r2,#0x00,00144$
   0E6E 0B                 3248 	inc	r3
   0E6F                    3249 00144$:
   0E6F 8A 82              3250 	mov	dpl,r2
   0E71 8B 83              3251 	mov	dph,r3
   0E73 8C F0              3252 	mov	b,r4
   0E75 12s00r00           3253 	lcall	__gptrget
   0E78 FA                 3254 	mov	r2,a
   0E79 7B 00              3255 	mov	r3,#0x00
   0E7B 8A 82              3256 	mov	dpl,r2
   0E7D 8B 83              3257 	mov	dph,r3
   0E7F 12s00r00           3258 	lcall	_packetbuf_set_datalen
                           3259 ;	../../../core/net/mac/contikimac.c:939: if(packetbuf_datalen() > 0 &&
   0E82 12s00r00           3260 	lcall	_packetbuf_datalen
   0E85 E5 82              3261 	mov	a,dpl
   0E87 85 83 F0           3262 	mov	b,dph
   0E8A 45 F0              3263 	orl	a,b
   0E8C 70 03              3264 	jnz	00145$
   0E8E 02s10rC7           3265 	ljmp	00124$
   0E91                    3266 00145$:
                           3267 ;	../../../core/net/mac/contikimac.c:940: packetbuf_totlen() > 0 &&
   0E91 12s00r00           3268 	lcall	_packetbuf_totlen
   0E94 E5 82              3269 	mov	a,dpl
   0E96 85 83 F0           3270 	mov	b,dph
   0E99 45 F0              3271 	orl	a,b
   0E9B 70 03              3272 	jnz	00146$
   0E9D 02s10rC7           3273 	ljmp	00124$
   0EA0                    3274 00146$:
                           3275 ;	../../../core/net/mac/contikimac.c:942: &rimeaddr_node_addr) ||
                           3276 ;	../../../core/net/mac/contikimac.c:941: (rimeaddr_cmp(packetbuf_addr(PACKETBUF_ADDR_RECEIVER),
   0EA0 75 82 19           3277 	mov	dpl,#0x19
   0EA3 12s00r00           3278 	lcall	_packetbuf_addr
   0EA6 AA 82              3279 	mov	r2,dpl
   0EA8 AB 83              3280 	mov	r3,dph
   0EAA AC F0              3281 	mov	r4,b
   0EAC 74r00              3282 	mov	a,#_rimeaddr_node_addr
   0EAE C0 E0              3283 	push	acc
   0EB0 74s00              3284 	mov	a,#(_rimeaddr_node_addr >> 8)
   0EB2 C0 E0              3285 	push	acc
   0EB4 E4                 3286 	clr	a
   0EB5 C0 E0              3287 	push	acc
   0EB7 8A 82              3288 	mov	dpl,r2
   0EB9 8B 83              3289 	mov	dph,r3
   0EBB 8C F0              3290 	mov	b,r4
   0EBD 12s00r00           3291 	lcall	_rimeaddr_cmp
   0EC0 AA 82              3292 	mov	r2,dpl
   0EC2 AB 83              3293 	mov	r3,dph
   0EC4 15 81              3294 	dec	sp
   0EC6 15 81              3295 	dec	sp
   0EC8 15 81              3296 	dec	sp
   0ECA EA                 3297 	mov	a,r2
   0ECB 4B                 3298 	orl	a,r3
   0ECC 70 32              3299 	jnz	00108$
                           3300 ;	../../../core/net/mac/contikimac.c:944: &rimeaddr_null))) {
                           3301 ;	../../../core/net/mac/contikimac.c:943: rimeaddr_cmp(packetbuf_addr(PACKETBUF_ADDR_RECEIVER),
   0ECE 75 82 19           3302 	mov	dpl,#0x19
   0ED1 12s00r00           3303 	lcall	_packetbuf_addr
   0ED4 AA 82              3304 	mov	r2,dpl
   0ED6 AB 83              3305 	mov	r3,dph
   0ED8 AC F0              3306 	mov	r4,b
   0EDA 74r00              3307 	mov	a,#_rimeaddr_null
   0EDC C0 E0              3308 	push	acc
   0EDE 74s00              3309 	mov	a,#(_rimeaddr_null >> 8)
   0EE0 C0 E0              3310 	push	acc
   0EE2 74 80              3311 	mov	a,#0x80
   0EE4 C0 E0              3312 	push	acc
   0EE6 8A 82              3313 	mov	dpl,r2
   0EE8 8B 83              3314 	mov	dph,r3
   0EEA 8C F0              3315 	mov	b,r4
   0EEC 12s00r00           3316 	lcall	_rimeaddr_cmp
   0EEF AA 82              3317 	mov	r2,dpl
   0EF1 AB 83              3318 	mov	r3,dph
   0EF3 15 81              3319 	dec	sp
   0EF5 15 81              3320 	dec	sp
   0EF7 15 81              3321 	dec	sp
   0EF9 EA                 3322 	mov	a,r2
   0EFA 4B                 3323 	orl	a,r3
   0EFB 70 03              3324 	jnz	00148$
   0EFD 02s10rC7           3325 	ljmp	00124$
   0F00                    3326 00148$:
   0F00                    3327 00108$:
                           3328 ;	../../../core/net/mac/contikimac.c:964: if(packetbuf_attr(PACKETBUF_ATTR_PENDING)) {
   0F00 75 82 12           3329 	mov	dpl,#0x12
   0F03 12s00r00           3330 	lcall	_packetbuf_attr
   0F06 E5 82              3331 	mov	a,dpl
   0F08 85 83 F0           3332 	mov	b,dph
   0F0B 45 F0              3333 	orl	a,b
   0F0D 60 21              3334 	jz	00136$
                           3335 ;	../../../core/net/mac/contikimac.c:965: phase_remove(&phase_list, packetbuf_addr(PACKETBUF_ADDR_SENDER));
   0F0F 75 82 18           3336 	mov	dpl,#0x18
   0F12 12s00r00           3337 	lcall	_packetbuf_addr
   0F15 AA 82              3338 	mov	r2,dpl
   0F17 AB 83              3339 	mov	r3,dph
   0F19 AC F0              3340 	mov	r4,b
   0F1B C0 02              3341 	push	ar2
   0F1D C0 03              3342 	push	ar3
   0F1F C0 04              3343 	push	ar4
   0F21 90s00r13           3344 	mov	dptr,#_phase_list
   0F24 75 F0 00           3345 	mov	b,#0x00
   0F27 12s00r00           3346 	lcall	_phase_remove
   0F2A 15 81              3347 	dec	sp
   0F2C 15 81              3348 	dec	sp
   0F2E 15 81              3349 	dec	sp
                           3350 ;	../../../core/net/mac/contikimac.c:973: for(i = 0; i < MAX_SEQNOS; ++i) {
   0F30                    3351 00136$:
   0F30 7A 00              3352 	mov	r2,#0x00
   0F32 7B 00              3353 	mov	r3,#0x00
   0F34 7C 00              3354 	mov	r4,#0x00
   0F36 7D 00              3355 	mov	r5,#0x00
   0F38                    3356 00116$:
   0F38 C3                 3357 	clr	c
   0F39 EA                 3358 	mov	a,r2
   0F3A 94 08              3359 	subb	a,#0x08
   0F3C EB                 3360 	mov	a,r3
   0F3D 64 80              3361 	xrl	a,#0x80
   0F3F 94 80              3362 	subb	a,#0x80
   0F41 40 03              3363 	jc	00150$
   0F43 02s0FrFA           3364 	ljmp	00138$
   0F46                    3365 00150$:
                           3366 ;	../../../core/net/mac/contikimac.c:974: if(packetbuf_attr(PACKETBUF_ATTR_PACKET_ID) == received_seqnos[i].seqno &&
   0F46 C0 02              3367 	push	ar2
   0F48 C0 03              3368 	push	ar3
   0F4A 75 82 0D           3369 	mov	dpl,#0x0D
   0F4D C0 02              3370 	push	ar2
   0F4F C0 03              3371 	push	ar3
   0F51 C0 04              3372 	push	ar4
   0F53 C0 05              3373 	push	ar5
   0F55 12s00r00           3374 	lcall	_packetbuf_attr
   0F58 AE 82              3375 	mov	r6,dpl
   0F5A AF 83              3376 	mov	r7,dph
   0F5C D0 05              3377 	pop	ar5
   0F5E D0 04              3378 	pop	ar4
   0F60 D0 03              3379 	pop	ar3
   0F62 D0 02              3380 	pop	ar2
   0F64 E5*00              3381 	mov	a,_bp
   0F66 24 03              3382 	add	a,#0x03
   0F68 F8                 3383 	mov	r0,a
   0F69 EC                 3384 	mov	a,r4
   0F6A 24r97              3385 	add	a,#_received_seqnos
   0F6C F6                 3386 	mov	@r0,a
   0F6D ED                 3387 	mov	a,r5
   0F6E 34s01              3388 	addc	a,#(_received_seqnos >> 8)
   0F70 08                 3389 	inc	r0
   0F71 F6                 3390 	mov	@r0,a
   0F72 E5*00              3391 	mov	a,_bp
   0F74 24 03              3392 	add	a,#0x03
   0F76 F8                 3393 	mov	r0,a
   0F77 86 82              3394 	mov	dpl,@r0
   0F79 08                 3395 	inc	r0
   0F7A 86 83              3396 	mov	dph,@r0
   0F7C A3                 3397 	inc	dptr
   0F7D A3                 3398 	inc	dptr
   0F7E E0                 3399 	movx	a,@dptr
   0F7F FA                 3400 	mov	r2,a
   0F80 7B 00              3401 	mov	r3,#0x00
   0F82 EE                 3402 	mov	a,r6
   0F83 B5 02 06           3403 	cjne	a,ar2,00151$
   0F86 EF                 3404 	mov	a,r7
   0F87 B5 03 02           3405 	cjne	a,ar3,00151$
   0F8A 80 06              3406 	sjmp	00152$
   0F8C                    3407 00151$:
   0F8C D0 03              3408 	pop	ar3
   0F8E D0 02              3409 	pop	ar2
   0F90 80 59              3410 	sjmp	00118$
   0F92                    3411 00152$:
                           3412 ;	../../../core/net/mac/contikimac.c:976: &received_seqnos[i].sender)) {
   0F92 E5*00              3413 	mov	a,_bp
   0F94 24 03              3414 	add	a,#0x03
   0F96 F8                 3415 	mov	r0,a
   0F97 86 06              3416 	mov	ar6,@r0
   0F99 08                 3417 	inc	r0
   0F9A 86 07              3418 	mov	ar7,@r0
   0F9C E5*00              3419 	mov	a,_bp
   0F9E 24 05              3420 	add	a,#0x05
   0FA0 F8                 3421 	mov	r0,a
   0FA1 A6 06              3422 	mov	@r0,ar6
   0FA3 08                 3423 	inc	r0
   0FA4 A6 07              3424 	mov	@r0,ar7
   0FA6 08                 3425 	inc	r0
   0FA7 76 00              3426 	mov	@r0,#0x00
                           3427 ;	../../../core/net/mac/contikimac.c:975: rimeaddr_cmp(packetbuf_addr(PACKETBUF_ADDR_SENDER),
   0FA9 75 82 18           3428 	mov	dpl,#0x18
   0FAC C0 04              3429 	push	ar4
   0FAE C0 05              3430 	push	ar5
   0FB0 12s00r00           3431 	lcall	_packetbuf_addr
   0FB3 AB 82              3432 	mov	r3,dpl
   0FB5 AA 83              3433 	mov	r2,dph
   0FB7 AE F0              3434 	mov	r6,b
   0FB9 E5*00              3435 	mov	a,_bp
   0FBB 24 05              3436 	add	a,#0x05
   0FBD F8                 3437 	mov	r0,a
   0FBE E6                 3438 	mov	a,@r0
   0FBF C0 E0              3439 	push	acc
   0FC1 08                 3440 	inc	r0
   0FC2 E6                 3441 	mov	a,@r0
   0FC3 C0 E0              3442 	push	acc
   0FC5 08                 3443 	inc	r0
   0FC6 E6                 3444 	mov	a,@r0
   0FC7 C0 E0              3445 	push	acc
   0FC9 8B 82              3446 	mov	dpl,r3
   0FCB 8A 83              3447 	mov	dph,r2
   0FCD 8E F0              3448 	mov	b,r6
   0FCF 12s00r00           3449 	lcall	_rimeaddr_cmp
   0FD2 AA 82              3450 	mov	r2,dpl
   0FD4 AB 83              3451 	mov	r3,dph
   0FD6 15 81              3452 	dec	sp
   0FD8 15 81              3453 	dec	sp
   0FDA 15 81              3454 	dec	sp
   0FDC D0 05              3455 	pop	ar5
   0FDE D0 04              3456 	pop	ar4
   0FE0 EA                 3457 	mov	a,r2
   0FE1 4B                 3458 	orl	a,r3
   0FE2 D0 03              3459 	pop	ar3
   0FE4 D0 02              3460 	pop	ar2
   0FE6 60 03              3461 	jz	00118$
                           3462 ;	../../../core/net/mac/contikimac.c:979: return;
   0FE8 02s10rC7           3463 	ljmp	00124$
   0FEB                    3464 00118$:
                           3465 ;	../../../core/net/mac/contikimac.c:973: for(i = 0; i < MAX_SEQNOS; ++i) {
   0FEB 74 03              3466 	mov	a,#0x03
   0FED 2C                 3467 	add	a,r4
   0FEE FC                 3468 	mov	r4,a
   0FEF E4                 3469 	clr	a
   0FF0 3D                 3470 	addc	a,r5
   0FF1 FD                 3471 	mov	r5,a
   0FF2 0A                 3472 	inc	r2
   0FF3 BA 00 01           3473 	cjne	r2,#0x00,00154$
   0FF6 0B                 3474 	inc	r3
   0FF7                    3475 00154$:
   0FF7 02s0Fr38           3476 	ljmp	00116$
                           3477 ;	../../../core/net/mac/contikimac.c:982: for(i = MAX_SEQNOS - 1; i > 0; --i) {
   0FFA                    3478 00138$:
   0FFA A8*00              3479 	mov	r0,_bp
   0FFC 08                 3480 	inc	r0
   0FFD 76 07              3481 	mov	@r0,#0x07
   0FFF 08                 3482 	inc	r0
   1000 76 00              3483 	mov	@r0,#0x00
   1002 7C 15              3484 	mov	r4,#0x15
   1004 7D 00              3485 	mov	r5,#0x00
   1006                    3486 00120$:
   1006 A8*00              3487 	mov	r0,_bp
   1008 08                 3488 	inc	r0
   1009 C3                 3489 	clr	c
   100A E4                 3490 	clr	a
   100B 96                 3491 	subb	a,@r0
   100C 74 80              3492 	mov	a,#(0x00 ^ 0x80)
   100E 08                 3493 	inc	r0
   100F 86 F0              3494 	mov	b,@r0
   1011 63 F0 80           3495 	xrl	b,#0x80
   1014 95 F0              3496 	subb	a,b
   1016 50 68              3497 	jnc	00123$
                           3498 ;	../../../core/net/mac/contikimac.c:983: memcpy(&received_seqnos[i], &received_seqnos[i - 1],
   1018 A8*00              3499 	mov	r0,_bp
   101A 08                 3500 	inc	r0
   101B E6                 3501 	mov	a,@r0
   101C 14                 3502 	dec	a
   101D 75 F0 03           3503 	mov	b,#0x03
   1020 A4                 3504 	mul	ab
   1021 24r97              3505 	add	a,#_received_seqnos
   1023 FE                 3506 	mov	r6,a
   1024 E4                 3507 	clr	a
   1025 34s01              3508 	addc	a,#(_received_seqnos >> 8)
   1027 FF                 3509 	mov	r7,a
   1028 E5*00              3510 	mov	a,_bp
   102A 24 05              3511 	add	a,#0x05
   102C F8                 3512 	mov	r0,a
   102D A6 06              3513 	mov	@r0,ar6
   102F 08                 3514 	inc	r0
   1030 A6 07              3515 	mov	@r0,ar7
   1032 08                 3516 	inc	r0
   1033 76 00              3517 	mov	@r0,#0x00
   1035 EC                 3518 	mov	a,r4
   1036 24r97              3519 	add	a,#_received_seqnos
   1038 FB                 3520 	mov	r3,a
   1039 ED                 3521 	mov	a,r5
   103A 34s01              3522 	addc	a,#(_received_seqnos >> 8)
   103C FA                 3523 	mov	r2,a
   103D 7E 00              3524 	mov	r6,#0x00
   103F C0 04              3525 	push	ar4
   1041 C0 05              3526 	push	ar5
   1043 74 03              3527 	mov	a,#0x03
   1045 C0 E0              3528 	push	acc
   1047 E4                 3529 	clr	a
   1048 C0 E0              3530 	push	acc
   104A E5*00              3531 	mov	a,_bp
   104C 24 05              3532 	add	a,#0x05
   104E F8                 3533 	mov	r0,a
   104F E6                 3534 	mov	a,@r0
   1050 C0 E0              3535 	push	acc
   1052 08                 3536 	inc	r0
   1053 E6                 3537 	mov	a,@r0
   1054 C0 E0              3538 	push	acc
   1056 08                 3539 	inc	r0
   1057 E6                 3540 	mov	a,@r0
   1058 C0 E0              3541 	push	acc
   105A 8B 82              3542 	mov	dpl,r3
   105C 8A 83              3543 	mov	dph,r2
   105E 8E F0              3544 	mov	b,r6
   1060 12s00r00           3545 	lcall	_memcpy
   1063 E5 81              3546 	mov	a,sp
   1065 24 FB              3547 	add	a,#0xfb
   1067 F5 81              3548 	mov	sp,a
   1069 D0 05              3549 	pop	ar5
   106B D0 04              3550 	pop	ar4
                           3551 ;	../../../core/net/mac/contikimac.c:982: for(i = MAX_SEQNOS - 1; i > 0; --i) {
   106D EC                 3552 	mov	a,r4
   106E 24 FD              3553 	add	a,#0xfd
   1070 FC                 3554 	mov	r4,a
   1071 ED                 3555 	mov	a,r5
   1072 34 FF              3556 	addc	a,#0xff
   1074 FD                 3557 	mov	r5,a
   1075 A8*00              3558 	mov	r0,_bp
   1077 08                 3559 	inc	r0
   1078 16                 3560 	dec	@r0
   1079 B6 FF 02           3561 	cjne	@r0,#0xff,00156$
   107C 08                 3562 	inc	r0
   107D 16                 3563 	dec	@r0
   107E                    3564 00156$:
   107E 80 86              3565 	sjmp	00120$
   1080                    3566 00123$:
                           3567 ;	../../../core/net/mac/contikimac.c:986: received_seqnos[0].seqno = packetbuf_attr(PACKETBUF_ATTR_PACKET_ID);
   1080 75 82 0D           3568 	mov	dpl,#0x0D
   1083 12s00r00           3569 	lcall	_packetbuf_attr
   1086 AA 82              3570 	mov	r2,dpl
   1088 90s01r99           3571 	mov	dptr,#(_received_seqnos + 0x0002)
   108B EA                 3572 	mov	a,r2
   108C F0                 3573 	movx	@dptr,a
                           3574 ;	../../../core/net/mac/contikimac.c:988: packetbuf_addr(PACKETBUF_ADDR_SENDER));
   108D 75 82 18           3575 	mov	dpl,#0x18
   1090 12s00r00           3576 	lcall	_packetbuf_addr
   1093 AA 82              3577 	mov	r2,dpl
   1095 AB 83              3578 	mov	r3,dph
   1097 AC F0              3579 	mov	r4,b
                           3580 ;	../../../core/net/mac/contikimac.c:987: rimeaddr_copy(&received_seqnos[0].sender,
   1099 C0 02              3581 	push	ar2
   109B C0 03              3582 	push	ar3
   109D C0 04              3583 	push	ar4
   109F 90s01r97           3584 	mov	dptr,#_received_seqnos
   10A2 75 F0 00           3585 	mov	b,#0x00
   10A5 12s00r00           3586 	lcall	_rimeaddr_copy
   10A8 15 81              3587 	dec	sp
   10AA 15 81              3588 	dec	sp
   10AC 15 81              3589 	dec	sp
                           3590 ;	../../../core/net/mac/contikimac.c:1006: NETSTACK_MAC.input();
   10AE 90s00r07           3591 	mov	dptr,#(_csma_driver + 0x0007)
   10B1 E4                 3592 	clr	a
   10B2 93                 3593 	movc	a,@a+dptr
   10B3 FA                 3594 	mov	r2,a
   10B4 A3                 3595 	inc	dptr
   10B5 E4                 3596 	clr	a
   10B6 93                 3597 	movc	a,@a+dptr
   10B7 FB                 3598 	mov	r3,a
   10B8 C0 02              3599 	push	ar2
   10BA C0 03              3600 	push	ar3
   10BC 8A 82              3601 	mov	dpl,r2
   10BE 8B 83              3602 	mov	dph,r3
   10C0 12s00r00           3603 	lcall	__sdcc_call_dptr
   10C3 D0 03              3604 	pop	ar3
   10C5 D0 02              3605 	pop	ar2
                           3606 ;	../../../core/net/mac/contikimac.c:1007: return;
   10C7                    3607 00124$:
   10C7 85*00 81           3608 	mov	sp,_bp
   10CA D0*00              3609 	pop	_bp
   10CC 22                 3610 	ret
                           3611 ;------------------------------------------------------------
                           3612 ;Allocation info for local variables in function 'contikimac_set_announcement_radio_txpower'
                           3613 ;------------------------------------------------------------
                           3614 ;txpower                   Allocated to registers 
                           3615 ;------------------------------------------------------------
                           3616 ;	../../../core/net/mac/contikimac.c:1132: contikimac_set_announcement_radio_txpower(int txpower)
                           3617 ;	-----------------------------------------
                           3618 ;	 function contikimac_set_announcement_radio_txpower
                           3619 ;	-----------------------------------------
   10CD                    3620 _contikimac_set_announcement_radio_txpower:
                           3621 ;	../../../core/net/mac/contikimac.c:1137: }
   10CD 22                 3622 	ret
                           3623 ;------------------------------------------------------------
                           3624 ;Allocation info for local variables in function 'init'
                           3625 ;------------------------------------------------------------
                           3626 ;------------------------------------------------------------
                           3627 ;	../../../core/net/mac/contikimac.c:1140: init(void)
                           3628 ;	-----------------------------------------
                           3629 ;	 function init
                           3630 ;	-----------------------------------------
   10CE                    3631 _init:
                           3632 ;	../../../core/net/mac/contikimac.c:1142: radio_is_on = 0;
   10CE 90s00r02           3633 	mov	dptr,#_radio_is_on
                           3634 ;	../../../core/net/mac/contikimac.c:1143: PT_INIT(&pt);
   10D1 E4                 3635 	clr	a
   10D2 F0                 3636 	movx	@dptr,a
   10D3 90s00r07           3637 	mov	dptr,#_pt
   10D6 F0                 3638 	movx	@dptr,a
   10D7 A3                 3639 	inc	dptr
   10D8 F0                 3640 	movx	@dptr,a
                           3641 ;	../../../core/net/mac/contikimac.c:1150: rtimer_set(&rt, RTIMER_NOW() + CYCLE_TIME, 1,
   10D9 AA E2              3642 	mov	r2,_T1CNTL
   10DB 7B 00              3643 	mov	r3,#0x00
   10DD AD E3              3644 	mov	r5,_T1CNTH
   10DF 7C 00              3645 	mov	r4,#0x00
   10E1 EC                 3646 	mov	a,r4
   10E2 2A                 3647 	add	a,r2
   10E3 FA                 3648 	mov	r2,a
   10E4 ED                 3649 	mov	a,r5
   10E5 3B                 3650 	addc	a,r3
   10E6 FB                 3651 	mov	r3,a
   10E7 74 42              3652 	mov	a,#0x42
   10E9 2A                 3653 	add	a,r2
   10EA FA                 3654 	mov	r2,a
   10EB 74 0F              3655 	mov	a,#0x0F
   10ED 3B                 3656 	addc	a,r3
   10EE FB                 3657 	mov	r3,a
   10EF E4                 3658 	clr	a
   10F0 C0 E0              3659 	push	acc
   10F2 C0 E0              3660 	push	acc
   10F4 C0 E0              3661 	push	acc
   10F6 74r20              3662 	mov	a,#_powercycle
   10F8 C0 E0              3663 	push	acc
   10FA 74s02              3664 	mov	a,#(_powercycle >> 8)
   10FC C0 E0              3665 	push	acc
   10FE 74 01              3666 	mov	a,#0x01
   1100 C0 E0              3667 	push	acc
   1102 E4                 3668 	clr	a
   1103 C0 E0              3669 	push	acc
   1105 C0 02              3670 	push	ar2
   1107 C0 03              3671 	push	ar3
   1109 90s00r00           3672 	mov	dptr,#_rt
   110C 75 F0 00           3673 	mov	b,#0x00
   110F 12s00r00           3674 	lcall	_rtimer_set
   1112 E5 81              3675 	mov	a,sp
   1114 24 F7              3676 	add	a,#0xf7
   1116 F5 81              3677 	mov	sp,a
                           3678 ;	../../../core/net/mac/contikimac.c:1154: contikimac_is_on = 1;
   1118 90s00r00           3679 	mov	dptr,#_contikimac_is_on
   111B 74 01              3680 	mov	a,#0x01
   111D F0                 3681 	movx	@dptr,a
                           3682 ;	../../../core/net/mac/contikimac.c:1157: phase_init(&phase_list);
   111E 90s00r13           3683 	mov	dptr,#_phase_list
   1121 75 F0 00           3684 	mov	b,#0x00
   1124 02s00r00           3685 	ljmp	_phase_init
                           3686 ;------------------------------------------------------------
                           3687 ;Allocation info for local variables in function 'turn_on'
                           3688 ;------------------------------------------------------------
                           3689 ;------------------------------------------------------------
                           3690 ;	../../../core/net/mac/contikimac.c:1168: turn_on(void)
                           3691 ;	-----------------------------------------
                           3692 ;	 function turn_on
                           3693 ;	-----------------------------------------
   1127                    3694 _turn_on:
                           3695 ;	../../../core/net/mac/contikimac.c:1170: if(contikimac_is_on == 0) {
   1127 90s00r00           3696 	mov	dptr,#_contikimac_is_on
   112A E0                 3697 	movx	a,@dptr
   112B FA                 3698 	mov	r2,a
   112C 70 45              3699 	jnz	00102$
                           3700 ;	../../../core/net/mac/contikimac.c:1171: contikimac_is_on = 1;
   112E 90s00r00           3701 	mov	dptr,#_contikimac_is_on
   1131 74 01              3702 	mov	a,#0x01
   1133 F0                 3703 	movx	@dptr,a
                           3704 ;	../../../core/net/mac/contikimac.c:1175: rtimer_set(&rt, RTIMER_NOW() + CYCLE_TIME, 1,
   1134 AA E2              3705 	mov	r2,_T1CNTL
   1136 7B 00              3706 	mov	r3,#0x00
   1138 AD E3              3707 	mov	r5,_T1CNTH
   113A 7C 00              3708 	mov	r4,#0x00
   113C EC                 3709 	mov	a,r4
   113D 2A                 3710 	add	a,r2
   113E FA                 3711 	mov	r2,a
   113F ED                 3712 	mov	a,r5
   1140 3B                 3713 	addc	a,r3
   1141 FB                 3714 	mov	r3,a
   1142 74 42              3715 	mov	a,#0x42
   1144 2A                 3716 	add	a,r2
   1145 FA                 3717 	mov	r2,a
   1146 74 0F              3718 	mov	a,#0x0F
   1148 3B                 3719 	addc	a,r3
   1149 FB                 3720 	mov	r3,a
   114A E4                 3721 	clr	a
   114B C0 E0              3722 	push	acc
   114D C0 E0              3723 	push	acc
   114F C0 E0              3724 	push	acc
   1151 74r20              3725 	mov	a,#_powercycle
   1153 C0 E0              3726 	push	acc
   1155 74s02              3727 	mov	a,#(_powercycle >> 8)
   1157 C0 E0              3728 	push	acc
   1159 74 01              3729 	mov	a,#0x01
   115B C0 E0              3730 	push	acc
   115D E4                 3731 	clr	a
   115E C0 E0              3732 	push	acc
   1160 C0 02              3733 	push	ar2
   1162 C0 03              3734 	push	ar3
   1164 90s00r00           3735 	mov	dptr,#_rt
   1167 75 F0 00           3736 	mov	b,#0x00
   116A 12s00r00           3737 	lcall	_rtimer_set
   116D E5 81              3738 	mov	a,sp
   116F 24 F7              3739 	add	a,#0xf7
   1171 F5 81              3740 	mov	sp,a
   1173                    3741 00102$:
                           3742 ;	../../../core/net/mac/contikimac.c:1179: return 1;
   1173 90 00 01           3743 	mov	dptr,#0x0001
   1176 22                 3744 	ret
                           3745 ;------------------------------------------------------------
                           3746 ;Allocation info for local variables in function 'turn_off'
                           3747 ;------------------------------------------------------------
                           3748 ;keep_radio_on             Allocated to registers r2 r3 
                           3749 ;------------------------------------------------------------
                           3750 ;	../../../core/net/mac/contikimac.c:1183: turn_off(int keep_radio_on)
                           3751 ;	-----------------------------------------
                           3752 ;	 function turn_off
                           3753 ;	-----------------------------------------
   1177                    3754 _turn_off:
   1177 AA 82              3755 	mov	r2,dpl
   1179 AB 83              3756 	mov	r3,dph
                           3757 ;	../../../core/net/mac/contikimac.c:1185: contikimac_is_on = 0;
   117B 90s00r00           3758 	mov	dptr,#_contikimac_is_on
   117E E4                 3759 	clr	a
   117F F0                 3760 	movx	@dptr,a
                           3761 ;	../../../core/net/mac/contikimac.c:1186: if(keep_radio_on) {
   1180 EA                 3762 	mov	a,r2
   1181 4B                 3763 	orl	a,r3
   1182 60 11              3764 	jz	00102$
                           3765 ;	../../../core/net/mac/contikimac.c:1187: return NETSTACK_RADIO.on();
   1184 90s00r10           3766 	mov	dptr,#(_cc2430_rf_driver + 0x0010)
   1187 E4                 3767 	clr	a
   1188 93                 3768 	movc	a,@a+dptr
   1189 FA                 3769 	mov	r2,a
   118A A3                 3770 	inc	dptr
   118B E4                 3771 	clr	a
   118C 93                 3772 	movc	a,@a+dptr
   118D FB                 3773 	mov	r3,a
   118E 8A 82              3774 	mov	dpl,r2
   1190 8B 83              3775 	mov	dph,r3
   1192 02s00r00           3776 	ljmp	__sdcc_call_dptr
   1195                    3777 00102$:
                           3778 ;	../../../core/net/mac/contikimac.c:1189: return NETSTACK_RADIO.off();
   1195 90s00r12           3779 	mov	dptr,#(_cc2430_rf_driver + 0x0012)
   1198 E4                 3780 	clr	a
   1199 93                 3781 	movc	a,@a+dptr
   119A FA                 3782 	mov	r2,a
   119B A3                 3783 	inc	dptr
   119C E4                 3784 	clr	a
   119D 93                 3785 	movc	a,@a+dptr
   119E FB                 3786 	mov	r3,a
   119F 8A 82              3787 	mov	dpl,r2
   11A1 8B 83              3788 	mov	dph,r3
   11A3 02s00r00           3789 	ljmp	__sdcc_call_dptr
                           3790 ;------------------------------------------------------------
                           3791 ;Allocation info for local variables in function 'duty_cycle'
                           3792 ;------------------------------------------------------------
                           3793 ;------------------------------------------------------------
                           3794 ;	../../../core/net/mac/contikimac.c:1194: duty_cycle(void)
                           3795 ;	-----------------------------------------
                           3796 ;	 function duty_cycle
                           3797 ;	-----------------------------------------
   11A6                    3798 _duty_cycle:
                           3799 ;	../../../core/net/mac/contikimac.c:1196: return (1ul * CLOCK_SECOND * CYCLE_TIME) / RTIMER_ARCH_SECOND;
   11A6 90 00 1F           3800 	mov	dptr,#0x001F
   11A9 22                 3801 	ret
                           3802 ;------------------------------------------------------------
                           3803 ;Allocation info for local variables in function 'contikimac_debug_print'
                           3804 ;------------------------------------------------------------
                           3805 ;one_cycle_start           Allocated with name '_contikimac_debug_print_one_cycle_start_1_1'
                           3806 ;------------------------------------------------------------
                           3807 ;	../../../core/net/mac/contikimac.c:1210: contikimac_debug_print(void)
                           3808 ;	-----------------------------------------
                           3809 ;	 function contikimac_debug_print
                           3810 ;	-----------------------------------------
   11AA                    3811 _contikimac_debug_print:
                           3812 ;	../../../core/net/mac/contikimac.c:1213: printf("Drift %d\n", (one_cycle_start - cycle_start) % CYCLE_TIME);
   11AA 90s01rAF           3813 	mov	dptr,#_cycle_start
   11AD E0                 3814 	movx	a,@dptr
   11AE FA                 3815 	mov	r2,a
   11AF A3                 3816 	inc	dptr
   11B0 E0                 3817 	movx	a,@dptr
   11B1 FB                 3818 	mov	r3,a
   11B2 90s01rB9           3819 	mov	dptr,#_contikimac_debug_print_one_cycle_start_1_1
   11B5 E0                 3820 	movx	a,@dptr
   11B6 FC                 3821 	mov	r4,a
   11B7 A3                 3822 	inc	dptr
   11B8 E0                 3823 	movx	a,@dptr
   11B9 FD                 3824 	mov	r5,a
   11BA EC                 3825 	mov	a,r4
   11BB C3                 3826 	clr	c
   11BC 9A                 3827 	subb	a,r2
   11BD FA                 3828 	mov	r2,a
   11BE ED                 3829 	mov	a,r5
   11BF 9B                 3830 	subb	a,r3
   11C0 FB                 3831 	mov	r3,a
   11C1 74 42              3832 	mov	a,#0x42
   11C3 C0 E0              3833 	push	acc
   11C5 74 0F              3834 	mov	a,#0x0F
   11C7 C0 E0              3835 	push	acc
   11C9 8A 82              3836 	mov	dpl,r2
   11CB 8B 83              3837 	mov	dph,r3
   11CD 12s00r00           3838 	lcall	__moduint
   11D0 AA 82              3839 	mov	r2,dpl
   11D2 AB 83              3840 	mov	r3,dph
   11D4 15 81              3841 	dec	sp
   11D6 15 81              3842 	dec	sp
   11D8 C0 02              3843 	push	ar2
   11DA C0 03              3844 	push	ar3
   11DC 74r3A              3845 	mov	a,#__str_1
   11DE C0 E0              3846 	push	acc
   11E0 74s00              3847 	mov	a,#(__str_1 >> 8)
   11E2 C0 E0              3848 	push	acc
   11E4 74 80              3849 	mov	a,#0x80
   11E6 C0 E0              3850 	push	acc
   11E8 12s00r00           3851 	lcall	_printf
   11EB E5 81              3852 	mov	a,sp
   11ED 24 FB              3853 	add	a,#0xfb
   11EF F5 81              3854 	mov	sp,a
                           3855 ;	../../../core/net/mac/contikimac.c:1214: one_cycle_start = cycle_start;
   11F1 90s01rAF           3856 	mov	dptr,#_cycle_start
   11F4 E0                 3857 	movx	a,@dptr
   11F5 FA                 3858 	mov	r2,a
   11F6 A3                 3859 	inc	dptr
   11F7 E0                 3860 	movx	a,@dptr
   11F8 FB                 3861 	mov	r3,a
   11F9 90s01rB9           3862 	mov	dptr,#_contikimac_debug_print_one_cycle_start_1_1
   11FC EA                 3863 	mov	a,r2
   11FD F0                 3864 	movx	@dptr,a
   11FE A3                 3865 	inc	dptr
   11FF EB                 3866 	mov	a,r3
   1200 F0                 3867 	movx	@dptr,a
                           3868 ;	../../../core/net/mac/contikimac.c:1215: return 0;
   1201 90 00 00           3869 	mov	dptr,#0x0000
   1204 22                 3870 	ret
                           3871 	.area CSEG    (CODE)
                           3872 	.area CONST   (CODE)
   0000                    3873 __str_0:
   0000 73 63 68 65 64 75  3874 	.ascii "schedule_powercycle: could not set rtimer"
        6C 65 5F 70 6F 77
        65 72 63 79 63 6C
        65 3A 20 63 6F 75
        6C 64 20 6E 6F 74
        20 73 65 74 20 72
        74 69 6D 65 72
   0029 0A                 3875 	.db 0x0A
   002A 00                 3876 	.db 0x00
   002B                    3877 _contikimac_driver:
   002Br44s00 80           3878 	.byte _str_2,(_str_2 >> 8),#0x80
   002ErCEs10              3879 	.byte _init,(_init >> 8)
   0030rAAs0D              3880 	.byte _qsend_packet,(_qsend_packet >> 8)
   0032r0Fs0E              3881 	.byte _input_packet,(_input_packet >> 8)
   0034r27s11              3882 	.byte _turn_on,(_turn_on >> 8)
   0036r77s11              3883 	.byte _turn_off,(_turn_off >> 8)
   0038rA6s11              3884 	.byte _duty_cycle,(_duty_cycle >> 8)
   003A                    3885 __str_1:
   003A 44 72 69 66 74 20  3886 	.ascii "Drift %d"
        25 64
   0042 0A                 3887 	.db 0x0A
   0043 00                 3888 	.db 0x00
   0044                    3889 _str_2:
   0044 43 6F 6E 74 69 6B  3890 	.ascii "ContikiMAC"
        69 4D 41 43
   004E 00                 3891 	.db 0x00
                           3892 	.area XINIT   (CODE)
   0000                    3893 __xinit__contikimac_is_on:
   0000 00                 3894 	.db #0x00	; 0
   0001                    3895 __xinit__we_are_sending:
   0001 00                 3896 	.db #0x00	; 0
   0002                    3897 __xinit__radio_is_on:
   0002 00                 3898 	.db #0x00	; 0
   0003                    3899 __xinit__phase_list_list_list:
                           3900 ; generic printIvalPtr
   0003 00 00 00           3901 	.byte #0x00,#0x00,#0x00
   0006                    3902 __xinit__phase_list_list:
   0006r03s00 00           3903 	.byte _phase_list_list_list,(_phase_list_list_list >> 8),#0x00
   0009                    3904 __xinit__phase_list_memb:
   0009 0C 00              3905 	.byte #0x0C,#0x00	; 12
   000B 1E 00              3906 	.byte #0x1E,#0x00	; 30
   000Dr0As00 00           3907 	.byte _phase_list_memb_memb_count,(_phase_list_memb_memb_count >> 8),#0x00
   0010r28s00 00           3908 	.byte _phase_list_memb_memb_mem,(_phase_list_memb_memb_mem >> 8),#0x00
   0013                    3909 __xinit__phase_list:
   0013r06s00 00           3910 	.byte _phase_list_list,(_phase_list_list >> 8),#0x00
   0016r09s00 00           3911 	.byte _phase_list_memb,(_phase_list_memb >> 8),#0x00
                           3912 	.area CABS    (ABS,CODE)
