                              1 ;--------------------------------------------------------
                              2 ; File Created by SDCC : free open source ANSI-C Compiler
                              3 ; Version 3.0.1 #6121 (Nov 17 2015) (CYGWIN)
                              4 ; This file was generated Sat Jan 27 13:25:16 2018
                              5 ;--------------------------------------------------------
                              6 	.module mesh
                              7 	.optsdcc -mmcs51 --model-large
                              8 	
                              9 ;--------------------------------------------------------
                             10 ; Public variables in this module
                             11 ;--------------------------------------------------------
                             12 	.globl _IRCON2_P2IF
                             13 	.globl _IRCON2_UTX0IF
                             14 	.globl _IRCON2_UTX1IF
                             15 	.globl _IRCON2_P1IF
                             16 	.globl _IRCON2_WDTIF
                             17 	.globl _CY
                             18 	.globl _AC
                             19 	.globl _F0
                             20 	.globl _RS1
                             21 	.globl _RS0
                             22 	.globl _OV
                             23 	.globl _F1
                             24 	.globl _P
                             25 	.globl _IRCON_DMAIF
                             26 	.globl _IRCON_T1IF
                             27 	.globl _IRCON_T2IF
                             28 	.globl _IRCON_T3IF
                             29 	.globl _IRCON_T4IF
                             30 	.globl _IRCON_P0IF
                             31 	.globl _IRCON_STIF
                             32 	.globl _IEN1_DMAIE
                             33 	.globl _IEN1_T1IE
                             34 	.globl _IEN1_T2IE
                             35 	.globl _IEN1_T3IE
                             36 	.globl _IEN1_T4IE
                             37 	.globl _IEN1_P0IE
                             38 	.globl _IEN0_RFERRIE
                             39 	.globl _IEN0_ADCIE
                             40 	.globl _IEN0_URX0IE
                             41 	.globl _IEN0_URX1IE
                             42 	.globl _IEN0_ENCIE
                             43 	.globl _IEN0_STIE
                             44 	.globl _IEN0_EA
                             45 	.globl _EA
                             46 	.globl _P2_4
                             47 	.globl _P2_3
                             48 	.globl _P2_2
                             49 	.globl _P2_1
                             50 	.globl _P2_0
                             51 	.globl _S0CON_ENCIF_0
                             52 	.globl _S0CON_ENCIF_1
                             53 	.globl _P1_7
                             54 	.globl _P1_6
                             55 	.globl _P1_5
                             56 	.globl _P1_4
                             57 	.globl _P1_3
                             58 	.globl _P1_2
                             59 	.globl _P1_1
                             60 	.globl _P1_0
                             61 	.globl _TCON_IT0
                             62 	.globl _TCON_RFERRIF
                             63 	.globl _TCON_IT1
                             64 	.globl _TCON_URX0IF
                             65 	.globl _TCON_ADCIF
                             66 	.globl _TCON_URX1IF
                             67 	.globl _P0_0
                             68 	.globl _P0_1
                             69 	.globl _P0_2
                             70 	.globl _P0_3
                             71 	.globl _P0_4
                             72 	.globl _P0_5
                             73 	.globl _P0_6
                             74 	.globl _P0_7
                             75 	.globl _P2DIR
                             76 	.globl _P1DIR
                             77 	.globl _P0DIR
                             78 	.globl _U1GCR
                             79 	.globl _U1UCR
                             80 	.globl _U1BAUD
                             81 	.globl _U1BUF
                             82 	.globl _U1CSR
                             83 	.globl _P2INP
                             84 	.globl _P1INP
                             85 	.globl _P2SEL
                             86 	.globl _P1SEL
                             87 	.globl _P0SEL
                             88 	.globl _ADCCFG
                             89 	.globl _PERCFG
                             90 	.globl _B
                             91 	.globl _T4CC1
                             92 	.globl _T4CCTL1
                             93 	.globl _T4CC0
                             94 	.globl _T4CCTL0
                             95 	.globl _T4CTL
                             96 	.globl _T4CNT
                             97 	.globl _RFIF
                             98 	.globl _IRCON2
                             99 	.globl _T1CCTL2
                            100 	.globl _T1CCTL1
                            101 	.globl _T1CCTL0
                            102 	.globl _T1CTL
                            103 	.globl _T1CNTH
                            104 	.globl _T1CNTL
                            105 	.globl _RFST
                            106 	.globl _ACC
                            107 	.globl _T1CC2H
                            108 	.globl _T1CC2L
                            109 	.globl _T1CC1H
                            110 	.globl _T1CC1L
                            111 	.globl _T1CC0H
                            112 	.globl _T1CC0L
                            113 	.globl _RFD
                            114 	.globl _TIMIF
                            115 	.globl _DMAREQ
                            116 	.globl _DMAARM
                            117 	.globl _DMA0CFGH
                            118 	.globl _DMA0CFGL
                            119 	.globl _DMA1CFGH
                            120 	.globl _DMA1CFGL
                            121 	.globl _DMAIRQ
                            122 	.globl _PSW
                            123 	.globl _T3CC1
                            124 	.globl _T3CCTL1
                            125 	.globl _T3CC0
                            126 	.globl _T3CCTL0
                            127 	.globl _T3CTL
                            128 	.globl _T3CNT
                            129 	.globl _WDCTL
                            130 	.globl _T2CON
                            131 	.globl _MEMCTR
                            132 	.globl _CLKCON
                            133 	.globl _U0GCR
                            134 	.globl _U0UCR
                            135 	.globl _T2CNF
                            136 	.globl _U0BAUD
                            137 	.globl _U0BUF
                            138 	.globl _IRCON
                            139 	.globl _SLEEP
                            140 	.globl _RNDH
                            141 	.globl _RNDL
                            142 	.globl _ADCH
                            143 	.globl _ADCL
                            144 	.globl _IP1
                            145 	.globl _IEN1
                            146 	.globl _RCCTL
                            147 	.globl _ADCCON3
                            148 	.globl _ADCCON2
                            149 	.globl _ADCCON1
                            150 	.globl _ENCCS
                            151 	.globl _ENCDO
                            152 	.globl _ENCDI
                            153 	.globl _FWDATA
                            154 	.globl _FCTL
                            155 	.globl _FADDRH
                            156 	.globl _FADDRL
                            157 	.globl _FWT
                            158 	.globl _IP0
                            159 	.globl _IEN0
                            160 	.globl _IE
                            161 	.globl _T2THD
                            162 	.globl _T2TLD
                            163 	.globl _T2CAPHPH
                            164 	.globl _T2CAPLPL
                            165 	.globl _T2OF2
                            166 	.globl _T2OF1
                            167 	.globl _T2OF0
                            168 	.globl _P2
                            169 	.globl _PSBANK
                            170 	.globl _FMAP
                            171 	.globl _T2PEROF2
                            172 	.globl _T2PEROF1
                            173 	.globl _T2PEROF0
                            174 	.globl _S1CON
                            175 	.globl _IEN2
                            176 	.globl _HSRC
                            177 	.globl _S0CON
                            178 	.globl _ST2
                            179 	.globl _ST1
                            180 	.globl _ST0
                            181 	.globl _T2CMP
                            182 	.globl __XPAGE
                            183 	.globl _DPS
                            184 	.globl _RFIM
                            185 	.globl _P1
                            186 	.globl _P0INP
                            187 	.globl _P1IEN
                            188 	.globl _PICTL
                            189 	.globl _P2IFG
                            190 	.globl _P1IFG
                            191 	.globl _P0IFG
                            192 	.globl _TCON
                            193 	.globl _PCON
                            194 	.globl _U0CSR
                            195 	.globl _DPH1
                            196 	.globl _DPL1
                            197 	.globl _DPH0
                            198 	.globl _DPL0
                            199 	.globl _SP
                            200 	.globl _P0
                            201 	.globl _ADC_SHADOW
                            202 	.globl _U1BUF_SHADOW
                            203 	.globl _RFD_SHADOW
                            204 	.globl _U0BUF_SHADOW
                            205 	.globl _RFSTATUS
                            206 	.globl _CHIPID
                            207 	.globl _CHVER
                            208 	.globl _FSMTC1
                            209 	.globl _RXFIFOCNT
                            210 	.globl _IOCFG3
                            211 	.globl _IOCFG2
                            212 	.globl _IOCFG1
                            213 	.globl _IOCFG0
                            214 	.globl _SHORTADDRL
                            215 	.globl _SHORTADDRH
                            216 	.globl _PANIDL
                            217 	.globl _PANIDH
                            218 	.globl _IEEE_ADDR7
                            219 	.globl _IEEE_ADDR6
                            220 	.globl _IEEE_ADDR5
                            221 	.globl _IEEE_ADDR4
                            222 	.globl _IEEE_ADDR3
                            223 	.globl _IEEE_ADDR2
                            224 	.globl _IEEE_ADDR1
                            225 	.globl _IEEE_ADDR0
                            226 	.globl _DACTSTL
                            227 	.globl _DACTSTH
                            228 	.globl _ADCTSTL
                            229 	.globl _ADCTSTH
                            230 	.globl _FSMSTATE
                            231 	.globl _AGCCTRLL
                            232 	.globl _AGCCTRLH
                            233 	.globl _MANORL
                            234 	.globl _MANORH
                            235 	.globl _MANANDL
                            236 	.globl _MANANDH
                            237 	.globl _FSMTCL
                            238 	.globl _FSMTCH
                            239 	.globl _RFPWR
                            240 	.globl _CSPT
                            241 	.globl _CSPCTRL
                            242 	.globl _CSPZ
                            243 	.globl _CSPY
                            244 	.globl _CSPX
                            245 	.globl _FSCTRLL
                            246 	.globl _FSCTRLH
                            247 	.globl _RXCTRL1L
                            248 	.globl _RXCTRL1H
                            249 	.globl _RXCTRL0L
                            250 	.globl _RXCTRL0H
                            251 	.globl _TXCTRLL
                            252 	.globl _TXCTRLH
                            253 	.globl _SYNCWORDL
                            254 	.globl _SYNCWORDH
                            255 	.globl _RSSIL
                            256 	.globl _RSSIH
                            257 	.globl _MDMCTRL1L
                            258 	.globl _MDMCTRL1H
                            259 	.globl _MDMCTRL0L
                            260 	.globl _MDMCTRL0H
                            261 	.globl _mesh_open
                            262 	.globl _mesh_close
                            263 	.globl _mesh_send
                            264 ;--------------------------------------------------------
                            265 ; special function registers
                            266 ;--------------------------------------------------------
                            267 	.area RSEG    (ABS,DATA)
   0000                     268 	.org 0x0000
                    0080    269 _P0	=	0x0080
                    0081    270 _SP	=	0x0081
                    0082    271 _DPL0	=	0x0082
                    0083    272 _DPH0	=	0x0083
                    0084    273 _DPL1	=	0x0084
                    0085    274 _DPH1	=	0x0085
                    0086    275 _U0CSR	=	0x0086
                    0087    276 _PCON	=	0x0087
                    0088    277 _TCON	=	0x0088
                    0089    278 _P0IFG	=	0x0089
                    008A    279 _P1IFG	=	0x008a
                    008B    280 _P2IFG	=	0x008b
                    008C    281 _PICTL	=	0x008c
                    008D    282 _P1IEN	=	0x008d
                    008F    283 _P0INP	=	0x008f
                    0090    284 _P1	=	0x0090
                    0091    285 _RFIM	=	0x0091
                    0092    286 _DPS	=	0x0092
                    0093    287 __XPAGE	=	0x0093
                    0094    288 _T2CMP	=	0x0094
                    0095    289 _ST0	=	0x0095
                    0096    290 _ST1	=	0x0096
                    0097    291 _ST2	=	0x0097
                    0098    292 _S0CON	=	0x0098
                    0099    293 _HSRC	=	0x0099
                    009A    294 _IEN2	=	0x009a
                    009B    295 _S1CON	=	0x009b
                    009C    296 _T2PEROF0	=	0x009c
                    009D    297 _T2PEROF1	=	0x009d
                    009E    298 _T2PEROF2	=	0x009e
                    009F    299 _FMAP	=	0x009f
                    009F    300 _PSBANK	=	0x009f
                    00A0    301 _P2	=	0x00a0
                    00A1    302 _T2OF0	=	0x00a1
                    00A2    303 _T2OF1	=	0x00a2
                    00A3    304 _T2OF2	=	0x00a3
                    00A4    305 _T2CAPLPL	=	0x00a4
                    00A5    306 _T2CAPHPH	=	0x00a5
                    00A6    307 _T2TLD	=	0x00a6
                    00A7    308 _T2THD	=	0x00a7
                    00A8    309 _IE	=	0x00a8
                    00A8    310 _IEN0	=	0x00a8
                    00A9    311 _IP0	=	0x00a9
                    00AB    312 _FWT	=	0x00ab
                    00AC    313 _FADDRL	=	0x00ac
                    00AD    314 _FADDRH	=	0x00ad
                    00AE    315 _FCTL	=	0x00ae
                    00AF    316 _FWDATA	=	0x00af
                    00B1    317 _ENCDI	=	0x00b1
                    00B2    318 _ENCDO	=	0x00b2
                    00B3    319 _ENCCS	=	0x00b3
                    00B4    320 _ADCCON1	=	0x00b4
                    00B5    321 _ADCCON2	=	0x00b5
                    00B6    322 _ADCCON3	=	0x00b6
                    00B7    323 _RCCTL	=	0x00b7
                    00B8    324 _IEN1	=	0x00b8
                    00B9    325 _IP1	=	0x00b9
                    00BA    326 _ADCL	=	0x00ba
                    00BB    327 _ADCH	=	0x00bb
                    00BC    328 _RNDL	=	0x00bc
                    00BD    329 _RNDH	=	0x00bd
                    00BE    330 _SLEEP	=	0x00be
                    00C0    331 _IRCON	=	0x00c0
                    00C1    332 _U0BUF	=	0x00c1
                    00C2    333 _U0BAUD	=	0x00c2
                    00C3    334 _T2CNF	=	0x00c3
                    00C4    335 _U0UCR	=	0x00c4
                    00C5    336 _U0GCR	=	0x00c5
                    00C6    337 _CLKCON	=	0x00c6
                    00C7    338 _MEMCTR	=	0x00c7
                    00C8    339 _T2CON	=	0x00c8
                    00C9    340 _WDCTL	=	0x00c9
                    00CA    341 _T3CNT	=	0x00ca
                    00CB    342 _T3CTL	=	0x00cb
                    00CC    343 _T3CCTL0	=	0x00cc
                    00CD    344 _T3CC0	=	0x00cd
                    00CE    345 _T3CCTL1	=	0x00ce
                    00CF    346 _T3CC1	=	0x00cf
                    00D0    347 _PSW	=	0x00d0
                    00D1    348 _DMAIRQ	=	0x00d1
                    00D2    349 _DMA1CFGL	=	0x00d2
                    00D3    350 _DMA1CFGH	=	0x00d3
                    00D4    351 _DMA0CFGL	=	0x00d4
                    00D5    352 _DMA0CFGH	=	0x00d5
                    00D6    353 _DMAARM	=	0x00d6
                    00D7    354 _DMAREQ	=	0x00d7
                    00D8    355 _TIMIF	=	0x00d8
                    00D9    356 _RFD	=	0x00d9
                    00DA    357 _T1CC0L	=	0x00da
                    00DB    358 _T1CC0H	=	0x00db
                    00DC    359 _T1CC1L	=	0x00dc
                    00DD    360 _T1CC1H	=	0x00dd
                    00DE    361 _T1CC2L	=	0x00de
                    00DF    362 _T1CC2H	=	0x00df
                    00E0    363 _ACC	=	0x00e0
                    00E1    364 _RFST	=	0x00e1
                    00E2    365 _T1CNTL	=	0x00e2
                    00E3    366 _T1CNTH	=	0x00e3
                    00E4    367 _T1CTL	=	0x00e4
                    00E5    368 _T1CCTL0	=	0x00e5
                    00E6    369 _T1CCTL1	=	0x00e6
                    00E7    370 _T1CCTL2	=	0x00e7
                    00E8    371 _IRCON2	=	0x00e8
                    00E9    372 _RFIF	=	0x00e9
                    00EA    373 _T4CNT	=	0x00ea
                    00EB    374 _T4CTL	=	0x00eb
                    00EC    375 _T4CCTL0	=	0x00ec
                    00ED    376 _T4CC0	=	0x00ed
                    00EE    377 _T4CCTL1	=	0x00ee
                    00EF    378 _T4CC1	=	0x00ef
                    00F0    379 _B	=	0x00f0
                    00F1    380 _PERCFG	=	0x00f1
                    00F2    381 _ADCCFG	=	0x00f2
                    00F3    382 _P0SEL	=	0x00f3
                    00F4    383 _P1SEL	=	0x00f4
                    00F5    384 _P2SEL	=	0x00f5
                    00F6    385 _P1INP	=	0x00f6
                    00F7    386 _P2INP	=	0x00f7
                    00F8    387 _U1CSR	=	0x00f8
                    00F9    388 _U1BUF	=	0x00f9
                    00FA    389 _U1BAUD	=	0x00fa
                    00FB    390 _U1UCR	=	0x00fb
                    00FC    391 _U1GCR	=	0x00fc
                    00FD    392 _P0DIR	=	0x00fd
                    00FE    393 _P1DIR	=	0x00fe
                    00FF    394 _P2DIR	=	0x00ff
                            395 ;--------------------------------------------------------
                            396 ; special function bits
                            397 ;--------------------------------------------------------
                            398 	.area RSEG    (ABS,DATA)
   0000                     399 	.org 0x0000
                    0087    400 _P0_7	=	0x0087
                    0086    401 _P0_6	=	0x0086
                    0085    402 _P0_5	=	0x0085
                    0084    403 _P0_4	=	0x0084
                    0083    404 _P0_3	=	0x0083
                    0082    405 _P0_2	=	0x0082
                    0081    406 _P0_1	=	0x0081
                    0080    407 _P0_0	=	0x0080
                    008F    408 _TCON_URX1IF	=	0x008f
                    008D    409 _TCON_ADCIF	=	0x008d
                    008B    410 _TCON_URX0IF	=	0x008b
                    008A    411 _TCON_IT1	=	0x008a
                    0089    412 _TCON_RFERRIF	=	0x0089
                    0088    413 _TCON_IT0	=	0x0088
                    0090    414 _P1_0	=	0x0090
                    0091    415 _P1_1	=	0x0091
                    0092    416 _P1_2	=	0x0092
                    0093    417 _P1_3	=	0x0093
                    0094    418 _P1_4	=	0x0094
                    0095    419 _P1_5	=	0x0095
                    0096    420 _P1_6	=	0x0096
                    0097    421 _P1_7	=	0x0097
                    0099    422 _S0CON_ENCIF_1	=	0x0099
                    0098    423 _S0CON_ENCIF_0	=	0x0098
                    00A0    424 _P2_0	=	0x00a0
                    00A1    425 _P2_1	=	0x00a1
                    00A2    426 _P2_2	=	0x00a2
                    00A3    427 _P2_3	=	0x00a3
                    00A4    428 _P2_4	=	0x00a4
                    00AF    429 _EA	=	0x00af
                    00AF    430 _IEN0_EA	=	0x00af
                    00AD    431 _IEN0_STIE	=	0x00ad
                    00AC    432 _IEN0_ENCIE	=	0x00ac
                    00AB    433 _IEN0_URX1IE	=	0x00ab
                    00AA    434 _IEN0_URX0IE	=	0x00aa
                    00A9    435 _IEN0_ADCIE	=	0x00a9
                    00A8    436 _IEN0_RFERRIE	=	0x00a8
                    00BD    437 _IEN1_P0IE	=	0x00bd
                    00BC    438 _IEN1_T4IE	=	0x00bc
                    00BB    439 _IEN1_T3IE	=	0x00bb
                    00BA    440 _IEN1_T2IE	=	0x00ba
                    00B9    441 _IEN1_T1IE	=	0x00b9
                    00B8    442 _IEN1_DMAIE	=	0x00b8
                    00C7    443 _IRCON_STIF	=	0x00c7
                    00C5    444 _IRCON_P0IF	=	0x00c5
                    00C4    445 _IRCON_T4IF	=	0x00c4
                    00C3    446 _IRCON_T3IF	=	0x00c3
                    00C2    447 _IRCON_T2IF	=	0x00c2
                    00C1    448 _IRCON_T1IF	=	0x00c1
                    00C0    449 _IRCON_DMAIF	=	0x00c0
                    00D0    450 _P	=	0x00d0
                    00D1    451 _F1	=	0x00d1
                    00D2    452 _OV	=	0x00d2
                    00D3    453 _RS0	=	0x00d3
                    00D4    454 _RS1	=	0x00d4
                    00D5    455 _F0	=	0x00d5
                    00D6    456 _AC	=	0x00d6
                    00D7    457 _CY	=	0x00d7
                    00EC    458 _IRCON2_WDTIF	=	0x00ec
                    00EB    459 _IRCON2_P1IF	=	0x00eb
                    00EA    460 _IRCON2_UTX1IF	=	0x00ea
                    00E9    461 _IRCON2_UTX0IF	=	0x00e9
                    00E8    462 _IRCON2_P2IF	=	0x00e8
                            463 ;--------------------------------------------------------
                            464 ; overlayable register banks
                            465 ;--------------------------------------------------------
                            466 	.area REG_BANK_0	(REL,OVR,DATA)
   0000                     467 	.ds 8
                            468 ;--------------------------------------------------------
                            469 ; internal ram data
                            470 ;--------------------------------------------------------
                            471 	.area DSEG    (DATA)
                            472 ;--------------------------------------------------------
                            473 ; overlayable items in internal ram 
                            474 ;--------------------------------------------------------
                            475 	.area OSEG    (OVR,DATA)
                            476 ;--------------------------------------------------------
                            477 ; indirectly addressable internal ram data
                            478 ;--------------------------------------------------------
                            479 	.area ISEG    (DATA)
                            480 ;--------------------------------------------------------
                            481 ; absolute internal ram data
                            482 ;--------------------------------------------------------
                            483 	.area IABS    (ABS,DATA)
                            484 	.area IABS    (ABS,DATA)
                            485 ;--------------------------------------------------------
                            486 ; bit data
                            487 ;--------------------------------------------------------
                            488 	.area BSEG    (BIT)
                            489 ;--------------------------------------------------------
                            490 ; paged external ram data
                            491 ;--------------------------------------------------------
                            492 	.area PSEG    (PAG,XDATA)
                            493 ;--------------------------------------------------------
                            494 ; external ram data
                            495 ;--------------------------------------------------------
                            496 	.area XSEG    (XDATA)
                    DF02    497 _MDMCTRL0H	=	0xdf02
                    DF03    498 _MDMCTRL0L	=	0xdf03
                    DF04    499 _MDMCTRL1H	=	0xdf04
                    DF05    500 _MDMCTRL1L	=	0xdf05
                    DF06    501 _RSSIH	=	0xdf06
                    DF07    502 _RSSIL	=	0xdf07
                    DF08    503 _SYNCWORDH	=	0xdf08
                    DF09    504 _SYNCWORDL	=	0xdf09
                    DF0A    505 _TXCTRLH	=	0xdf0a
                    DF0B    506 _TXCTRLL	=	0xdf0b
                    DF0C    507 _RXCTRL0H	=	0xdf0c
                    DF0D    508 _RXCTRL0L	=	0xdf0d
                    DF0E    509 _RXCTRL1H	=	0xdf0e
                    DF0F    510 _RXCTRL1L	=	0xdf0f
                    DF10    511 _FSCTRLH	=	0xdf10
                    DF11    512 _FSCTRLL	=	0xdf11
                    DF12    513 _CSPX	=	0xdf12
                    DF13    514 _CSPY	=	0xdf13
                    DF14    515 _CSPZ	=	0xdf14
                    DF15    516 _CSPCTRL	=	0xdf15
                    DF16    517 _CSPT	=	0xdf16
                    DF17    518 _RFPWR	=	0xdf17
                    DF20    519 _FSMTCH	=	0xdf20
                    DF21    520 _FSMTCL	=	0xdf21
                    DF22    521 _MANANDH	=	0xdf22
                    DF23    522 _MANANDL	=	0xdf23
                    DF24    523 _MANORH	=	0xdf24
                    DF25    524 _MANORL	=	0xdf25
                    DF26    525 _AGCCTRLH	=	0xdf26
                    DF27    526 _AGCCTRLL	=	0xdf27
                    DF39    527 _FSMSTATE	=	0xdf39
                    DF3A    528 _ADCTSTH	=	0xdf3a
                    DF3B    529 _ADCTSTL	=	0xdf3b
                    DF3C    530 _DACTSTH	=	0xdf3c
                    DF3D    531 _DACTSTL	=	0xdf3d
                    DF43    532 _IEEE_ADDR0	=	0xdf43
                    DF44    533 _IEEE_ADDR1	=	0xdf44
                    DF45    534 _IEEE_ADDR2	=	0xdf45
                    DF46    535 _IEEE_ADDR3	=	0xdf46
                    DF47    536 _IEEE_ADDR4	=	0xdf47
                    DF48    537 _IEEE_ADDR5	=	0xdf48
                    DF49    538 _IEEE_ADDR6	=	0xdf49
                    DF4A    539 _IEEE_ADDR7	=	0xdf4a
                    DF4B    540 _PANIDH	=	0xdf4b
                    DF4C    541 _PANIDL	=	0xdf4c
                    DF4D    542 _SHORTADDRH	=	0xdf4d
                    DF4E    543 _SHORTADDRL	=	0xdf4e
                    DF4F    544 _IOCFG0	=	0xdf4f
                    DF50    545 _IOCFG1	=	0xdf50
                    DF51    546 _IOCFG2	=	0xdf51
                    DF52    547 _IOCFG3	=	0xdf52
                    DF53    548 _RXFIFOCNT	=	0xdf53
                    DF54    549 _FSMTC1	=	0xdf54
                    DF60    550 _CHVER	=	0xdf60
                    DF61    551 _CHIPID	=	0xdf61
                    DF62    552 _RFSTATUS	=	0xdf62
                    DFC1    553 _U0BUF_SHADOW	=	0xdfc1
                    DFD9    554 _RFD_SHADOW	=	0xdfd9
                    DFF9    555 _U1BUF_SHADOW	=	0xdff9
                    DFBA    556 _ADC_SHADOW	=	0xdfba
                            557 ;--------------------------------------------------------
                            558 ; absolute external ram data
                            559 ;--------------------------------------------------------
                            560 	.area XABS    (ABS,XDATA)
                            561 ;--------------------------------------------------------
                            562 ; external initialized ram data
                            563 ;--------------------------------------------------------
                            564 	.area XISEG   (XDATA)
                            565 	.area HOME    (CODE)
                            566 	.area GSINIT0 (CODE)
                            567 	.area GSINIT1 (CODE)
                            568 	.area GSINIT2 (CODE)
                            569 	.area GSINIT3 (CODE)
                            570 	.area GSINIT4 (CODE)
                            571 	.area GSINIT5 (CODE)
                            572 	.area GSINIT  (CODE)
                            573 	.area GSFINAL (CODE)
                            574 	.area CSEG    (CODE)
                            575 ;--------------------------------------------------------
                            576 ; global & static initialisations
                            577 ;--------------------------------------------------------
                            578 	.area HOME    (CODE)
                            579 	.area GSINIT  (CODE)
                            580 	.area GSFINAL (CODE)
                            581 	.area GSINIT  (CODE)
                            582 ;--------------------------------------------------------
                            583 ; Home
                            584 ;--------------------------------------------------------
                            585 	.area HOME    (CODE)
                            586 	.area HOME    (CODE)
                            587 ;--------------------------------------------------------
                            588 ; code
                            589 ;--------------------------------------------------------
                            590 	.area CSEG    (CODE)
                            591 ;------------------------------------------------------------
                            592 ;Allocation info for local variables in function 'data_packet_received'
                            593 ;------------------------------------------------------------
                            594 ;from                      Allocated to stack - offset -5
                            595 ;prevhop                   Allocated to stack - offset -8
                            596 ;hops                      Allocated to stack - offset -9
                            597 ;multihop                  Allocated to registers r2 r3 r4 
                            598 ;c                         Allocated to registers r2 r3 r4 
                            599 ;rt                        Allocated to registers r5 r6 r7 
                            600 ;------------------------------------------------------------
                            601 ;	../../../core/net/rime/mesh.c:65: data_packet_received(struct multihop_conn *multihop,
                            602 ;	-----------------------------------------
                            603 ;	 function data_packet_received
                            604 ;	-----------------------------------------
   0000                     605 _data_packet_received:
                    0002    606 	ar2 = 0x02
                    0003    607 	ar3 = 0x03
                    0004    608 	ar4 = 0x04
                    0005    609 	ar5 = 0x05
                    0006    610 	ar6 = 0x06
                    0007    611 	ar7 = 0x07
                    0000    612 	ar0 = 0x00
                    0001    613 	ar1 = 0x01
   0000 C0*00               614 	push	_bp
   0002 85 81*00            615 	mov	_bp,sp
   0005 AA 82               616 	mov	r2,dpl
   0007 AB 83               617 	mov	r3,dph
   0009 AC F0               618 	mov	r4,b
                            619 ;	../../../core/net/rime/mesh.c:69: struct mesh_conn *c = (struct mesh_conn *)
                            620 ;	../../../core/net/rime/mesh.c:75: rt = route_lookup(from);
   000B E5*00               621 	mov	a,_bp
   000D 24 FB               622 	add	a,#0xfb
   000F F8                  623 	mov	r0,a
   0010 86 82               624 	mov	dpl,@r0
   0012 08                  625 	inc	r0
   0013 86 83               626 	mov	dph,@r0
   0015 08                  627 	inc	r0
   0016 86 F0               628 	mov	b,@r0
   0018 C0 02               629 	push	ar2
   001A C0 03               630 	push	ar3
   001C C0 04               631 	push	ar4
   001E 12s00r00            632 	lcall	_route_lookup
   0021 AD 82               633 	mov	r5,dpl
   0023 AE 83               634 	mov	r6,dph
   0025 AF F0               635 	mov	r7,b
   0027 D0 04               636 	pop	ar4
   0029 D0 03               637 	pop	ar3
   002B D0 02               638 	pop	ar2
                            639 ;	../../../core/net/rime/mesh.c:76: if(rt != NULL) {
   002D ED                  640 	mov	a,r5
   002E 4E                  641 	orl	a,r6
   002F 4F                  642 	orl	a,r7
   0030 60 15               643 	jz	00102$
                            644 ;	../../../core/net/rime/mesh.c:77: route_refresh(rt);
   0032 8D 82               645 	mov	dpl,r5
   0034 8E 83               646 	mov	dph,r6
   0036 8F F0               647 	mov	b,r7
   0038 C0 02               648 	push	ar2
   003A C0 03               649 	push	ar3
   003C C0 04               650 	push	ar4
   003E 12s00r00            651 	lcall	_route_refresh
   0041 D0 04               652 	pop	ar4
   0043 D0 03               653 	pop	ar3
   0045 D0 02               654 	pop	ar2
   0047                     655 00102$:
                            656 ;	../../../core/net/rime/mesh.c:80: if(c->cb->recv) {
   0047 74 7F               657 	mov	a,#0x7F
   0049 2A                  658 	add	a,r2
   004A FD                  659 	mov	r5,a
   004B E4                  660 	clr	a
   004C 3B                  661 	addc	a,r3
   004D FE                  662 	mov	r6,a
   004E 8C 07               663 	mov	ar7,r4
   0050 8D 82               664 	mov	dpl,r5
   0052 8E 83               665 	mov	dph,r6
   0054 8F F0               666 	mov	b,r7
   0056 12s00r00            667 	lcall	__gptrget
   0059 FD                  668 	mov	r5,a
   005A A3                  669 	inc	dptr
   005B 12s00r00            670 	lcall	__gptrget
   005E FE                  671 	mov	r6,a
   005F A3                  672 	inc	dptr
   0060 12s00r00            673 	lcall	__gptrget
   0063 FF                  674 	mov	r7,a
   0064 8D 82               675 	mov	dpl,r5
   0066 8E 83               676 	mov	dph,r6
   0068 8F F0               677 	mov	b,r7
   006A 12s00r00            678 	lcall	__gptrget
   006D FD                  679 	mov	r5,a
   006E A3                  680 	inc	dptr
   006F 12s00r00            681 	lcall	__gptrget
   0072 FE                  682 	mov	r6,a
   0073 4D                  683 	orl	a,r5
   0074 60 39               684 	jz	00105$
                            685 ;	../../../core/net/rime/mesh.c:81: c->cb->recv(c, from, hops);
   0076 C0 05               686 	push	ar5
   0078 C0 06               687 	push	ar6
   007A E5*00               688 	mov	a,_bp
   007C 24 F7               689 	add	a,#0xf7
   007E F8                  690 	mov	r0,a
   007F E6                  691 	mov	a,@r0
   0080 C0 E0               692 	push	acc
   0082 E5*00               693 	mov	a,_bp
   0084 24 FB               694 	add	a,#0xfb
   0086 F8                  695 	mov	r0,a
   0087 E6                  696 	mov	a,@r0
   0088 C0 E0               697 	push	acc
   008A 08                  698 	inc	r0
   008B E6                  699 	mov	a,@r0
   008C C0 E0               700 	push	acc
   008E 08                  701 	inc	r0
   008F E6                  702 	mov	a,@r0
   0090 C0 E0               703 	push	acc
   0092 74rA5               704 	mov	a,#00111$
   0094 C0 E0               705 	push	acc
   0096 74s00               706 	mov	a,#(00111$ >> 8)
   0098 C0 E0               707 	push	acc
   009A C0 05               708 	push	ar5
   009C C0 06               709 	push	ar6
   009E 8A 82               710 	mov	dpl,r2
   00A0 8B 83               711 	mov	dph,r3
   00A2 8C F0               712 	mov	b,r4
   00A4 22                  713 	ret
   00A5                     714 00111$:
   00A5 E5 81               715 	mov	a,sp
   00A7 24 FC               716 	add	a,#0xfc
   00A9 F5 81               717 	mov	sp,a
   00AB D0 06               718 	pop	ar6
   00AD D0 05               719 	pop	ar5
   00AF                     720 00105$:
   00AF D0*00               721 	pop	_bp
   00B1 22                  722 	ret
                            723 ;------------------------------------------------------------
                            724 ;Allocation info for local variables in function 'data_packet_forward'
                            725 ;------------------------------------------------------------
                            726 ;originator                Allocated to stack - offset -5
                            727 ;dest                      Allocated to stack - offset -8
                            728 ;prevhop                   Allocated to stack - offset -11
                            729 ;hops                      Allocated to stack - offset -12
                            730 ;multihop                  Allocated to registers 
                            731 ;rt                        Allocated to registers r2 r3 r4 
                            732 ;------------------------------------------------------------
                            733 ;	../../../core/net/rime/mesh.c:86: data_packet_forward(struct multihop_conn *multihop,
                            734 ;	-----------------------------------------
                            735 ;	 function data_packet_forward
                            736 ;	-----------------------------------------
   00B2                     737 _data_packet_forward:
   00B2 C0*00               738 	push	_bp
   00B4 85 81*00            739 	mov	_bp,sp
                            740 ;	../../../core/net/rime/mesh.c:93: rt = route_lookup(dest);
   00B7 E5*00               741 	mov	a,_bp
   00B9 24 F8               742 	add	a,#0xf8
   00BB F8                  743 	mov	r0,a
   00BC 86 82               744 	mov	dpl,@r0
   00BE 08                  745 	inc	r0
   00BF 86 83               746 	mov	dph,@r0
   00C1 08                  747 	inc	r0
   00C2 86 F0               748 	mov	b,@r0
   00C4 12s00r00            749 	lcall	_route_lookup
   00C7 AA 82               750 	mov	r2,dpl
   00C9 AB 83               751 	mov	r3,dph
   00CB AC F0               752 	mov	r4,b
                            753 ;	../../../core/net/rime/mesh.c:94: if(rt == NULL) {
   00CD EA                  754 	mov	a,r2
   00CE 4B                  755 	orl	a,r3
   00CF 4C                  756 	orl	a,r4
                            757 ;	../../../core/net/rime/mesh.c:95: return NULL;
   00D0 70 07               758 	jnz	00102$
   00D2 90 00 00            759 	mov	dptr,#0x0000
   00D5 F5 F0               760 	mov	b,a
   00D7 80 0D               761 	sjmp	00103$
   00D9                     762 00102$:
                            763 ;	../../../core/net/rime/mesh.c:98: return &rt->nexthop;
   00D9 74 05               764 	mov	a,#0x05
   00DB 2A                  765 	add	a,r2
   00DC FA                  766 	mov	r2,a
   00DD E4                  767 	clr	a
   00DE 3B                  768 	addc	a,r3
   00DF FB                  769 	mov	r3,a
   00E0 8A 82               770 	mov	dpl,r2
   00E2 8B 83               771 	mov	dph,r3
   00E4 8C F0               772 	mov	b,r4
   00E6                     773 00103$:
   00E6 D0*00               774 	pop	_bp
   00E8 22                  775 	ret
                            776 ;------------------------------------------------------------
                            777 ;Allocation info for local variables in function 'found_route'
                            778 ;------------------------------------------------------------
                            779 ;dest                      Allocated to stack - offset -5
                            780 ;rdc                       Allocated to registers r2 r3 r4 
                            781 ;c                         Allocated to stack - offset 1
                            782 ;------------------------------------------------------------
                            783 ;	../../../core/net/rime/mesh.c:102: found_route(struct route_discovery_conn *rdc, const rimeaddr_t *dest)
                            784 ;	-----------------------------------------
                            785 ;	 function found_route
                            786 ;	-----------------------------------------
   00E9                     787 _found_route:
   00E9 C0*00               788 	push	_bp
   00EB 85 81*00            789 	mov	_bp,sp
   00EE 05 81               790 	inc	sp
   00F0 05 81               791 	inc	sp
   00F2 05 81               792 	inc	sp
   00F4 AA 82               793 	mov	r2,dpl
   00F6 AB 83               794 	mov	r3,dph
   00F8 AC F0               795 	mov	r4,b
                            796 ;	../../../core/net/rime/mesh.c:104: struct mesh_conn *c = (struct mesh_conn *)
   00FA A8*00               797 	mov	r0,_bp
   00FC 08                  798 	inc	r0
   00FD EA                  799 	mov	a,r2
   00FE 24 EB               800 	add	a,#0xeb
   0100 F6                  801 	mov	@r0,a
   0101 EB                  802 	mov	a,r3
   0102 34 FF               803 	addc	a,#0xff
   0104 08                  804 	inc	r0
   0105 F6                  805 	mov	@r0,a
   0106 08                  806 	inc	r0
   0107 A6 04               807 	mov	@r0,ar4
                            808 ;	../../../core/net/rime/mesh.c:107: if(c->queued_data != NULL &&
   0109 A8*00               809 	mov	r0,_bp
   010B 08                  810 	inc	r0
   010C 74 7A               811 	mov	a,#0x7A
   010E 26                  812 	add	a,@r0
   010F FD                  813 	mov	r5,a
   0110 E4                  814 	clr	a
   0111 08                  815 	inc	r0
   0112 36                  816 	addc	a,@r0
   0113 FE                  817 	mov	r6,a
   0114 08                  818 	inc	r0
   0115 86 07               819 	mov	ar7,@r0
   0117 8D 82               820 	mov	dpl,r5
   0119 8E 83               821 	mov	dph,r6
   011B 8F F0               822 	mov	b,r7
   011D 12s00r00            823 	lcall	__gptrget
   0120 FA                  824 	mov	r2,a
   0121 A3                  825 	inc	dptr
   0122 12s00r00            826 	lcall	__gptrget
   0125 FB                  827 	mov	r3,a
   0126 A3                  828 	inc	dptr
   0127 12s00r00            829 	lcall	__gptrget
   012A FC                  830 	mov	r4,a
   012B EA                  831 	mov	a,r2
   012C 4B                  832 	orl	a,r3
   012D 4C                  833 	orl	a,r4
   012E 70 03               834 	jnz	00112$
   0130 02s02rB8            835 	ljmp	00107$
   0133                     836 00112$:
                            837 ;	../../../core/net/rime/mesh.c:108: rimeaddr_cmp(dest, &c->queued_data_dest)) {
   0133 A8*00               838 	mov	r0,_bp
   0135 08                  839 	inc	r0
   0136 74 7D               840 	mov	a,#0x7D
   0138 26                  841 	add	a,@r0
   0139 FA                  842 	mov	r2,a
   013A E4                  843 	clr	a
   013B 08                  844 	inc	r0
   013C 36                  845 	addc	a,@r0
   013D FB                  846 	mov	r3,a
   013E 08                  847 	inc	r0
   013F 86 04               848 	mov	ar4,@r0
   0141 C0 05               849 	push	ar5
   0143 C0 06               850 	push	ar6
   0145 C0 07               851 	push	ar7
   0147 C0 02               852 	push	ar2
   0149 C0 03               853 	push	ar3
   014B C0 04               854 	push	ar4
   014D E5*00               855 	mov	a,_bp
   014F 24 FB               856 	add	a,#0xfb
   0151 F8                  857 	mov	r0,a
   0152 86 82               858 	mov	dpl,@r0
   0154 08                  859 	inc	r0
   0155 86 83               860 	mov	dph,@r0
   0157 08                  861 	inc	r0
   0158 86 F0               862 	mov	b,@r0
   015A 12s00r00            863 	lcall	_rimeaddr_cmp
   015D AA 82               864 	mov	r2,dpl
   015F AB 83               865 	mov	r3,dph
   0161 15 81               866 	dec	sp
   0163 15 81               867 	dec	sp
   0165 15 81               868 	dec	sp
   0167 D0 07               869 	pop	ar7
   0169 D0 06               870 	pop	ar6
   016B D0 05               871 	pop	ar5
   016D EA                  872 	mov	a,r2
   016E 4B                  873 	orl	a,r3
   016F 70 03               874 	jnz	00113$
   0171 02s02rB8            875 	ljmp	00107$
   0174                     876 00113$:
                            877 ;	../../../core/net/rime/mesh.c:109: queuebuf_to_packetbuf(c->queued_data);
   0174 8D 82               878 	mov	dpl,r5
   0176 8E 83               879 	mov	dph,r6
   0178 8F F0               880 	mov	b,r7
   017A 12s00r00            881 	lcall	__gptrget
   017D FA                  882 	mov	r2,a
   017E A3                  883 	inc	dptr
   017F 12s00r00            884 	lcall	__gptrget
   0182 FB                  885 	mov	r3,a
   0183 A3                  886 	inc	dptr
   0184 12s00r00            887 	lcall	__gptrget
   0187 FC                  888 	mov	r4,a
   0188 8A 82               889 	mov	dpl,r2
   018A 8B 83               890 	mov	dph,r3
   018C 8C F0               891 	mov	b,r4
   018E C0 05               892 	push	ar5
   0190 C0 06               893 	push	ar6
   0192 C0 07               894 	push	ar7
   0194 12s00r00            895 	lcall	_queuebuf_to_packetbuf
   0197 D0 07               896 	pop	ar7
   0199 D0 06               897 	pop	ar6
   019B D0 05               898 	pop	ar5
                            899 ;	../../../core/net/rime/mesh.c:110: queuebuf_free(c->queued_data);
   019D 8D 82               900 	mov	dpl,r5
   019F 8E 83               901 	mov	dph,r6
   01A1 8F F0               902 	mov	b,r7
   01A3 12s00r00            903 	lcall	__gptrget
   01A6 FA                  904 	mov	r2,a
   01A7 A3                  905 	inc	dptr
   01A8 12s00r00            906 	lcall	__gptrget
   01AB FB                  907 	mov	r3,a
   01AC A3                  908 	inc	dptr
   01AD 12s00r00            909 	lcall	__gptrget
   01B0 FC                  910 	mov	r4,a
   01B1 8A 82               911 	mov	dpl,r2
   01B3 8B 83               912 	mov	dph,r3
   01B5 8C F0               913 	mov	b,r4
   01B7 C0 05               914 	push	ar5
   01B9 C0 06               915 	push	ar6
   01BB C0 07               916 	push	ar7
   01BD 12s00r00            917 	lcall	_queuebuf_free
   01C0 D0 07               918 	pop	ar7
   01C2 D0 06               919 	pop	ar6
   01C4 D0 05               920 	pop	ar5
                            921 ;	../../../core/net/rime/mesh.c:111: c->queued_data = NULL;
   01C6 8D 82               922 	mov	dpl,r5
   01C8 8E 83               923 	mov	dph,r6
   01CA 8F F0               924 	mov	b,r7
   01CC E4                  925 	clr	a
   01CD 12s00r00            926 	lcall	__gptrput
   01D0 A3                  927 	inc	dptr
   01D1 E4                  928 	clr	a
   01D2 12s00r00            929 	lcall	__gptrput
   01D5 A3                  930 	inc	dptr
   01D6 E4                  931 	clr	a
   01D7 12s00r00            932 	lcall	__gptrput
                            933 ;	../../../core/net/rime/mesh.c:112: if(multihop_send(&c->multihop, dest)) {
   01DA E5*00               934 	mov	a,_bp
   01DC 24 FB               935 	add	a,#0xfb
   01DE F8                  936 	mov	r0,a
   01DF E6                  937 	mov	a,@r0
   01E0 C0 E0               938 	push	acc
   01E2 08                  939 	inc	r0
   01E3 E6                  940 	mov	a,@r0
   01E4 C0 E0               941 	push	acc
   01E6 08                  942 	inc	r0
   01E7 E6                  943 	mov	a,@r0
   01E8 C0 E0               944 	push	acc
   01EA A8*00               945 	mov	r0,_bp
   01EC 08                  946 	inc	r0
   01ED 86 82               947 	mov	dpl,@r0
   01EF 08                  948 	inc	r0
   01F0 86 83               949 	mov	dph,@r0
   01F2 08                  950 	inc	r0
   01F3 86 F0               951 	mov	b,@r0
   01F5 12s00r00            952 	lcall	_multihop_send
   01F8 AA 82               953 	mov	r2,dpl
   01FA AB 83               954 	mov	r3,dph
   01FC 15 81               955 	dec	sp
   01FE 15 81               956 	dec	sp
   0200 15 81               957 	dec	sp
   0202 EA                  958 	mov	a,r2
   0203 4B                  959 	orl	a,r3
   0204 60 5A               960 	jz	00102$
                            961 ;	../../../core/net/rime/mesh.c:113: c->cb->sent(c);
   0206 A8*00               962 	mov	r0,_bp
   0208 08                  963 	inc	r0
   0209 74 7F               964 	mov	a,#0x7F
   020B 26                  965 	add	a,@r0
   020C FA                  966 	mov	r2,a
   020D E4                  967 	clr	a
   020E 08                  968 	inc	r0
   020F 36                  969 	addc	a,@r0
   0210 FB                  970 	mov	r3,a
   0211 08                  971 	inc	r0
   0212 86 04               972 	mov	ar4,@r0
   0214 8A 82               973 	mov	dpl,r2
   0216 8B 83               974 	mov	dph,r3
   0218 8C F0               975 	mov	b,r4
   021A 12s00r00            976 	lcall	__gptrget
   021D FA                  977 	mov	r2,a
   021E A3                  978 	inc	dptr
   021F 12s00r00            979 	lcall	__gptrget
   0222 FB                  980 	mov	r3,a
   0223 A3                  981 	inc	dptr
   0224 12s00r00            982 	lcall	__gptrget
   0227 FC                  983 	mov	r4,a
   0228 74 02               984 	mov	a,#0x02
   022A 2A                  985 	add	a,r2
   022B FA                  986 	mov	r2,a
   022C E4                  987 	clr	a
   022D 3B                  988 	addc	a,r3
   022E FB                  989 	mov	r3,a
   022F 8A 82               990 	mov	dpl,r2
   0231 8B 83               991 	mov	dph,r3
   0233 8C F0               992 	mov	b,r4
   0235 12s00r00            993 	lcall	__gptrget
   0238 FA                  994 	mov	r2,a
   0239 A3                  995 	inc	dptr
   023A 12s00r00            996 	lcall	__gptrget
   023D FB                  997 	mov	r3,a
   023E C0 02               998 	push	ar2
   0240 C0 03               999 	push	ar3
   0242 74r5A              1000 	mov	a,#00115$
   0244 C0 E0              1001 	push	acc
   0246 74s02              1002 	mov	a,#(00115$ >> 8)
   0248 C0 E0              1003 	push	acc
   024A C0 02              1004 	push	ar2
   024C C0 03              1005 	push	ar3
   024E A8*00              1006 	mov	r0,_bp
   0250 08                 1007 	inc	r0
   0251 86 82              1008 	mov	dpl,@r0
   0253 08                 1009 	inc	r0
   0254 86 83              1010 	mov	dph,@r0
   0256 08                 1011 	inc	r0
   0257 86 F0              1012 	mov	b,@r0
   0259 22                 1013 	ret
   025A                    1014 00115$:
   025A D0 03              1015 	pop	ar3
   025C D0 02              1016 	pop	ar2
   025E 80 58              1017 	sjmp	00107$
   0260                    1018 00102$:
                           1019 ;	../../../core/net/rime/mesh.c:115: c->cb->timedout(c);
   0260 A8*00              1020 	mov	r0,_bp
   0262 08                 1021 	inc	r0
   0263 74 7F              1022 	mov	a,#0x7F
   0265 26                 1023 	add	a,@r0
   0266 FA                 1024 	mov	r2,a
   0267 E4                 1025 	clr	a
   0268 08                 1026 	inc	r0
   0269 36                 1027 	addc	a,@r0
   026A FB                 1028 	mov	r3,a
   026B 08                 1029 	inc	r0
   026C 86 04              1030 	mov	ar4,@r0
   026E 8A 82              1031 	mov	dpl,r2
   0270 8B 83              1032 	mov	dph,r3
   0272 8C F0              1033 	mov	b,r4
   0274 12s00r00           1034 	lcall	__gptrget
   0277 FA                 1035 	mov	r2,a
   0278 A3                 1036 	inc	dptr
   0279 12s00r00           1037 	lcall	__gptrget
   027C FB                 1038 	mov	r3,a
   027D A3                 1039 	inc	dptr
   027E 12s00r00           1040 	lcall	__gptrget
   0281 FC                 1041 	mov	r4,a
   0282 74 04              1042 	mov	a,#0x04
   0284 2A                 1043 	add	a,r2
   0285 FA                 1044 	mov	r2,a
   0286 E4                 1045 	clr	a
   0287 3B                 1046 	addc	a,r3
   0288 FB                 1047 	mov	r3,a
   0289 8A 82              1048 	mov	dpl,r2
   028B 8B 83              1049 	mov	dph,r3
   028D 8C F0              1050 	mov	b,r4
   028F 12s00r00           1051 	lcall	__gptrget
   0292 FA                 1052 	mov	r2,a
   0293 A3                 1053 	inc	dptr
   0294 12s00r00           1054 	lcall	__gptrget
   0297 FB                 1055 	mov	r3,a
   0298 C0 02              1056 	push	ar2
   029A C0 03              1057 	push	ar3
   029C 74rB4              1058 	mov	a,#00116$
   029E C0 E0              1059 	push	acc
   02A0 74s02              1060 	mov	a,#(00116$ >> 8)
   02A2 C0 E0              1061 	push	acc
   02A4 C0 02              1062 	push	ar2
   02A6 C0 03              1063 	push	ar3
   02A8 A8*00              1064 	mov	r0,_bp
   02AA 08                 1065 	inc	r0
   02AB 86 82              1066 	mov	dpl,@r0
   02AD 08                 1067 	inc	r0
   02AE 86 83              1068 	mov	dph,@r0
   02B0 08                 1069 	inc	r0
   02B1 86 F0              1070 	mov	b,@r0
   02B3 22                 1071 	ret
   02B4                    1072 00116$:
   02B4 D0 03              1073 	pop	ar3
   02B6 D0 02              1074 	pop	ar2
   02B8                    1075 00107$:
   02B8 85*00 81           1076 	mov	sp,_bp
   02BB D0*00              1077 	pop	_bp
   02BD 22                 1078 	ret
                           1079 ;------------------------------------------------------------
                           1080 ;Allocation info for local variables in function 'route_timed_out'
                           1081 ;------------------------------------------------------------
                           1082 ;rdc                       Allocated to registers r2 r3 r4 
                           1083 ;c                         Allocated to registers r2 r3 r4 
                           1084 ;sloc0                     Allocated to stack - offset 1
                           1085 ;------------------------------------------------------------
                           1086 ;	../../../core/net/rime/mesh.c:121: route_timed_out(struct route_discovery_conn *rdc)
                           1087 ;	-----------------------------------------
                           1088 ;	 function route_timed_out
                           1089 ;	-----------------------------------------
   02BE                    1090 _route_timed_out:
   02BE C0*00              1091 	push	_bp
   02C0 85 81*00           1092 	mov	_bp,sp
   02C3 05 81              1093 	inc	sp
   02C5 05 81              1094 	inc	sp
   02C7 05 81              1095 	inc	sp
   02C9 AA 82              1096 	mov	r2,dpl
   02CB AB 83              1097 	mov	r3,dph
   02CD AC F0              1098 	mov	r4,b
                           1099 ;	../../../core/net/rime/mesh.c:123: struct mesh_conn *c = (struct mesh_conn *)
   02CF EA                 1100 	mov	a,r2
   02D0 24 EB              1101 	add	a,#0xeb
   02D2 FA                 1102 	mov	r2,a
   02D3 EB                 1103 	mov	a,r3
   02D4 34 FF              1104 	addc	a,#0xff
   02D6 FB                 1105 	mov	r3,a
                           1106 ;	../../../core/net/rime/mesh.c:126: if(c->queued_data != NULL) {
   02D7 74 7A              1107 	mov	a,#0x7A
   02D9 2A                 1108 	add	a,r2
   02DA FD                 1109 	mov	r5,a
   02DB E4                 1110 	clr	a
   02DC 3B                 1111 	addc	a,r3
   02DD FE                 1112 	mov	r6,a
   02DE 8C 07              1113 	mov	ar7,r4
   02E0 8D 82              1114 	mov	dpl,r5
   02E2 8E 83              1115 	mov	dph,r6
   02E4 8F F0              1116 	mov	b,r7
   02E6 A8*00              1117 	mov	r0,_bp
   02E8 08                 1118 	inc	r0
   02E9 12s00r00           1119 	lcall	__gptrget
   02EC F6                 1120 	mov	@r0,a
   02ED A3                 1121 	inc	dptr
   02EE 12s00r00           1122 	lcall	__gptrget
   02F1 08                 1123 	inc	r0
   02F2 F6                 1124 	mov	@r0,a
   02F3 A3                 1125 	inc	dptr
   02F4 12s00r00           1126 	lcall	__gptrget
   02F7 08                 1127 	inc	r0
   02F8 F6                 1128 	mov	@r0,a
   02F9 A8*00              1129 	mov	r0,_bp
   02FB 08                 1130 	inc	r0
   02FC E6                 1131 	mov	a,@r0
   02FD 08                 1132 	inc	r0
   02FE 46                 1133 	orl	a,@r0
   02FF 08                 1134 	inc	r0
   0300 46                 1135 	orl	a,@r0
   0301 60 3A              1136 	jz	00102$
                           1137 ;	../../../core/net/rime/mesh.c:127: queuebuf_free(c->queued_data);
   0303 A8*00              1138 	mov	r0,_bp
   0305 08                 1139 	inc	r0
   0306 86 82              1140 	mov	dpl,@r0
   0308 08                 1141 	inc	r0
   0309 86 83              1142 	mov	dph,@r0
   030B 08                 1143 	inc	r0
   030C 86 F0              1144 	mov	b,@r0
   030E C0 02              1145 	push	ar2
   0310 C0 03              1146 	push	ar3
   0312 C0 04              1147 	push	ar4
   0314 C0 05              1148 	push	ar5
   0316 C0 06              1149 	push	ar6
   0318 C0 07              1150 	push	ar7
   031A 12s00r00           1151 	lcall	_queuebuf_free
   031D D0 07              1152 	pop	ar7
   031F D0 06              1153 	pop	ar6
   0321 D0 05              1154 	pop	ar5
   0323 D0 04              1155 	pop	ar4
   0325 D0 03              1156 	pop	ar3
   0327 D0 02              1157 	pop	ar2
                           1158 ;	../../../core/net/rime/mesh.c:128: c->queued_data = NULL;
   0329 8D 82              1159 	mov	dpl,r5
   032B 8E 83              1160 	mov	dph,r6
   032D 8F F0              1161 	mov	b,r7
   032F E4                 1162 	clr	a
   0330 12s00r00           1163 	lcall	__gptrput
   0333 A3                 1164 	inc	dptr
   0334 E4                 1165 	clr	a
   0335 12s00r00           1166 	lcall	__gptrput
   0338 A3                 1167 	inc	dptr
   0339 E4                 1168 	clr	a
   033A 12s00r00           1169 	lcall	__gptrput
   033D                    1170 00102$:
                           1171 ;	../../../core/net/rime/mesh.c:131: if(c->cb->timedout) {
   033D 74 7F              1172 	mov	a,#0x7F
   033F 2A                 1173 	add	a,r2
   0340 FD                 1174 	mov	r5,a
   0341 E4                 1175 	clr	a
   0342 3B                 1176 	addc	a,r3
   0343 FE                 1177 	mov	r6,a
   0344 8C 07              1178 	mov	ar7,r4
   0346 8D 82              1179 	mov	dpl,r5
   0348 8E 83              1180 	mov	dph,r6
   034A 8F F0              1181 	mov	b,r7
   034C 12s00r00           1182 	lcall	__gptrget
   034F FD                 1183 	mov	r5,a
   0350 A3                 1184 	inc	dptr
   0351 12s00r00           1185 	lcall	__gptrget
   0354 FE                 1186 	mov	r6,a
   0355 A3                 1187 	inc	dptr
   0356 12s00r00           1188 	lcall	__gptrget
   0359 FF                 1189 	mov	r7,a
   035A 74 04              1190 	mov	a,#0x04
   035C 2D                 1191 	add	a,r5
   035D FD                 1192 	mov	r5,a
   035E E4                 1193 	clr	a
   035F 3E                 1194 	addc	a,r6
   0360 FE                 1195 	mov	r6,a
   0361 8D 82              1196 	mov	dpl,r5
   0363 8E 83              1197 	mov	dph,r6
   0365 8F F0              1198 	mov	b,r7
   0367 12s00r00           1199 	lcall	__gptrget
   036A FD                 1200 	mov	r5,a
   036B A3                 1201 	inc	dptr
   036C 12s00r00           1202 	lcall	__gptrget
   036F FE                 1203 	mov	r6,a
   0370 4D                 1204 	orl	a,r5
   0371 60 1B              1205 	jz	00105$
                           1206 ;	../../../core/net/rime/mesh.c:132: c->cb->timedout(c);
   0373 C0 05              1207 	push	ar5
   0375 C0 06              1208 	push	ar6
   0377 74r8A              1209 	mov	a,#00111$
   0379 C0 E0              1210 	push	acc
   037B 74s03              1211 	mov	a,#(00111$ >> 8)
   037D C0 E0              1212 	push	acc
   037F C0 05              1213 	push	ar5
   0381 C0 06              1214 	push	ar6
   0383 8A 82              1215 	mov	dpl,r2
   0385 8B 83              1216 	mov	dph,r3
   0387 8C F0              1217 	mov	b,r4
   0389 22                 1218 	ret
   038A                    1219 00111$:
   038A D0 06              1220 	pop	ar6
   038C D0 05              1221 	pop	ar5
   038E                    1222 00105$:
   038E 85*00 81           1223 	mov	sp,_bp
   0391 D0*00              1224 	pop	_bp
   0393 22                 1225 	ret
                           1226 ;------------------------------------------------------------
                           1227 ;Allocation info for local variables in function 'mesh_open'
                           1228 ;------------------------------------------------------------
                           1229 ;channels                  Allocated to stack - offset -4
                           1230 ;callbacks                 Allocated to stack - offset -7
                           1231 ;c                         Allocated to stack - offset 1
                           1232 ;------------------------------------------------------------
                           1233 ;	../../../core/net/rime/mesh.c:142: mesh_open(struct mesh_conn *c, uint16_t channels,
                           1234 ;	-----------------------------------------
                           1235 ;	 function mesh_open
                           1236 ;	-----------------------------------------
   0394                    1237 _mesh_open:
   0394 C0*00              1238 	push	_bp
   0396 85 81*00           1239 	mov	_bp,sp
   0399 C0 82              1240 	push	dpl
   039B C0 83              1241 	push	dph
   039D C0 F0              1242 	push	b
                           1243 ;	../../../core/net/rime/mesh.c:145: route_init();
   039F 12s00r00           1244 	lcall	_route_init
                           1245 ;	../../../core/net/rime/mesh.c:146: multihop_open(&c->multihop, channels, &data_callbacks);
   03A2 74r00              1246 	mov	a,#_data_callbacks
   03A4 C0 E0              1247 	push	acc
   03A6 74s00              1248 	mov	a,#(_data_callbacks >> 8)
   03A8 C0 E0              1249 	push	acc
   03AA 74 80              1250 	mov	a,#0x80
   03AC C0 E0              1251 	push	acc
   03AE E5*00              1252 	mov	a,_bp
   03B0 24 FC              1253 	add	a,#0xfc
   03B2 F8                 1254 	mov	r0,a
   03B3 E6                 1255 	mov	a,@r0
   03B4 C0 E0              1256 	push	acc
   03B6 08                 1257 	inc	r0
   03B7 E6                 1258 	mov	a,@r0
   03B8 C0 E0              1259 	push	acc
   03BA A8*00              1260 	mov	r0,_bp
   03BC 08                 1261 	inc	r0
   03BD 86 82              1262 	mov	dpl,@r0
   03BF 08                 1263 	inc	r0
   03C0 86 83              1264 	mov	dph,@r0
   03C2 08                 1265 	inc	r0
   03C3 86 F0              1266 	mov	b,@r0
   03C5 12s00r00           1267 	lcall	_multihop_open
   03C8 E5 81              1268 	mov	a,sp
   03CA 24 FB              1269 	add	a,#0xfb
   03CC F5 81              1270 	mov	sp,a
                           1271 ;	../../../core/net/rime/mesh.c:150: &route_discovery_callbacks);
                           1272 ;	../../../core/net/rime/mesh.c:149: channels + 1,
   03CE E5*00              1273 	mov	a,_bp
   03D0 24 FC              1274 	add	a,#0xfc
   03D2 F8                 1275 	mov	r0,a
   03D3 74 01              1276 	mov	a,#0x01
   03D5 26                 1277 	add	a,@r0
   03D6 FD                 1278 	mov	r5,a
   03D7 E4                 1279 	clr	a
   03D8 08                 1280 	inc	r0
   03D9 36                 1281 	addc	a,@r0
   03DA FE                 1282 	mov	r6,a
                           1283 ;	../../../core/net/rime/mesh.c:147: route_discovery_open(&c->route_discovery_conn,
   03DB A8*00              1284 	mov	r0,_bp
   03DD 08                 1285 	inc	r0
   03DE 74 15              1286 	mov	a,#0x15
   03E0 26                 1287 	add	a,@r0
   03E1 FF                 1288 	mov	r7,a
   03E2 E4                 1289 	clr	a
   03E3 08                 1290 	inc	r0
   03E4 36                 1291 	addc	a,@r0
   03E5 FA                 1292 	mov	r2,a
   03E6 08                 1293 	inc	r0
   03E7 86 03              1294 	mov	ar3,@r0
   03E9 74r04              1295 	mov	a,#_route_discovery_callbacks
   03EB C0 E0              1296 	push	acc
   03ED 74s00              1297 	mov	a,#(_route_discovery_callbacks >> 8)
   03EF C0 E0              1298 	push	acc
   03F1 74 80              1299 	mov	a,#0x80
   03F3 C0 E0              1300 	push	acc
   03F5 C0 05              1301 	push	ar5
   03F7 C0 06              1302 	push	ar6
   03F9 E4                 1303 	clr	a
   03FA C0 E0              1304 	push	acc
   03FC 74 01              1305 	mov	a,#0x01
   03FE C0 E0              1306 	push	acc
   0400 8F 82              1307 	mov	dpl,r7
   0402 8A 83              1308 	mov	dph,r2
   0404 8B F0              1309 	mov	b,r3
   0406 12s00r00           1310 	lcall	_route_discovery_open
   0409 E5 81              1311 	mov	a,sp
   040B 24 F9              1312 	add	a,#0xf9
   040D F5 81              1313 	mov	sp,a
                           1314 ;	../../../core/net/rime/mesh.c:151: c->cb = callbacks;
   040F A8*00              1315 	mov	r0,_bp
   0411 08                 1316 	inc	r0
   0412 74 7F              1317 	mov	a,#0x7F
   0414 26                 1318 	add	a,@r0
   0415 FA                 1319 	mov	r2,a
   0416 E4                 1320 	clr	a
   0417 08                 1321 	inc	r0
   0418 36                 1322 	addc	a,@r0
   0419 FB                 1323 	mov	r3,a
   041A 08                 1324 	inc	r0
   041B 86 04              1325 	mov	ar4,@r0
   041D 8A 82              1326 	mov	dpl,r2
   041F 8B 83              1327 	mov	dph,r3
   0421 8C F0              1328 	mov	b,r4
   0423 E5*00              1329 	mov	a,_bp
   0425 24 F9              1330 	add	a,#0xf9
   0427 F8                 1331 	mov	r0,a
   0428 E6                 1332 	mov	a,@r0
   0429 12s00r00           1333 	lcall	__gptrput
   042C A3                 1334 	inc	dptr
   042D 08                 1335 	inc	r0
   042E E6                 1336 	mov	a,@r0
   042F 12s00r00           1337 	lcall	__gptrput
   0432 A3                 1338 	inc	dptr
   0433 08                 1339 	inc	r0
   0434 E6                 1340 	mov	a,@r0
   0435 12s00r00           1341 	lcall	__gptrput
   0438 85*00 81           1342 	mov	sp,_bp
   043B D0*00              1343 	pop	_bp
   043D 22                 1344 	ret
                           1345 ;------------------------------------------------------------
                           1346 ;Allocation info for local variables in function 'mesh_close'
                           1347 ;------------------------------------------------------------
                           1348 ;c                         Allocated to registers r2 r3 r4 
                           1349 ;------------------------------------------------------------
                           1350 ;	../../../core/net/rime/mesh.c:155: mesh_close(struct mesh_conn *c)
                           1351 ;	-----------------------------------------
                           1352 ;	 function mesh_close
                           1353 ;	-----------------------------------------
   043E                    1354 _mesh_close:
                           1355 ;	../../../core/net/rime/mesh.c:157: multihop_close(&c->multihop);
   043E AA 82              1356 	mov	r2,dpl
   0440 AB 83              1357 	mov	r3,dph
   0442 AC F0              1358 	mov	r4,b
   0444 C0 02              1359 	push	ar2
   0446 C0 03              1360 	push	ar3
   0448 C0 04              1361 	push	ar4
   044A 12s00r00           1362 	lcall	_multihop_close
   044D D0 04              1363 	pop	ar4
   044F D0 03              1364 	pop	ar3
   0451 D0 02              1365 	pop	ar2
                           1366 ;	../../../core/net/rime/mesh.c:158: route_discovery_close(&c->route_discovery_conn);
   0453 74 15              1367 	mov	a,#0x15
   0455 2A                 1368 	add	a,r2
   0456 FA                 1369 	mov	r2,a
   0457 E4                 1370 	clr	a
   0458 3B                 1371 	addc	a,r3
   0459 FB                 1372 	mov	r3,a
   045A 8A 82              1373 	mov	dpl,r2
   045C 8B 83              1374 	mov	dph,r3
   045E 8C F0              1375 	mov	b,r4
   0460 02s00r00           1376 	ljmp	_route_discovery_close
                           1377 ;------------------------------------------------------------
                           1378 ;Allocation info for local variables in function 'mesh_send'
                           1379 ;------------------------------------------------------------
                           1380 ;to                        Allocated to stack - offset -5
                           1381 ;c                         Allocated to stack - offset 1
                           1382 ;could_send                Allocated to registers r5 r6 
                           1383 ;sloc0                     Allocated to stack - offset 6
                           1384 ;------------------------------------------------------------
                           1385 ;	../../../core/net/rime/mesh.c:162: mesh_send(struct mesh_conn *c, const rimeaddr_t *to)
                           1386 ;	-----------------------------------------
                           1387 ;	 function mesh_send
                           1388 ;	-----------------------------------------
   0463                    1389 _mesh_send:
   0463 C0*00              1390 	push	_bp
   0465 85 81*00           1391 	mov	_bp,sp
   0468 C0 82              1392 	push	dpl
   046A C0 83              1393 	push	dph
   046C C0 F0              1394 	push	b
                           1395 ;	../../../core/net/rime/mesh.c:170: could_send = multihop_send(&c->multihop, to);
   046E E5*00              1396 	mov	a,_bp
   0470 24 FB              1397 	add	a,#0xfb
   0472 F8                 1398 	mov	r0,a
   0473 E6                 1399 	mov	a,@r0
   0474 C0 E0              1400 	push	acc
   0476 08                 1401 	inc	r0
   0477 E6                 1402 	mov	a,@r0
   0478 C0 E0              1403 	push	acc
   047A 08                 1404 	inc	r0
   047B E6                 1405 	mov	a,@r0
   047C C0 E0              1406 	push	acc
   047E A8*00              1407 	mov	r0,_bp
   0480 08                 1408 	inc	r0
   0481 86 82              1409 	mov	dpl,@r0
   0483 08                 1410 	inc	r0
   0484 86 83              1411 	mov	dph,@r0
   0486 08                 1412 	inc	r0
   0487 86 F0              1413 	mov	b,@r0
   0489 12s00r00           1414 	lcall	_multihop_send
   048C AD 82              1415 	mov	r5,dpl
   048E AE 83              1416 	mov	r6,dph
   0490 15 81              1417 	dec	sp
   0492 15 81              1418 	dec	sp
   0494 15 81              1419 	dec	sp
                           1420 ;	../../../core/net/rime/mesh.c:172: if(!could_send) {
   0496 ED                 1421 	mov	a,r5
   0497 4E                 1422 	orl	a,r6
   0498 60 03              1423 	jz	00109$
   049A 02s05r68           1424 	ljmp	00104$
   049D                    1425 00109$:
                           1426 ;	../../../core/net/rime/mesh.c:173: if(c->queued_data != NULL) {
   049D A8*00              1427 	mov	r0,_bp
   049F 08                 1428 	inc	r0
   04A0 74 7A              1429 	mov	a,#0x7A
   04A2 26                 1430 	add	a,@r0
   04A3 FD                 1431 	mov	r5,a
   04A4 E4                 1432 	clr	a
   04A5 08                 1433 	inc	r0
   04A6 36                 1434 	addc	a,@r0
   04A7 FE                 1435 	mov	r6,a
   04A8 08                 1436 	inc	r0
   04A9 86 07              1437 	mov	ar7,@r0
   04AB 8D 82              1438 	mov	dpl,r5
   04AD 8E 83              1439 	mov	dph,r6
   04AF 8F F0              1440 	mov	b,r7
   04B1 12s00r00           1441 	lcall	__gptrget
   04B4 FA                 1442 	mov	r2,a
   04B5 A3                 1443 	inc	dptr
   04B6 12s00r00           1444 	lcall	__gptrget
   04B9 FB                 1445 	mov	r3,a
   04BA A3                 1446 	inc	dptr
   04BB 12s00r00           1447 	lcall	__gptrget
   04BE FC                 1448 	mov	r4,a
   04BF EA                 1449 	mov	a,r2
   04C0 4B                 1450 	orl	a,r3
   04C1 4C                 1451 	orl	a,r4
   04C2 60 15              1452 	jz	00102$
                           1453 ;	../../../core/net/rime/mesh.c:174: queuebuf_free(c->queued_data);
   04C4 8A 82              1454 	mov	dpl,r2
   04C6 8B 83              1455 	mov	dph,r3
   04C8 8C F0              1456 	mov	b,r4
   04CA C0 05              1457 	push	ar5
   04CC C0 06              1458 	push	ar6
   04CE C0 07              1459 	push	ar7
   04D0 12s00r00           1460 	lcall	_queuebuf_free
   04D3 D0 07              1461 	pop	ar7
   04D5 D0 06              1462 	pop	ar6
   04D7 D0 05              1463 	pop	ar5
   04D9                    1464 00102$:
                           1465 ;	../../../core/net/rime/mesh.c:178: c->queued_data = queuebuf_new_from_packetbuf();
   04D9 C0 05              1466 	push	ar5
   04DB C0 06              1467 	push	ar6
   04DD C0 07              1468 	push	ar7
   04DF 12s00r00           1469 	lcall	_queuebuf_new_from_packetbuf
   04E2 AA 82              1470 	mov	r2,dpl
   04E4 AB 83              1471 	mov	r3,dph
   04E6 AC F0              1472 	mov	r4,b
   04E8 D0 07              1473 	pop	ar7
   04EA D0 06              1474 	pop	ar6
   04EC D0 05              1475 	pop	ar5
   04EE 8D 82              1476 	mov	dpl,r5
   04F0 8E 83              1477 	mov	dph,r6
   04F2 8F F0              1478 	mov	b,r7
   04F4 EA                 1479 	mov	a,r2
   04F5 12s00r00           1480 	lcall	__gptrput
   04F8 A3                 1481 	inc	dptr
   04F9 EB                 1482 	mov	a,r3
   04FA 12s00r00           1483 	lcall	__gptrput
   04FD A3                 1484 	inc	dptr
   04FE EC                 1485 	mov	a,r4
   04FF 12s00r00           1486 	lcall	__gptrput
                           1487 ;	../../../core/net/rime/mesh.c:179: rimeaddr_copy(&c->queued_data_dest, to);
   0502 A8*00              1488 	mov	r0,_bp
   0504 08                 1489 	inc	r0
   0505 74 7D              1490 	mov	a,#0x7D
   0507 26                 1491 	add	a,@r0
   0508 FA                 1492 	mov	r2,a
   0509 E4                 1493 	clr	a
   050A 08                 1494 	inc	r0
   050B 36                 1495 	addc	a,@r0
   050C FB                 1496 	mov	r3,a
   050D 08                 1497 	inc	r0
   050E 86 04              1498 	mov	ar4,@r0
   0510 E5*00              1499 	mov	a,_bp
   0512 24 FB              1500 	add	a,#0xfb
   0514 F8                 1501 	mov	r0,a
   0515 E6                 1502 	mov	a,@r0
   0516 C0 E0              1503 	push	acc
   0518 08                 1504 	inc	r0
   0519 E6                 1505 	mov	a,@r0
   051A C0 E0              1506 	push	acc
   051C 08                 1507 	inc	r0
   051D E6                 1508 	mov	a,@r0
   051E C0 E0              1509 	push	acc
   0520 8A 82              1510 	mov	dpl,r2
   0522 8B 83              1511 	mov	dph,r3
   0524 8C F0              1512 	mov	b,r4
   0526 12s00r00           1513 	lcall	_rimeaddr_copy
   0529 15 81              1514 	dec	sp
   052B 15 81              1515 	dec	sp
   052D 15 81              1516 	dec	sp
                           1517 ;	../../../core/net/rime/mesh.c:180: route_discovery_discover(&c->route_discovery_conn, to,
   052F A8*00              1518 	mov	r0,_bp
   0531 08                 1519 	inc	r0
   0532 74 15              1520 	mov	a,#0x15
   0534 26                 1521 	add	a,@r0
   0535 FA                 1522 	mov	r2,a
   0536 E4                 1523 	clr	a
   0537 08                 1524 	inc	r0
   0538 36                 1525 	addc	a,@r0
   0539 FB                 1526 	mov	r3,a
   053A 08                 1527 	inc	r0
   053B 86 04              1528 	mov	ar4,@r0
   053D E4                 1529 	clr	a
   053E C0 E0              1530 	push	acc
   0540 74 05              1531 	mov	a,#0x05
   0542 C0 E0              1532 	push	acc
   0544 E5*00              1533 	mov	a,_bp
   0546 24 FB              1534 	add	a,#0xfb
   0548 F8                 1535 	mov	r0,a
   0549 E6                 1536 	mov	a,@r0
   054A C0 E0              1537 	push	acc
   054C 08                 1538 	inc	r0
   054D E6                 1539 	mov	a,@r0
   054E C0 E0              1540 	push	acc
   0550 08                 1541 	inc	r0
   0551 E6                 1542 	mov	a,@r0
   0552 C0 E0              1543 	push	acc
   0554 8A 82              1544 	mov	dpl,r2
   0556 8B 83              1545 	mov	dph,r3
   0558 8C F0              1546 	mov	b,r4
   055A 12s00r00           1547 	lcall	_route_discovery_discover
   055D E5 81              1548 	mov	a,sp
   055F 24 FB              1549 	add	a,#0xfb
   0561 F5 81              1550 	mov	sp,a
                           1551 ;	../../../core/net/rime/mesh.c:182: return 0;
   0563 90 00 00           1552 	mov	dptr,#0x0000
   0566 80 5B              1553 	sjmp	00105$
   0568                    1554 00104$:
                           1555 ;	../../../core/net/rime/mesh.c:184: c->cb->sent(c);
   0568 A8*00              1556 	mov	r0,_bp
   056A 08                 1557 	inc	r0
   056B 74 7F              1558 	mov	a,#0x7F
   056D 26                 1559 	add	a,@r0
   056E FA                 1560 	mov	r2,a
   056F E4                 1561 	clr	a
   0570 08                 1562 	inc	r0
   0571 36                 1563 	addc	a,@r0
   0572 FB                 1564 	mov	r3,a
   0573 08                 1565 	inc	r0
   0574 86 04              1566 	mov	ar4,@r0
   0576 8A 82              1567 	mov	dpl,r2
   0578 8B 83              1568 	mov	dph,r3
   057A 8C F0              1569 	mov	b,r4
   057C 12s00r00           1570 	lcall	__gptrget
   057F FA                 1571 	mov	r2,a
   0580 A3                 1572 	inc	dptr
   0581 12s00r00           1573 	lcall	__gptrget
   0584 FB                 1574 	mov	r3,a
   0585 A3                 1575 	inc	dptr
   0586 12s00r00           1576 	lcall	__gptrget
   0589 FC                 1577 	mov	r4,a
   058A 74 02              1578 	mov	a,#0x02
   058C 2A                 1579 	add	a,r2
   058D FA                 1580 	mov	r2,a
   058E E4                 1581 	clr	a
   058F 3B                 1582 	addc	a,r3
   0590 FB                 1583 	mov	r3,a
   0591 8A 82              1584 	mov	dpl,r2
   0593 8B 83              1585 	mov	dph,r3
   0595 8C F0              1586 	mov	b,r4
   0597 12s00r00           1587 	lcall	__gptrget
   059A FA                 1588 	mov	r2,a
   059B A3                 1589 	inc	dptr
   059C 12s00r00           1590 	lcall	__gptrget
   059F FB                 1591 	mov	r3,a
   05A0 C0 02              1592 	push	ar2
   05A2 C0 03              1593 	push	ar3
   05A4 74rBC              1594 	mov	a,#00111$
   05A6 C0 E0              1595 	push	acc
   05A8 74s05              1596 	mov	a,#(00111$ >> 8)
   05AA C0 E0              1597 	push	acc
   05AC C0 02              1598 	push	ar2
   05AE C0 03              1599 	push	ar3
   05B0 A8*00              1600 	mov	r0,_bp
   05B2 08                 1601 	inc	r0
   05B3 86 82              1602 	mov	dpl,@r0
   05B5 08                 1603 	inc	r0
   05B6 86 83              1604 	mov	dph,@r0
   05B8 08                 1605 	inc	r0
   05B9 86 F0              1606 	mov	b,@r0
   05BB 22                 1607 	ret
   05BC                    1608 00111$:
   05BC D0 03              1609 	pop	ar3
   05BE D0 02              1610 	pop	ar2
                           1611 ;	../../../core/net/rime/mesh.c:185: return 1;
   05C0 90 00 01           1612 	mov	dptr,#0x0001
   05C3                    1613 00105$:
   05C3 85*00 81           1614 	mov	sp,_bp
   05C6 D0*00              1615 	pop	_bp
   05C8 22                 1616 	ret
                           1617 	.area CSEG    (CODE)
                           1618 	.area CONST   (CODE)
   0000                    1619 _data_callbacks:
   0000r00s00              1620 	.byte _data_packet_received,(_data_packet_received >> 8)
   0002rB2s00              1621 	.byte _data_packet_forward,(_data_packet_forward >> 8)
   0004                    1622 _route_discovery_callbacks:
   0004rE9s00              1623 	.byte _found_route,(_found_route >> 8)
   0006rBEs02              1624 	.byte _route_timed_out,(_route_timed_out >> 8)
                           1625 	.area XINIT   (CODE)
                           1626 	.area CABS    (ABS,CODE)
