                              1 ;--------------------------------------------------------
                              2 ; File Created by SDCC : free open source ANSI-C Compiler
                              3 ; Version 3.0.1 #6121 (Nov 17 2015) (CYGWIN)
                              4 ; This file was generated Sat Jan 27 13:27:08 2018
                              5 ;--------------------------------------------------------
                              6 	.module psock
                              7 	.optsdcc -mmcs51 --model-large
                              8 	
                              9 ;--------------------------------------------------------
                             10 ; Public variables in this module
                             11 ;--------------------------------------------------------
                             12 	.globl _IRCON2_P2IF
                             13 	.globl _IRCON2_UTX0IF
                             14 	.globl _IRCON2_UTX1IF
                             15 	.globl _IRCON2_P1IF
                             16 	.globl _IRCON2_WDTIF
                             17 	.globl _CY
                             18 	.globl _AC
                             19 	.globl _F0
                             20 	.globl _RS1
                             21 	.globl _RS0
                             22 	.globl _OV
                             23 	.globl _F1
                             24 	.globl _P
                             25 	.globl _IRCON_DMAIF
                             26 	.globl _IRCON_T1IF
                             27 	.globl _IRCON_T2IF
                             28 	.globl _IRCON_T3IF
                             29 	.globl _IRCON_T4IF
                             30 	.globl _IRCON_P0IF
                             31 	.globl _IRCON_STIF
                             32 	.globl _IEN1_DMAIE
                             33 	.globl _IEN1_T1IE
                             34 	.globl _IEN1_T2IE
                             35 	.globl _IEN1_T3IE
                             36 	.globl _IEN1_T4IE
                             37 	.globl _IEN1_P0IE
                             38 	.globl _IEN0_RFERRIE
                             39 	.globl _IEN0_ADCIE
                             40 	.globl _IEN0_URX0IE
                             41 	.globl _IEN0_URX1IE
                             42 	.globl _IEN0_ENCIE
                             43 	.globl _IEN0_STIE
                             44 	.globl _IEN0_EA
                             45 	.globl _EA
                             46 	.globl _P2_4
                             47 	.globl _P2_3
                             48 	.globl _P2_2
                             49 	.globl _P2_1
                             50 	.globl _P2_0
                             51 	.globl _S0CON_ENCIF_0
                             52 	.globl _S0CON_ENCIF_1
                             53 	.globl _P1_7
                             54 	.globl _P1_6
                             55 	.globl _P1_5
                             56 	.globl _P1_4
                             57 	.globl _P1_3
                             58 	.globl _P1_2
                             59 	.globl _P1_1
                             60 	.globl _P1_0
                             61 	.globl _TCON_IT0
                             62 	.globl _TCON_RFERRIF
                             63 	.globl _TCON_IT1
                             64 	.globl _TCON_URX0IF
                             65 	.globl _TCON_ADCIF
                             66 	.globl _TCON_URX1IF
                             67 	.globl _P0_0
                             68 	.globl _P0_1
                             69 	.globl _P0_2
                             70 	.globl _P0_3
                             71 	.globl _P0_4
                             72 	.globl _P0_5
                             73 	.globl _P0_6
                             74 	.globl _P0_7
                             75 	.globl _P2DIR
                             76 	.globl _P1DIR
                             77 	.globl _P0DIR
                             78 	.globl _U1GCR
                             79 	.globl _U1UCR
                             80 	.globl _U1BAUD
                             81 	.globl _U1BUF
                             82 	.globl _U1CSR
                             83 	.globl _P2INP
                             84 	.globl _P1INP
                             85 	.globl _P2SEL
                             86 	.globl _P1SEL
                             87 	.globl _P0SEL
                             88 	.globl _ADCCFG
                             89 	.globl _PERCFG
                             90 	.globl _B
                             91 	.globl _T4CC1
                             92 	.globl _T4CCTL1
                             93 	.globl _T4CC0
                             94 	.globl _T4CCTL0
                             95 	.globl _T4CTL
                             96 	.globl _T4CNT
                             97 	.globl _RFIF
                             98 	.globl _IRCON2
                             99 	.globl _T1CCTL2
                            100 	.globl _T1CCTL1
                            101 	.globl _T1CCTL0
                            102 	.globl _T1CTL
                            103 	.globl _T1CNTH
                            104 	.globl _T1CNTL
                            105 	.globl _RFST
                            106 	.globl _ACC
                            107 	.globl _T1CC2H
                            108 	.globl _T1CC2L
                            109 	.globl _T1CC1H
                            110 	.globl _T1CC1L
                            111 	.globl _T1CC0H
                            112 	.globl _T1CC0L
                            113 	.globl _RFD
                            114 	.globl _TIMIF
                            115 	.globl _DMAREQ
                            116 	.globl _DMAARM
                            117 	.globl _DMA0CFGH
                            118 	.globl _DMA0CFGL
                            119 	.globl _DMA1CFGH
                            120 	.globl _DMA1CFGL
                            121 	.globl _DMAIRQ
                            122 	.globl _PSW
                            123 	.globl _T3CC1
                            124 	.globl _T3CCTL1
                            125 	.globl _T3CC0
                            126 	.globl _T3CCTL0
                            127 	.globl _T3CTL
                            128 	.globl _T3CNT
                            129 	.globl _WDCTL
                            130 	.globl _T2CON
                            131 	.globl _MEMCTR
                            132 	.globl _CLKCON
                            133 	.globl _U0GCR
                            134 	.globl _U0UCR
                            135 	.globl _T2CNF
                            136 	.globl _U0BAUD
                            137 	.globl _U0BUF
                            138 	.globl _IRCON
                            139 	.globl _SLEEP
                            140 	.globl _RNDH
                            141 	.globl _RNDL
                            142 	.globl _ADCH
                            143 	.globl _ADCL
                            144 	.globl _IP1
                            145 	.globl _IEN1
                            146 	.globl _RCCTL
                            147 	.globl _ADCCON3
                            148 	.globl _ADCCON2
                            149 	.globl _ADCCON1
                            150 	.globl _ENCCS
                            151 	.globl _ENCDO
                            152 	.globl _ENCDI
                            153 	.globl _FWDATA
                            154 	.globl _FCTL
                            155 	.globl _FADDRH
                            156 	.globl _FADDRL
                            157 	.globl _FWT
                            158 	.globl _IP0
                            159 	.globl _IEN0
                            160 	.globl _IE
                            161 	.globl _T2THD
                            162 	.globl _T2TLD
                            163 	.globl _T2CAPHPH
                            164 	.globl _T2CAPLPL
                            165 	.globl _T2OF2
                            166 	.globl _T2OF1
                            167 	.globl _T2OF0
                            168 	.globl _P2
                            169 	.globl _PSBANK
                            170 	.globl _FMAP
                            171 	.globl _T2PEROF2
                            172 	.globl _T2PEROF1
                            173 	.globl _T2PEROF0
                            174 	.globl _S1CON
                            175 	.globl _IEN2
                            176 	.globl _HSRC
                            177 	.globl _S0CON
                            178 	.globl _ST2
                            179 	.globl _ST1
                            180 	.globl _ST0
                            181 	.globl _T2CMP
                            182 	.globl __XPAGE
                            183 	.globl _DPS
                            184 	.globl _RFIM
                            185 	.globl _P1
                            186 	.globl _P0INP
                            187 	.globl _P1IEN
                            188 	.globl _PICTL
                            189 	.globl _P2IFG
                            190 	.globl _P1IFG
                            191 	.globl _P0IFG
                            192 	.globl _TCON
                            193 	.globl _PCON
                            194 	.globl _U0CSR
                            195 	.globl _DPH1
                            196 	.globl _DPL1
                            197 	.globl _DPH0
                            198 	.globl _DPL0
                            199 	.globl _SP
                            200 	.globl _P0
                            201 	.globl _ADC_SHADOW
                            202 	.globl _U1BUF_SHADOW
                            203 	.globl _RFD_SHADOW
                            204 	.globl _U0BUF_SHADOW
                            205 	.globl _RFSTATUS
                            206 	.globl _CHIPID
                            207 	.globl _CHVER
                            208 	.globl _FSMTC1
                            209 	.globl _RXFIFOCNT
                            210 	.globl _IOCFG3
                            211 	.globl _IOCFG2
                            212 	.globl _IOCFG1
                            213 	.globl _IOCFG0
                            214 	.globl _SHORTADDRL
                            215 	.globl _SHORTADDRH
                            216 	.globl _PANIDL
                            217 	.globl _PANIDH
                            218 	.globl _IEEE_ADDR7
                            219 	.globl _IEEE_ADDR6
                            220 	.globl _IEEE_ADDR5
                            221 	.globl _IEEE_ADDR4
                            222 	.globl _IEEE_ADDR3
                            223 	.globl _IEEE_ADDR2
                            224 	.globl _IEEE_ADDR1
                            225 	.globl _IEEE_ADDR0
                            226 	.globl _DACTSTL
                            227 	.globl _DACTSTH
                            228 	.globl _ADCTSTL
                            229 	.globl _ADCTSTH
                            230 	.globl _FSMSTATE
                            231 	.globl _AGCCTRLL
                            232 	.globl _AGCCTRLH
                            233 	.globl _MANORL
                            234 	.globl _MANORH
                            235 	.globl _MANANDL
                            236 	.globl _MANANDH
                            237 	.globl _FSMTCL
                            238 	.globl _FSMTCH
                            239 	.globl _RFPWR
                            240 	.globl _CSPT
                            241 	.globl _CSPCTRL
                            242 	.globl _CSPZ
                            243 	.globl _CSPY
                            244 	.globl _CSPX
                            245 	.globl _FSCTRLL
                            246 	.globl _FSCTRLH
                            247 	.globl _RXCTRL1L
                            248 	.globl _RXCTRL1H
                            249 	.globl _RXCTRL0L
                            250 	.globl _RXCTRL0H
                            251 	.globl _TXCTRLL
                            252 	.globl _TXCTRLH
                            253 	.globl _SYNCWORDL
                            254 	.globl _SYNCWORDH
                            255 	.globl _RSSIL
                            256 	.globl _RSSIH
                            257 	.globl _MDMCTRL1L
                            258 	.globl _MDMCTRL1H
                            259 	.globl _MDMCTRL0L
                            260 	.globl _MDMCTRL0H
                            261 	.globl _psock_send
                            262 	.globl _psock_generator_send
                            263 	.globl _psock_datalen
                            264 	.globl _psock_newdata
                            265 	.globl _psock_readto
                            266 	.globl _psock_readbuf
                            267 	.globl _psock_init
                            268 ;--------------------------------------------------------
                            269 ; special function registers
                            270 ;--------------------------------------------------------
                            271 	.area RSEG    (ABS,DATA)
   0000                     272 	.org 0x0000
                    0080    273 _P0	=	0x0080
                    0081    274 _SP	=	0x0081
                    0082    275 _DPL0	=	0x0082
                    0083    276 _DPH0	=	0x0083
                    0084    277 _DPL1	=	0x0084
                    0085    278 _DPH1	=	0x0085
                    0086    279 _U0CSR	=	0x0086
                    0087    280 _PCON	=	0x0087
                    0088    281 _TCON	=	0x0088
                    0089    282 _P0IFG	=	0x0089
                    008A    283 _P1IFG	=	0x008a
                    008B    284 _P2IFG	=	0x008b
                    008C    285 _PICTL	=	0x008c
                    008D    286 _P1IEN	=	0x008d
                    008F    287 _P0INP	=	0x008f
                    0090    288 _P1	=	0x0090
                    0091    289 _RFIM	=	0x0091
                    0092    290 _DPS	=	0x0092
                    0093    291 __XPAGE	=	0x0093
                    0094    292 _T2CMP	=	0x0094
                    0095    293 _ST0	=	0x0095
                    0096    294 _ST1	=	0x0096
                    0097    295 _ST2	=	0x0097
                    0098    296 _S0CON	=	0x0098
                    0099    297 _HSRC	=	0x0099
                    009A    298 _IEN2	=	0x009a
                    009B    299 _S1CON	=	0x009b
                    009C    300 _T2PEROF0	=	0x009c
                    009D    301 _T2PEROF1	=	0x009d
                    009E    302 _T2PEROF2	=	0x009e
                    009F    303 _FMAP	=	0x009f
                    009F    304 _PSBANK	=	0x009f
                    00A0    305 _P2	=	0x00a0
                    00A1    306 _T2OF0	=	0x00a1
                    00A2    307 _T2OF1	=	0x00a2
                    00A3    308 _T2OF2	=	0x00a3
                    00A4    309 _T2CAPLPL	=	0x00a4
                    00A5    310 _T2CAPHPH	=	0x00a5
                    00A6    311 _T2TLD	=	0x00a6
                    00A7    312 _T2THD	=	0x00a7
                    00A8    313 _IE	=	0x00a8
                    00A8    314 _IEN0	=	0x00a8
                    00A9    315 _IP0	=	0x00a9
                    00AB    316 _FWT	=	0x00ab
                    00AC    317 _FADDRL	=	0x00ac
                    00AD    318 _FADDRH	=	0x00ad
                    00AE    319 _FCTL	=	0x00ae
                    00AF    320 _FWDATA	=	0x00af
                    00B1    321 _ENCDI	=	0x00b1
                    00B2    322 _ENCDO	=	0x00b2
                    00B3    323 _ENCCS	=	0x00b3
                    00B4    324 _ADCCON1	=	0x00b4
                    00B5    325 _ADCCON2	=	0x00b5
                    00B6    326 _ADCCON3	=	0x00b6
                    00B7    327 _RCCTL	=	0x00b7
                    00B8    328 _IEN1	=	0x00b8
                    00B9    329 _IP1	=	0x00b9
                    00BA    330 _ADCL	=	0x00ba
                    00BB    331 _ADCH	=	0x00bb
                    00BC    332 _RNDL	=	0x00bc
                    00BD    333 _RNDH	=	0x00bd
                    00BE    334 _SLEEP	=	0x00be
                    00C0    335 _IRCON	=	0x00c0
                    00C1    336 _U0BUF	=	0x00c1
                    00C2    337 _U0BAUD	=	0x00c2
                    00C3    338 _T2CNF	=	0x00c3
                    00C4    339 _U0UCR	=	0x00c4
                    00C5    340 _U0GCR	=	0x00c5
                    00C6    341 _CLKCON	=	0x00c6
                    00C7    342 _MEMCTR	=	0x00c7
                    00C8    343 _T2CON	=	0x00c8
                    00C9    344 _WDCTL	=	0x00c9
                    00CA    345 _T3CNT	=	0x00ca
                    00CB    346 _T3CTL	=	0x00cb
                    00CC    347 _T3CCTL0	=	0x00cc
                    00CD    348 _T3CC0	=	0x00cd
                    00CE    349 _T3CCTL1	=	0x00ce
                    00CF    350 _T3CC1	=	0x00cf
                    00D0    351 _PSW	=	0x00d0
                    00D1    352 _DMAIRQ	=	0x00d1
                    00D2    353 _DMA1CFGL	=	0x00d2
                    00D3    354 _DMA1CFGH	=	0x00d3
                    00D4    355 _DMA0CFGL	=	0x00d4
                    00D5    356 _DMA0CFGH	=	0x00d5
                    00D6    357 _DMAARM	=	0x00d6
                    00D7    358 _DMAREQ	=	0x00d7
                    00D8    359 _TIMIF	=	0x00d8
                    00D9    360 _RFD	=	0x00d9
                    00DA    361 _T1CC0L	=	0x00da
                    00DB    362 _T1CC0H	=	0x00db
                    00DC    363 _T1CC1L	=	0x00dc
                    00DD    364 _T1CC1H	=	0x00dd
                    00DE    365 _T1CC2L	=	0x00de
                    00DF    366 _T1CC2H	=	0x00df
                    00E0    367 _ACC	=	0x00e0
                    00E1    368 _RFST	=	0x00e1
                    00E2    369 _T1CNTL	=	0x00e2
                    00E3    370 _T1CNTH	=	0x00e3
                    00E4    371 _T1CTL	=	0x00e4
                    00E5    372 _T1CCTL0	=	0x00e5
                    00E6    373 _T1CCTL1	=	0x00e6
                    00E7    374 _T1CCTL2	=	0x00e7
                    00E8    375 _IRCON2	=	0x00e8
                    00E9    376 _RFIF	=	0x00e9
                    00EA    377 _T4CNT	=	0x00ea
                    00EB    378 _T4CTL	=	0x00eb
                    00EC    379 _T4CCTL0	=	0x00ec
                    00ED    380 _T4CC0	=	0x00ed
                    00EE    381 _T4CCTL1	=	0x00ee
                    00EF    382 _T4CC1	=	0x00ef
                    00F0    383 _B	=	0x00f0
                    00F1    384 _PERCFG	=	0x00f1
                    00F2    385 _ADCCFG	=	0x00f2
                    00F3    386 _P0SEL	=	0x00f3
                    00F4    387 _P1SEL	=	0x00f4
                    00F5    388 _P2SEL	=	0x00f5
                    00F6    389 _P1INP	=	0x00f6
                    00F7    390 _P2INP	=	0x00f7
                    00F8    391 _U1CSR	=	0x00f8
                    00F9    392 _U1BUF	=	0x00f9
                    00FA    393 _U1BAUD	=	0x00fa
                    00FB    394 _U1UCR	=	0x00fb
                    00FC    395 _U1GCR	=	0x00fc
                    00FD    396 _P0DIR	=	0x00fd
                    00FE    397 _P1DIR	=	0x00fe
                    00FF    398 _P2DIR	=	0x00ff
                            399 ;--------------------------------------------------------
                            400 ; special function bits
                            401 ;--------------------------------------------------------
                            402 	.area RSEG    (ABS,DATA)
   0000                     403 	.org 0x0000
                    0087    404 _P0_7	=	0x0087
                    0086    405 _P0_6	=	0x0086
                    0085    406 _P0_5	=	0x0085
                    0084    407 _P0_4	=	0x0084
                    0083    408 _P0_3	=	0x0083
                    0082    409 _P0_2	=	0x0082
                    0081    410 _P0_1	=	0x0081
                    0080    411 _P0_0	=	0x0080
                    008F    412 _TCON_URX1IF	=	0x008f
                    008D    413 _TCON_ADCIF	=	0x008d
                    008B    414 _TCON_URX0IF	=	0x008b
                    008A    415 _TCON_IT1	=	0x008a
                    0089    416 _TCON_RFERRIF	=	0x0089
                    0088    417 _TCON_IT0	=	0x0088
                    0090    418 _P1_0	=	0x0090
                    0091    419 _P1_1	=	0x0091
                    0092    420 _P1_2	=	0x0092
                    0093    421 _P1_3	=	0x0093
                    0094    422 _P1_4	=	0x0094
                    0095    423 _P1_5	=	0x0095
                    0096    424 _P1_6	=	0x0096
                    0097    425 _P1_7	=	0x0097
                    0099    426 _S0CON_ENCIF_1	=	0x0099
                    0098    427 _S0CON_ENCIF_0	=	0x0098
                    00A0    428 _P2_0	=	0x00a0
                    00A1    429 _P2_1	=	0x00a1
                    00A2    430 _P2_2	=	0x00a2
                    00A3    431 _P2_3	=	0x00a3
                    00A4    432 _P2_4	=	0x00a4
                    00AF    433 _EA	=	0x00af
                    00AF    434 _IEN0_EA	=	0x00af
                    00AD    435 _IEN0_STIE	=	0x00ad
                    00AC    436 _IEN0_ENCIE	=	0x00ac
                    00AB    437 _IEN0_URX1IE	=	0x00ab
                    00AA    438 _IEN0_URX0IE	=	0x00aa
                    00A9    439 _IEN0_ADCIE	=	0x00a9
                    00A8    440 _IEN0_RFERRIE	=	0x00a8
                    00BD    441 _IEN1_P0IE	=	0x00bd
                    00BC    442 _IEN1_T4IE	=	0x00bc
                    00BB    443 _IEN1_T3IE	=	0x00bb
                    00BA    444 _IEN1_T2IE	=	0x00ba
                    00B9    445 _IEN1_T1IE	=	0x00b9
                    00B8    446 _IEN1_DMAIE	=	0x00b8
                    00C7    447 _IRCON_STIF	=	0x00c7
                    00C5    448 _IRCON_P0IF	=	0x00c5
                    00C4    449 _IRCON_T4IF	=	0x00c4
                    00C3    450 _IRCON_T3IF	=	0x00c3
                    00C2    451 _IRCON_T2IF	=	0x00c2
                    00C1    452 _IRCON_T1IF	=	0x00c1
                    00C0    453 _IRCON_DMAIF	=	0x00c0
                    00D0    454 _P	=	0x00d0
                    00D1    455 _F1	=	0x00d1
                    00D2    456 _OV	=	0x00d2
                    00D3    457 _RS0	=	0x00d3
                    00D4    458 _RS1	=	0x00d4
                    00D5    459 _F0	=	0x00d5
                    00D6    460 _AC	=	0x00d6
                    00D7    461 _CY	=	0x00d7
                    00EC    462 _IRCON2_WDTIF	=	0x00ec
                    00EB    463 _IRCON2_P1IF	=	0x00eb
                    00EA    464 _IRCON2_UTX1IF	=	0x00ea
                    00E9    465 _IRCON2_UTX0IF	=	0x00e9
                    00E8    466 _IRCON2_P2IF	=	0x00e8
                            467 ;--------------------------------------------------------
                            468 ; overlayable register banks
                            469 ;--------------------------------------------------------
                            470 	.area REG_BANK_0	(REL,OVR,DATA)
   0000                     471 	.ds 8
                            472 ;--------------------------------------------------------
                            473 ; internal ram data
                            474 ;--------------------------------------------------------
                            475 	.area DSEG    (DATA)
                            476 ;--------------------------------------------------------
                            477 ; overlayable items in internal ram 
                            478 ;--------------------------------------------------------
                            479 	.area OSEG    (OVR,DATA)
                            480 ;--------------------------------------------------------
                            481 ; indirectly addressable internal ram data
                            482 ;--------------------------------------------------------
                            483 	.area ISEG    (DATA)
                            484 ;--------------------------------------------------------
                            485 ; absolute internal ram data
                            486 ;--------------------------------------------------------
                            487 	.area IABS    (ABS,DATA)
                            488 	.area IABS    (ABS,DATA)
                            489 ;--------------------------------------------------------
                            490 ; bit data
                            491 ;--------------------------------------------------------
                            492 	.area BSEG    (BIT)
                            493 ;--------------------------------------------------------
                            494 ; paged external ram data
                            495 ;--------------------------------------------------------
                            496 	.area PSEG    (PAG,XDATA)
                            497 ;--------------------------------------------------------
                            498 ; external ram data
                            499 ;--------------------------------------------------------
                            500 	.area XSEG    (XDATA)
                    DF02    501 _MDMCTRL0H	=	0xdf02
                    DF03    502 _MDMCTRL0L	=	0xdf03
                    DF04    503 _MDMCTRL1H	=	0xdf04
                    DF05    504 _MDMCTRL1L	=	0xdf05
                    DF06    505 _RSSIH	=	0xdf06
                    DF07    506 _RSSIL	=	0xdf07
                    DF08    507 _SYNCWORDH	=	0xdf08
                    DF09    508 _SYNCWORDL	=	0xdf09
                    DF0A    509 _TXCTRLH	=	0xdf0a
                    DF0B    510 _TXCTRLL	=	0xdf0b
                    DF0C    511 _RXCTRL0H	=	0xdf0c
                    DF0D    512 _RXCTRL0L	=	0xdf0d
                    DF0E    513 _RXCTRL1H	=	0xdf0e
                    DF0F    514 _RXCTRL1L	=	0xdf0f
                    DF10    515 _FSCTRLH	=	0xdf10
                    DF11    516 _FSCTRLL	=	0xdf11
                    DF12    517 _CSPX	=	0xdf12
                    DF13    518 _CSPY	=	0xdf13
                    DF14    519 _CSPZ	=	0xdf14
                    DF15    520 _CSPCTRL	=	0xdf15
                    DF16    521 _CSPT	=	0xdf16
                    DF17    522 _RFPWR	=	0xdf17
                    DF20    523 _FSMTCH	=	0xdf20
                    DF21    524 _FSMTCL	=	0xdf21
                    DF22    525 _MANANDH	=	0xdf22
                    DF23    526 _MANANDL	=	0xdf23
                    DF24    527 _MANORH	=	0xdf24
                    DF25    528 _MANORL	=	0xdf25
                    DF26    529 _AGCCTRLH	=	0xdf26
                    DF27    530 _AGCCTRLL	=	0xdf27
                    DF39    531 _FSMSTATE	=	0xdf39
                    DF3A    532 _ADCTSTH	=	0xdf3a
                    DF3B    533 _ADCTSTL	=	0xdf3b
                    DF3C    534 _DACTSTH	=	0xdf3c
                    DF3D    535 _DACTSTL	=	0xdf3d
                    DF43    536 _IEEE_ADDR0	=	0xdf43
                    DF44    537 _IEEE_ADDR1	=	0xdf44
                    DF45    538 _IEEE_ADDR2	=	0xdf45
                    DF46    539 _IEEE_ADDR3	=	0xdf46
                    DF47    540 _IEEE_ADDR4	=	0xdf47
                    DF48    541 _IEEE_ADDR5	=	0xdf48
                    DF49    542 _IEEE_ADDR6	=	0xdf49
                    DF4A    543 _IEEE_ADDR7	=	0xdf4a
                    DF4B    544 _PANIDH	=	0xdf4b
                    DF4C    545 _PANIDL	=	0xdf4c
                    DF4D    546 _SHORTADDRH	=	0xdf4d
                    DF4E    547 _SHORTADDRL	=	0xdf4e
                    DF4F    548 _IOCFG0	=	0xdf4f
                    DF50    549 _IOCFG1	=	0xdf50
                    DF51    550 _IOCFG2	=	0xdf51
                    DF52    551 _IOCFG3	=	0xdf52
                    DF53    552 _RXFIFOCNT	=	0xdf53
                    DF54    553 _FSMTC1	=	0xdf54
                    DF60    554 _CHVER	=	0xdf60
                    DF61    555 _CHIPID	=	0xdf61
                    DF62    556 _RFSTATUS	=	0xdf62
                    DFC1    557 _U0BUF_SHADOW	=	0xdfc1
                    DFD9    558 _RFD_SHADOW	=	0xdfd9
                    DFF9    559 _U1BUF_SHADOW	=	0xdff9
                    DFBA    560 _ADC_SHADOW	=	0xdfba
                            561 ;--------------------------------------------------------
                            562 ; absolute external ram data
                            563 ;--------------------------------------------------------
                            564 	.area XABS    (ABS,XDATA)
                            565 ;--------------------------------------------------------
                            566 ; external initialized ram data
                            567 ;--------------------------------------------------------
                            568 	.area XISEG   (XDATA)
                            569 	.area HOME    (CODE)
                            570 	.area GSINIT0 (CODE)
                            571 	.area GSINIT1 (CODE)
                            572 	.area GSINIT2 (CODE)
                            573 	.area GSINIT3 (CODE)
                            574 	.area GSINIT4 (CODE)
                            575 	.area GSINIT5 (CODE)
                            576 	.area GSINIT  (CODE)
                            577 	.area GSFINAL (CODE)
                            578 	.area CSEG    (CODE)
                            579 ;--------------------------------------------------------
                            580 ; global & static initialisations
                            581 ;--------------------------------------------------------
                            582 	.area HOME    (CODE)
                            583 	.area GSINIT  (CODE)
                            584 	.area GSFINAL (CODE)
                            585 	.area GSINIT  (CODE)
                            586 ;--------------------------------------------------------
                            587 ; Home
                            588 ;--------------------------------------------------------
                            589 	.area HOME    (CODE)
                            590 	.area HOME    (CODE)
                            591 ;--------------------------------------------------------
                            592 ; code
                            593 ;--------------------------------------------------------
                            594 	.area CSEG    (CODE)
                            595 ;------------------------------------------------------------
                            596 ;Allocation info for local variables in function 'buf_setup'
                            597 ;------------------------------------------------------------
                            598 ;bufptr                    Allocated to stack - offset -5
                            599 ;bufsize                   Allocated to stack - offset -7
                            600 ;buf                       Allocated to registers r2 r3 r4 
                            601 ;------------------------------------------------------------
                            602 ;	../../../core/net/psock.c:72: buf_setup(struct psock_buf *buf,
                            603 ;	-----------------------------------------
                            604 ;	 function buf_setup
                            605 ;	-----------------------------------------
   0000                     606 _buf_setup:
                    0002    607 	ar2 = 0x02
                    0003    608 	ar3 = 0x03
                    0004    609 	ar4 = 0x04
                    0005    610 	ar5 = 0x05
                    0006    611 	ar6 = 0x06
                    0007    612 	ar7 = 0x07
                    0000    613 	ar0 = 0x00
                    0001    614 	ar1 = 0x01
   0000 C0*00               615 	push	_bp
   0002 85 81*00            616 	mov	_bp,sp
                            617 ;	../../../core/net/psock.c:75: buf->ptr = bufptr;
   0005 AA 82               618 	mov	r2,dpl
   0007 AB 83               619 	mov	r3,dph
   0009 AC F0               620 	mov	r4,b
   000B E5*00               621 	mov	a,_bp
   000D 24 FB               622 	add	a,#0xfb
   000F F8                  623 	mov	r0,a
   0010 E6                  624 	mov	a,@r0
   0011 12s00r00            625 	lcall	__gptrput
   0014 A3                  626 	inc	dptr
   0015 08                  627 	inc	r0
   0016 E6                  628 	mov	a,@r0
   0017 12s00r00            629 	lcall	__gptrput
   001A A3                  630 	inc	dptr
   001B 08                  631 	inc	r0
   001C E6                  632 	mov	a,@r0
   001D 12s00r00            633 	lcall	__gptrput
                            634 ;	../../../core/net/psock.c:76: buf->left = bufsize;
   0020 74 03               635 	mov	a,#0x03
   0022 2A                  636 	add	a,r2
   0023 FA                  637 	mov	r2,a
   0024 E4                  638 	clr	a
   0025 3B                  639 	addc	a,r3
   0026 FB                  640 	mov	r3,a
   0027 8A 82               641 	mov	dpl,r2
   0029 8B 83               642 	mov	dph,r3
   002B 8C F0               643 	mov	b,r4
   002D E5*00               644 	mov	a,_bp
   002F 24 F9               645 	add	a,#0xf9
   0031 F8                  646 	mov	r0,a
   0032 E6                  647 	mov	a,@r0
   0033 12s00r00            648 	lcall	__gptrput
   0036 A3                  649 	inc	dptr
   0037 08                  650 	inc	r0
   0038 E6                  651 	mov	a,@r0
   0039 12s00r00            652 	lcall	__gptrput
   003C D0*00               653 	pop	_bp
   003E 22                  654 	ret
                            655 ;------------------------------------------------------------
                            656 ;Allocation info for local variables in function 'buf_bufdata'
                            657 ;------------------------------------------------------------
                            658 ;len                       Allocated to stack - offset -4
                            659 ;dataptr                   Allocated to stack - offset -7
                            660 ;datalen                   Allocated to stack - offset -10
                            661 ;buf                       Allocated to stack - offset 1
                            662 ;sloc0                     Allocated to stack - offset 4
                            663 ;sloc1                     Allocated to stack - offset 6
                            664 ;sloc2                     Allocated to stack - offset 9
                            665 ;sloc3                     Allocated to stack - offset 11
                            666 ;sloc4                     Allocated to stack - offset 14
                            667 ;sloc5                     Allocated to stack - offset 17
                            668 ;------------------------------------------------------------
                            669 ;	../../../core/net/psock.c:80: buf_bufdata(struct psock_buf *buf, u16_t len,
                            670 ;	-----------------------------------------
                            671 ;	 function buf_bufdata
                            672 ;	-----------------------------------------
   003F                     673 _buf_bufdata:
   003F C0*00               674 	push	_bp
   0041 85 81*00            675 	mov	_bp,sp
   0044 C0 82               676 	push	dpl
   0046 C0 83               677 	push	dph
   0048 C0 F0               678 	push	b
   004A E5 81               679 	mov	a,sp
   004C 24 12               680 	add	a,#0x12
   004E F5 81               681 	mov	sp,a
                            682 ;	../../../core/net/psock.c:83: if(*datalen < buf->left) {
   0050 E5*00               683 	mov	a,_bp
   0052 24 F6               684 	add	a,#0xf6
   0054 F8                  685 	mov	r0,a
   0055 86 05               686 	mov	ar5,@r0
   0057 08                  687 	inc	r0
   0058 86 06               688 	mov	ar6,@r0
   005A 08                  689 	inc	r0
   005B 86 07               690 	mov	ar7,@r0
   005D 8D 82               691 	mov	dpl,r5
   005F 8E 83               692 	mov	dph,r6
   0061 8F F0               693 	mov	b,r7
   0063 E5*00               694 	mov	a,_bp
   0065 24 04               695 	add	a,#0x04
   0067 F8                  696 	mov	r0,a
   0068 12s00r00            697 	lcall	__gptrget
   006B F6                  698 	mov	@r0,a
   006C A3                  699 	inc	dptr
   006D 12s00r00            700 	lcall	__gptrget
   0070 08                  701 	inc	r0
   0071 F6                  702 	mov	@r0,a
   0072 A8*00               703 	mov	r0,_bp
   0074 08                  704 	inc	r0
   0075 E5*00               705 	mov	a,_bp
   0077 24 06               706 	add	a,#0x06
   0079 F9                  707 	mov	r1,a
   007A 74 03               708 	mov	a,#0x03
   007C 26                  709 	add	a,@r0
   007D F7                  710 	mov	@r1,a
   007E E4                  711 	clr	a
   007F 08                  712 	inc	r0
   0080 36                  713 	addc	a,@r0
   0081 09                  714 	inc	r1
   0082 F7                  715 	mov	@r1,a
   0083 08                  716 	inc	r0
   0084 09                  717 	inc	r1
   0085 E6                  718 	mov	a,@r0
   0086 F7                  719 	mov	@r1,a
   0087 E5*00               720 	mov	a,_bp
   0089 24 06               721 	add	a,#0x06
   008B F8                  722 	mov	r0,a
   008C 86 82               723 	mov	dpl,@r0
   008E 08                  724 	inc	r0
   008F 86 83               725 	mov	dph,@r0
   0091 08                  726 	inc	r0
   0092 86 F0               727 	mov	b,@r0
   0094 E5*00               728 	mov	a,_bp
   0096 24 09               729 	add	a,#0x09
   0098 F9                  730 	mov	r1,a
   0099 12s00r00            731 	lcall	__gptrget
   009C F7                  732 	mov	@r1,a
   009D A3                  733 	inc	dptr
   009E 12s00r00            734 	lcall	__gptrget
   00A1 09                  735 	inc	r1
   00A2 F7                  736 	mov	@r1,a
   00A3 E5*00               737 	mov	a,_bp
   00A5 24 04               738 	add	a,#0x04
   00A7 F8                  739 	mov	r0,a
   00A8 E5*00               740 	mov	a,_bp
   00AA 24 09               741 	add	a,#0x09
   00AC F9                  742 	mov	r1,a
   00AD C3                  743 	clr	c
   00AE E6                  744 	mov	a,@r0
   00AF 97                  745 	subb	a,@r1
   00B0 08                  746 	inc	r0
   00B1 E6                  747 	mov	a,@r0
   00B2 09                  748 	inc	r1
   00B3 97                  749 	subb	a,@r1
   00B4 40 03               750 	jc	00111$
   00B6 02s02r22            751 	ljmp	00105$
   00B9                     752 00111$:
                            753 ;	../../../core/net/psock.c:84: memcpy(buf->ptr, *dataptr, *datalen);
   00B9 E5*00               754 	mov	a,_bp
   00BB 24 F9               755 	add	a,#0xf9
   00BD F8                  756 	mov	r0,a
   00BE E5*00               757 	mov	a,_bp
   00C0 24 0B               758 	add	a,#0x0b
   00C2 F9                  759 	mov	r1,a
   00C3 E6                  760 	mov	a,@r0
   00C4 F7                  761 	mov	@r1,a
   00C5 08                  762 	inc	r0
   00C6 09                  763 	inc	r1
   00C7 E6                  764 	mov	a,@r0
   00C8 F7                  765 	mov	@r1,a
   00C9 08                  766 	inc	r0
   00CA 09                  767 	inc	r1
   00CB E6                  768 	mov	a,@r0
   00CC F7                  769 	mov	@r1,a
   00CD E5*00               770 	mov	a,_bp
   00CF 24 0B               771 	add	a,#0x0b
   00D1 F8                  772 	mov	r0,a
   00D2 86 82               773 	mov	dpl,@r0
   00D4 08                  774 	inc	r0
   00D5 86 83               775 	mov	dph,@r0
   00D7 08                  776 	inc	r0
   00D8 86 F0               777 	mov	b,@r0
   00DA E5*00               778 	mov	a,_bp
   00DC 24 0E               779 	add	a,#0x0e
   00DE F9                  780 	mov	r1,a
   00DF 12s00r00            781 	lcall	__gptrget
   00E2 F7                  782 	mov	@r1,a
   00E3 A3                  783 	inc	dptr
   00E4 12s00r00            784 	lcall	__gptrget
   00E7 09                  785 	inc	r1
   00E8 F7                  786 	mov	@r1,a
   00E9 A3                  787 	inc	dptr
   00EA 12s00r00            788 	lcall	__gptrget
   00ED 09                  789 	inc	r1
   00EE F7                  790 	mov	@r1,a
   00EF A8*00               791 	mov	r0,_bp
   00F1 08                  792 	inc	r0
   00F2 86 82               793 	mov	dpl,@r0
   00F4 08                  794 	inc	r0
   00F5 86 83               795 	mov	dph,@r0
   00F7 08                  796 	inc	r0
   00F8 86 F0               797 	mov	b,@r0
   00FA 12s00r00            798 	lcall	__gptrget
   00FD FA                  799 	mov	r2,a
   00FE A3                  800 	inc	dptr
   00FF 12s00r00            801 	lcall	__gptrget
   0102 FB                  802 	mov	r3,a
   0103 A3                  803 	inc	dptr
   0104 12s00r00            804 	lcall	__gptrget
   0107 FC                  805 	mov	r4,a
   0108 C0 05               806 	push	ar5
   010A C0 06               807 	push	ar6
   010C C0 07               808 	push	ar7
   010E E5*00               809 	mov	a,_bp
   0110 24 04               810 	add	a,#0x04
   0112 F8                  811 	mov	r0,a
   0113 E6                  812 	mov	a,@r0
   0114 C0 E0               813 	push	acc
   0116 08                  814 	inc	r0
   0117 E6                  815 	mov	a,@r0
   0118 C0 E0               816 	push	acc
   011A E5*00               817 	mov	a,_bp
   011C 24 0E               818 	add	a,#0x0e
   011E F8                  819 	mov	r0,a
   011F E6                  820 	mov	a,@r0
   0120 C0 E0               821 	push	acc
   0122 08                  822 	inc	r0
   0123 E6                  823 	mov	a,@r0
   0124 C0 E0               824 	push	acc
   0126 08                  825 	inc	r0
   0127 E6                  826 	mov	a,@r0
   0128 C0 E0               827 	push	acc
   012A 8A 82               828 	mov	dpl,r2
   012C 8B 83               829 	mov	dph,r3
   012E 8C F0               830 	mov	b,r4
   0130 12s00r00            831 	lcall	_memcpy
   0133 E5 81               832 	mov	a,sp
   0135 24 FB               833 	add	a,#0xfb
   0137 F5 81               834 	mov	sp,a
   0139 D0 07               835 	pop	ar7
   013B D0 06               836 	pop	ar6
   013D D0 05               837 	pop	ar5
                            838 ;	../../../core/net/psock.c:85: buf->ptr += *datalen;
   013F A8*00               839 	mov	r0,_bp
   0141 08                  840 	inc	r0
   0142 86 82               841 	mov	dpl,@r0
   0144 08                  842 	inc	r0
   0145 86 83               843 	mov	dph,@r0
   0147 08                  844 	inc	r0
   0148 86 F0               845 	mov	b,@r0
   014A 12s00r00            846 	lcall	__gptrget
   014D FC                  847 	mov	r4,a
   014E A3                  848 	inc	dptr
   014F 12s00r00            849 	lcall	__gptrget
   0152 FA                  850 	mov	r2,a
   0153 A3                  851 	inc	dptr
   0154 12s00r00            852 	lcall	__gptrget
   0157 FB                  853 	mov	r3,a
   0158 8D 82               854 	mov	dpl,r5
   015A 8E 83               855 	mov	dph,r6
   015C 8F F0               856 	mov	b,r7
   015E E5*00               857 	mov	a,_bp
   0160 24 11               858 	add	a,#0x11
   0162 F8                  859 	mov	r0,a
   0163 12s00r00            860 	lcall	__gptrget
   0166 F6                  861 	mov	@r0,a
   0167 A3                  862 	inc	dptr
   0168 12s00r00            863 	lcall	__gptrget
   016B 08                  864 	inc	r0
   016C F6                  865 	mov	@r0,a
   016D E5*00               866 	mov	a,_bp
   016F 24 11               867 	add	a,#0x11
   0171 F8                  868 	mov	r0,a
   0172 E6                  869 	mov	a,@r0
   0173 2C                  870 	add	a,r4
   0174 FC                  871 	mov	r4,a
   0175 08                  872 	inc	r0
   0176 E6                  873 	mov	a,@r0
   0177 3A                  874 	addc	a,r2
   0178 FA                  875 	mov	r2,a
   0179 A8*00               876 	mov	r0,_bp
   017B 08                  877 	inc	r0
   017C 86 82               878 	mov	dpl,@r0
   017E 08                  879 	inc	r0
   017F 86 83               880 	mov	dph,@r0
   0181 08                  881 	inc	r0
   0182 86 F0               882 	mov	b,@r0
   0184 EC                  883 	mov	a,r4
   0185 12s00r00            884 	lcall	__gptrput
   0188 A3                  885 	inc	dptr
   0189 EA                  886 	mov	a,r2
   018A 12s00r00            887 	lcall	__gptrput
   018D A3                  888 	inc	dptr
   018E EB                  889 	mov	a,r3
   018F 12s00r00            890 	lcall	__gptrput
                            891 ;	../../../core/net/psock.c:86: buf->left -= *datalen;
   0192 E5*00               892 	mov	a,_bp
   0194 24 06               893 	add	a,#0x06
   0196 F8                  894 	mov	r0,a
   0197 86 82               895 	mov	dpl,@r0
   0199 08                  896 	inc	r0
   019A 86 83               897 	mov	dph,@r0
   019C 08                  898 	inc	r0
   019D 86 F0               899 	mov	b,@r0
   019F 12s00r00            900 	lcall	__gptrget
   01A2 FA                  901 	mov	r2,a
   01A3 A3                  902 	inc	dptr
   01A4 12s00r00            903 	lcall	__gptrget
   01A7 FB                  904 	mov	r3,a
   01A8 E5*00               905 	mov	a,_bp
   01AA 24 11               906 	add	a,#0x11
   01AC F8                  907 	mov	r0,a
   01AD EA                  908 	mov	a,r2
   01AE C3                  909 	clr	c
   01AF 96                  910 	subb	a,@r0
   01B0 FA                  911 	mov	r2,a
   01B1 EB                  912 	mov	a,r3
   01B2 08                  913 	inc	r0
   01B3 96                  914 	subb	a,@r0
   01B4 FB                  915 	mov	r3,a
   01B5 E5*00               916 	mov	a,_bp
   01B7 24 06               917 	add	a,#0x06
   01B9 F8                  918 	mov	r0,a
   01BA 86 82               919 	mov	dpl,@r0
   01BC 08                  920 	inc	r0
   01BD 86 83               921 	mov	dph,@r0
   01BF 08                  922 	inc	r0
   01C0 86 F0               923 	mov	b,@r0
   01C2 EA                  924 	mov	a,r2
   01C3 12s00r00            925 	lcall	__gptrput
   01C6 A3                  926 	inc	dptr
   01C7 EB                  927 	mov	a,r3
   01C8 12s00r00            928 	lcall	__gptrput
                            929 ;	../../../core/net/psock.c:87: *dataptr += *datalen;
   01CB E5*00               930 	mov	a,_bp
   01CD 24 0B               931 	add	a,#0x0b
   01CF F8                  932 	mov	r0,a
   01D0 86 82               933 	mov	dpl,@r0
   01D2 08                  934 	inc	r0
   01D3 86 83               935 	mov	dph,@r0
   01D5 08                  936 	inc	r0
   01D6 86 F0               937 	mov	b,@r0
   01D8 12s00r00            938 	lcall	__gptrget
   01DB FA                  939 	mov	r2,a
   01DC A3                  940 	inc	dptr
   01DD 12s00r00            941 	lcall	__gptrget
   01E0 FB                  942 	mov	r3,a
   01E1 A3                  943 	inc	dptr
   01E2 12s00r00            944 	lcall	__gptrget
   01E5 FC                  945 	mov	r4,a
   01E6 E5*00               946 	mov	a,_bp
   01E8 24 11               947 	add	a,#0x11
   01EA F8                  948 	mov	r0,a
   01EB E6                  949 	mov	a,@r0
   01EC 2A                  950 	add	a,r2
   01ED FA                  951 	mov	r2,a
   01EE 08                  952 	inc	r0
   01EF E6                  953 	mov	a,@r0
   01F0 3B                  954 	addc	a,r3
   01F1 FB                  955 	mov	r3,a
   01F2 E5*00               956 	mov	a,_bp
   01F4 24 0B               957 	add	a,#0x0b
   01F6 F8                  958 	mov	r0,a
   01F7 86 82               959 	mov	dpl,@r0
   01F9 08                  960 	inc	r0
   01FA 86 83               961 	mov	dph,@r0
   01FC 08                  962 	inc	r0
   01FD 86 F0               963 	mov	b,@r0
   01FF EA                  964 	mov	a,r2
   0200 12s00r00            965 	lcall	__gptrput
   0203 A3                  966 	inc	dptr
   0204 EB                  967 	mov	a,r3
   0205 12s00r00            968 	lcall	__gptrput
   0208 A3                  969 	inc	dptr
   0209 EC                  970 	mov	a,r4
   020A 12s00r00            971 	lcall	__gptrput
                            972 ;	../../../core/net/psock.c:88: *datalen = 0;
   020D 8D 82               973 	mov	dpl,r5
   020F 8E 83               974 	mov	dph,r6
   0211 8F F0               975 	mov	b,r7
   0213 E4                  976 	clr	a
   0214 12s00r00            977 	lcall	__gptrput
   0217 A3                  978 	inc	dptr
   0218 E4                  979 	clr	a
   0219 12s00r00            980 	lcall	__gptrput
                            981 ;	../../../core/net/psock.c:89: return BUF_NOT_FULL;
   021C 75 82 00            982 	mov	dpl,#0x00
   021F 02s04rEB            983 	ljmp	00107$
   0222                     984 00105$:
                            985 ;	../../../core/net/psock.c:90: } else if(*datalen == buf->left) {
   0222 E5*00               986 	mov	a,_bp
   0224 24 04               987 	add	a,#0x04
   0226 F8                  988 	mov	r0,a
   0227 E5*00               989 	mov	a,_bp
   0229 24 09               990 	add	a,#0x09
   022B F9                  991 	mov	r1,a
   022C 86 F0               992 	mov	b,@r0
   022E E7                  993 	mov	a,@r1
   022F B5 F0 0A            994 	cjne	a,b,00112$
   0232 08                  995 	inc	r0
   0233 86 F0               996 	mov	b,@r0
   0235 09                  997 	inc	r1
   0236 E7                  998 	mov	a,@r1
   0237 B5 F0 02            999 	cjne	a,b,00112$
   023A 80 03              1000 	sjmp	00113$
   023C                    1001 00112$:
   023C 02s03r85           1002 	ljmp	00102$
   023F                    1003 00113$:
                           1004 ;	../../../core/net/psock.c:91: memcpy(buf->ptr, *dataptr, *datalen);
   023F E5*00              1005 	mov	a,_bp
   0241 24 F9              1006 	add	a,#0xf9
   0243 F8                 1007 	mov	r0,a
   0244 E5*00              1008 	mov	a,_bp
   0246 24 0E              1009 	add	a,#0x0e
   0248 F9                 1010 	mov	r1,a
   0249 E6                 1011 	mov	a,@r0
   024A F7                 1012 	mov	@r1,a
   024B 08                 1013 	inc	r0
   024C 09                 1014 	inc	r1
   024D E6                 1015 	mov	a,@r0
   024E F7                 1016 	mov	@r1,a
   024F 08                 1017 	inc	r0
   0250 09                 1018 	inc	r1
   0251 E6                 1019 	mov	a,@r0
   0252 F7                 1020 	mov	@r1,a
   0253 E5*00              1021 	mov	a,_bp
   0255 24 0E              1022 	add	a,#0x0e
   0257 F8                 1023 	mov	r0,a
   0258 86 82              1024 	mov	dpl,@r0
   025A 08                 1025 	inc	r0
   025B 86 83              1026 	mov	dph,@r0
   025D 08                 1027 	inc	r0
   025E 86 F0              1028 	mov	b,@r0
   0260 E5*00              1029 	mov	a,_bp
   0262 24 0B              1030 	add	a,#0x0b
   0264 F9                 1031 	mov	r1,a
   0265 12s00r00           1032 	lcall	__gptrget
   0268 F7                 1033 	mov	@r1,a
   0269 A3                 1034 	inc	dptr
   026A 12s00r00           1035 	lcall	__gptrget
   026D 09                 1036 	inc	r1
   026E F7                 1037 	mov	@r1,a
   026F A3                 1038 	inc	dptr
   0270 12s00r00           1039 	lcall	__gptrget
   0273 09                 1040 	inc	r1
   0274 F7                 1041 	mov	@r1,a
   0275 A8*00              1042 	mov	r0,_bp
   0277 08                 1043 	inc	r0
   0278 86 82              1044 	mov	dpl,@r0
   027A 08                 1045 	inc	r0
   027B 86 83              1046 	mov	dph,@r0
   027D 08                 1047 	inc	r0
   027E 86 F0              1048 	mov	b,@r0
   0280 12s00r00           1049 	lcall	__gptrget
   0283 FA                 1050 	mov	r2,a
   0284 A3                 1051 	inc	dptr
   0285 12s00r00           1052 	lcall	__gptrget
   0288 FB                 1053 	mov	r3,a
   0289 A3                 1054 	inc	dptr
   028A 12s00r00           1055 	lcall	__gptrget
   028D FC                 1056 	mov	r4,a
   028E C0 05              1057 	push	ar5
   0290 C0 06              1058 	push	ar6
   0292 C0 07              1059 	push	ar7
   0294 E5*00              1060 	mov	a,_bp
   0296 24 04              1061 	add	a,#0x04
   0298 F8                 1062 	mov	r0,a
   0299 E6                 1063 	mov	a,@r0
   029A C0 E0              1064 	push	acc
   029C 08                 1065 	inc	r0
   029D E6                 1066 	mov	a,@r0
   029E C0 E0              1067 	push	acc
   02A0 E5*00              1068 	mov	a,_bp
   02A2 24 0B              1069 	add	a,#0x0b
   02A4 F8                 1070 	mov	r0,a
   02A5 E6                 1071 	mov	a,@r0
   02A6 C0 E0              1072 	push	acc
   02A8 08                 1073 	inc	r0
   02A9 E6                 1074 	mov	a,@r0
   02AA C0 E0              1075 	push	acc
   02AC 08                 1076 	inc	r0
   02AD E6                 1077 	mov	a,@r0
   02AE C0 E0              1078 	push	acc
   02B0 8A 82              1079 	mov	dpl,r2
   02B2 8B 83              1080 	mov	dph,r3
   02B4 8C F0              1081 	mov	b,r4
   02B6 12s00r00           1082 	lcall	_memcpy
   02B9 E5 81              1083 	mov	a,sp
   02BB 24 FB              1084 	add	a,#0xfb
   02BD F5 81              1085 	mov	sp,a
   02BF D0 07              1086 	pop	ar7
   02C1 D0 06              1087 	pop	ar6
   02C3 D0 05              1088 	pop	ar5
                           1089 ;	../../../core/net/psock.c:92: buf->ptr += *datalen;
   02C5 A8*00              1090 	mov	r0,_bp
   02C7 08                 1091 	inc	r0
   02C8 86 82              1092 	mov	dpl,@r0
   02CA 08                 1093 	inc	r0
   02CB 86 83              1094 	mov	dph,@r0
   02CD 08                 1095 	inc	r0
   02CE 86 F0              1096 	mov	b,@r0
   02D0 12s00r00           1097 	lcall	__gptrget
   02D3 FC                 1098 	mov	r4,a
   02D4 A3                 1099 	inc	dptr
   02D5 12s00r00           1100 	lcall	__gptrget
   02D8 FA                 1101 	mov	r2,a
   02D9 A3                 1102 	inc	dptr
   02DA 12s00r00           1103 	lcall	__gptrget
   02DD FB                 1104 	mov	r3,a
   02DE 8D 82              1105 	mov	dpl,r5
   02E0 8E 83              1106 	mov	dph,r6
   02E2 8F F0              1107 	mov	b,r7
   02E4 E5*00              1108 	mov	a,_bp
   02E6 24 11              1109 	add	a,#0x11
   02E8 F8                 1110 	mov	r0,a
   02E9 12s00r00           1111 	lcall	__gptrget
   02EC F6                 1112 	mov	@r0,a
   02ED A3                 1113 	inc	dptr
   02EE 12s00r00           1114 	lcall	__gptrget
   02F1 08                 1115 	inc	r0
   02F2 F6                 1116 	mov	@r0,a
   02F3 E5*00              1117 	mov	a,_bp
   02F5 24 11              1118 	add	a,#0x11
   02F7 F8                 1119 	mov	r0,a
   02F8 E6                 1120 	mov	a,@r0
   02F9 2C                 1121 	add	a,r4
   02FA FC                 1122 	mov	r4,a
   02FB 08                 1123 	inc	r0
   02FC E6                 1124 	mov	a,@r0
   02FD 3A                 1125 	addc	a,r2
   02FE FA                 1126 	mov	r2,a
   02FF A8*00              1127 	mov	r0,_bp
   0301 08                 1128 	inc	r0
   0302 86 82              1129 	mov	dpl,@r0
   0304 08                 1130 	inc	r0
   0305 86 83              1131 	mov	dph,@r0
   0307 08                 1132 	inc	r0
   0308 86 F0              1133 	mov	b,@r0
   030A EC                 1134 	mov	a,r4
   030B 12s00r00           1135 	lcall	__gptrput
   030E A3                 1136 	inc	dptr
   030F EA                 1137 	mov	a,r2
   0310 12s00r00           1138 	lcall	__gptrput
   0313 A3                 1139 	inc	dptr
   0314 EB                 1140 	mov	a,r3
   0315 12s00r00           1141 	lcall	__gptrput
                           1142 ;	../../../core/net/psock.c:93: buf->left = 0;
   0318 E5*00              1143 	mov	a,_bp
   031A 24 06              1144 	add	a,#0x06
   031C F8                 1145 	mov	r0,a
   031D 86 82              1146 	mov	dpl,@r0
   031F 08                 1147 	inc	r0
   0320 86 83              1148 	mov	dph,@r0
   0322 08                 1149 	inc	r0
   0323 86 F0              1150 	mov	b,@r0
   0325 E4                 1151 	clr	a
   0326 12s00r00           1152 	lcall	__gptrput
   0329 A3                 1153 	inc	dptr
   032A E4                 1154 	clr	a
   032B 12s00r00           1155 	lcall	__gptrput
                           1156 ;	../../../core/net/psock.c:94: *dataptr += *datalen;
   032E E5*00              1157 	mov	a,_bp
   0330 24 0E              1158 	add	a,#0x0e
   0332 F8                 1159 	mov	r0,a
   0333 86 82              1160 	mov	dpl,@r0
   0335 08                 1161 	inc	r0
   0336 86 83              1162 	mov	dph,@r0
   0338 08                 1163 	inc	r0
   0339 86 F0              1164 	mov	b,@r0
   033B 12s00r00           1165 	lcall	__gptrget
   033E FA                 1166 	mov	r2,a
   033F A3                 1167 	inc	dptr
   0340 12s00r00           1168 	lcall	__gptrget
   0343 FB                 1169 	mov	r3,a
   0344 A3                 1170 	inc	dptr
   0345 12s00r00           1171 	lcall	__gptrget
   0348 FC                 1172 	mov	r4,a
   0349 E5*00              1173 	mov	a,_bp
   034B 24 11              1174 	add	a,#0x11
   034D F8                 1175 	mov	r0,a
   034E E6                 1176 	mov	a,@r0
   034F 2A                 1177 	add	a,r2
   0350 FA                 1178 	mov	r2,a
   0351 08                 1179 	inc	r0
   0352 E6                 1180 	mov	a,@r0
   0353 3B                 1181 	addc	a,r3
   0354 FB                 1182 	mov	r3,a
   0355 E5*00              1183 	mov	a,_bp
   0357 24 0E              1184 	add	a,#0x0e
   0359 F8                 1185 	mov	r0,a
   035A 86 82              1186 	mov	dpl,@r0
   035C 08                 1187 	inc	r0
   035D 86 83              1188 	mov	dph,@r0
   035F 08                 1189 	inc	r0
   0360 86 F0              1190 	mov	b,@r0
   0362 EA                 1191 	mov	a,r2
   0363 12s00r00           1192 	lcall	__gptrput
   0366 A3                 1193 	inc	dptr
   0367 EB                 1194 	mov	a,r3
   0368 12s00r00           1195 	lcall	__gptrput
   036B A3                 1196 	inc	dptr
   036C EC                 1197 	mov	a,r4
   036D 12s00r00           1198 	lcall	__gptrput
                           1199 ;	../../../core/net/psock.c:95: *datalen = 0;
   0370 8D 82              1200 	mov	dpl,r5
   0372 8E 83              1201 	mov	dph,r6
   0374 8F F0              1202 	mov	b,r7
   0376 E4                 1203 	clr	a
   0377 12s00r00           1204 	lcall	__gptrput
   037A A3                 1205 	inc	dptr
   037B E4                 1206 	clr	a
   037C 12s00r00           1207 	lcall	__gptrput
                           1208 ;	../../../core/net/psock.c:96: return BUF_FULL;
   037F 75 82 01           1209 	mov	dpl,#0x01
   0382 02s04rEB           1210 	ljmp	00107$
   0385                    1211 00102$:
                           1212 ;	../../../core/net/psock.c:98: memcpy(buf->ptr, *dataptr, buf->left);
   0385 E5*00              1213 	mov	a,_bp
   0387 24 F9              1214 	add	a,#0xf9
   0389 F8                 1215 	mov	r0,a
   038A E5*00              1216 	mov	a,_bp
   038C 24 0E              1217 	add	a,#0x0e
   038E F9                 1218 	mov	r1,a
   038F E6                 1219 	mov	a,@r0
   0390 F7                 1220 	mov	@r1,a
   0391 08                 1221 	inc	r0
   0392 09                 1222 	inc	r1
   0393 E6                 1223 	mov	a,@r0
   0394 F7                 1224 	mov	@r1,a
   0395 08                 1225 	inc	r0
   0396 09                 1226 	inc	r1
   0397 E6                 1227 	mov	a,@r0
   0398 F7                 1228 	mov	@r1,a
   0399 E5*00              1229 	mov	a,_bp
   039B 24 0E              1230 	add	a,#0x0e
   039D F8                 1231 	mov	r0,a
   039E 86 82              1232 	mov	dpl,@r0
   03A0 08                 1233 	inc	r0
   03A1 86 83              1234 	mov	dph,@r0
   03A3 08                 1235 	inc	r0
   03A4 86 F0              1236 	mov	b,@r0
   03A6 E5*00              1237 	mov	a,_bp
   03A8 24 0B              1238 	add	a,#0x0b
   03AA F9                 1239 	mov	r1,a
   03AB 12s00r00           1240 	lcall	__gptrget
   03AE F7                 1241 	mov	@r1,a
   03AF A3                 1242 	inc	dptr
   03B0 12s00r00           1243 	lcall	__gptrget
   03B3 09                 1244 	inc	r1
   03B4 F7                 1245 	mov	@r1,a
   03B5 A3                 1246 	inc	dptr
   03B6 12s00r00           1247 	lcall	__gptrget
   03B9 09                 1248 	inc	r1
   03BA F7                 1249 	mov	@r1,a
   03BB A8*00              1250 	mov	r0,_bp
   03BD 08                 1251 	inc	r0
   03BE 86 82              1252 	mov	dpl,@r0
   03C0 08                 1253 	inc	r0
   03C1 86 83              1254 	mov	dph,@r0
   03C3 08                 1255 	inc	r0
   03C4 86 F0              1256 	mov	b,@r0
   03C6 12s00r00           1257 	lcall	__gptrget
   03C9 FA                 1258 	mov	r2,a
   03CA A3                 1259 	inc	dptr
   03CB 12s00r00           1260 	lcall	__gptrget
   03CE FB                 1261 	mov	r3,a
   03CF A3                 1262 	inc	dptr
   03D0 12s00r00           1263 	lcall	__gptrget
   03D3 FC                 1264 	mov	r4,a
   03D4 C0 05              1265 	push	ar5
   03D6 C0 06              1266 	push	ar6
   03D8 C0 07              1267 	push	ar7
   03DA E5*00              1268 	mov	a,_bp
   03DC 24 09              1269 	add	a,#0x09
   03DE F8                 1270 	mov	r0,a
   03DF E6                 1271 	mov	a,@r0
   03E0 C0 E0              1272 	push	acc
   03E2 08                 1273 	inc	r0
   03E3 E6                 1274 	mov	a,@r0
   03E4 C0 E0              1275 	push	acc
   03E6 E5*00              1276 	mov	a,_bp
   03E8 24 0B              1277 	add	a,#0x0b
   03EA F8                 1278 	mov	r0,a
   03EB E6                 1279 	mov	a,@r0
   03EC C0 E0              1280 	push	acc
   03EE 08                 1281 	inc	r0
   03EF E6                 1282 	mov	a,@r0
   03F0 C0 E0              1283 	push	acc
   03F2 08                 1284 	inc	r0
   03F3 E6                 1285 	mov	a,@r0
   03F4 C0 E0              1286 	push	acc
   03F6 8A 82              1287 	mov	dpl,r2
   03F8 8B 83              1288 	mov	dph,r3
   03FA 8C F0              1289 	mov	b,r4
   03FC 12s00r00           1290 	lcall	_memcpy
   03FF E5 81              1291 	mov	a,sp
   0401 24 FB              1292 	add	a,#0xfb
   0403 F5 81              1293 	mov	sp,a
   0405 D0 07              1294 	pop	ar7
   0407 D0 06              1295 	pop	ar6
   0409 D0 05              1296 	pop	ar5
                           1297 ;	../../../core/net/psock.c:99: buf->ptr += buf->left;
   040B A8*00              1298 	mov	r0,_bp
   040D 08                 1299 	inc	r0
   040E 86 82              1300 	mov	dpl,@r0
   0410 08                 1301 	inc	r0
   0411 86 83              1302 	mov	dph,@r0
   0413 08                 1303 	inc	r0
   0414 86 F0              1304 	mov	b,@r0
   0416 12s00r00           1305 	lcall	__gptrget
   0419 FC                 1306 	mov	r4,a
   041A A3                 1307 	inc	dptr
   041B 12s00r00           1308 	lcall	__gptrget
   041E FA                 1309 	mov	r2,a
   041F A3                 1310 	inc	dptr
   0420 12s00r00           1311 	lcall	__gptrget
   0423 FB                 1312 	mov	r3,a
   0424 E5*00              1313 	mov	a,_bp
   0426 24 06              1314 	add	a,#0x06
   0428 F8                 1315 	mov	r0,a
   0429 86 82              1316 	mov	dpl,@r0
   042B 08                 1317 	inc	r0
   042C 86 83              1318 	mov	dph,@r0
   042E 08                 1319 	inc	r0
   042F 86 F0              1320 	mov	b,@r0
   0431 E5*00              1321 	mov	a,_bp
   0433 24 11              1322 	add	a,#0x11
   0435 F9                 1323 	mov	r1,a
   0436 12s00r00           1324 	lcall	__gptrget
   0439 F7                 1325 	mov	@r1,a
   043A A3                 1326 	inc	dptr
   043B 12s00r00           1327 	lcall	__gptrget
   043E 09                 1328 	inc	r1
   043F F7                 1329 	mov	@r1,a
   0440 E5*00              1330 	mov	a,_bp
   0442 24 11              1331 	add	a,#0x11
   0444 F8                 1332 	mov	r0,a
   0445 E6                 1333 	mov	a,@r0
   0446 2C                 1334 	add	a,r4
   0447 FC                 1335 	mov	r4,a
   0448 08                 1336 	inc	r0
   0449 E6                 1337 	mov	a,@r0
   044A 3A                 1338 	addc	a,r2
   044B FA                 1339 	mov	r2,a
   044C A8*00              1340 	mov	r0,_bp
   044E 08                 1341 	inc	r0
   044F 86 82              1342 	mov	dpl,@r0
   0451 08                 1343 	inc	r0
   0452 86 83              1344 	mov	dph,@r0
   0454 08                 1345 	inc	r0
   0455 86 F0              1346 	mov	b,@r0
   0457 EC                 1347 	mov	a,r4
   0458 12s00r00           1348 	lcall	__gptrput
   045B A3                 1349 	inc	dptr
   045C EA                 1350 	mov	a,r2
   045D 12s00r00           1351 	lcall	__gptrput
   0460 A3                 1352 	inc	dptr
   0461 EB                 1353 	mov	a,r3
   0462 12s00r00           1354 	lcall	__gptrput
                           1355 ;	../../../core/net/psock.c:100: *datalen -= buf->left;
   0465 8D 82              1356 	mov	dpl,r5
   0467 8E 83              1357 	mov	dph,r6
   0469 8F F0              1358 	mov	b,r7
   046B 12s00r00           1359 	lcall	__gptrget
   046E FA                 1360 	mov	r2,a
   046F A3                 1361 	inc	dptr
   0470 12s00r00           1362 	lcall	__gptrget
   0473 FB                 1363 	mov	r3,a
   0474 E5*00              1364 	mov	a,_bp
   0476 24 11              1365 	add	a,#0x11
   0478 F8                 1366 	mov	r0,a
   0479 EA                 1367 	mov	a,r2
   047A C3                 1368 	clr	c
   047B 96                 1369 	subb	a,@r0
   047C FA                 1370 	mov	r2,a
   047D EB                 1371 	mov	a,r3
   047E 08                 1372 	inc	r0
   047F 96                 1373 	subb	a,@r0
   0480 FB                 1374 	mov	r3,a
   0481 8D 82              1375 	mov	dpl,r5
   0483 8E 83              1376 	mov	dph,r6
   0485 8F F0              1377 	mov	b,r7
   0487 EA                 1378 	mov	a,r2
   0488 12s00r00           1379 	lcall	__gptrput
   048B A3                 1380 	inc	dptr
   048C EB                 1381 	mov	a,r3
   048D 12s00r00           1382 	lcall	__gptrput
                           1383 ;	../../../core/net/psock.c:101: *dataptr += buf->left;
   0490 E5*00              1384 	mov	a,_bp
   0492 24 0E              1385 	add	a,#0x0e
   0494 F8                 1386 	mov	r0,a
   0495 86 82              1387 	mov	dpl,@r0
   0497 08                 1388 	inc	r0
   0498 86 83              1389 	mov	dph,@r0
   049A 08                 1390 	inc	r0
   049B 86 F0              1391 	mov	b,@r0
   049D 12s00r00           1392 	lcall	__gptrget
   04A0 FA                 1393 	mov	r2,a
   04A1 A3                 1394 	inc	dptr
   04A2 12s00r00           1395 	lcall	__gptrget
   04A5 FB                 1396 	mov	r3,a
   04A6 A3                 1397 	inc	dptr
   04A7 12s00r00           1398 	lcall	__gptrget
   04AA FC                 1399 	mov	r4,a
   04AB E5*00              1400 	mov	a,_bp
   04AD 24 11              1401 	add	a,#0x11
   04AF F8                 1402 	mov	r0,a
   04B0 E6                 1403 	mov	a,@r0
   04B1 2A                 1404 	add	a,r2
   04B2 FA                 1405 	mov	r2,a
   04B3 08                 1406 	inc	r0
   04B4 E6                 1407 	mov	a,@r0
   04B5 3B                 1408 	addc	a,r3
   04B6 FB                 1409 	mov	r3,a
   04B7 E5*00              1410 	mov	a,_bp
   04B9 24 0E              1411 	add	a,#0x0e
   04BB F8                 1412 	mov	r0,a
   04BC 86 82              1413 	mov	dpl,@r0
   04BE 08                 1414 	inc	r0
   04BF 86 83              1415 	mov	dph,@r0
   04C1 08                 1416 	inc	r0
   04C2 86 F0              1417 	mov	b,@r0
   04C4 EA                 1418 	mov	a,r2
   04C5 12s00r00           1419 	lcall	__gptrput
   04C8 A3                 1420 	inc	dptr
   04C9 EB                 1421 	mov	a,r3
   04CA 12s00r00           1422 	lcall	__gptrput
   04CD A3                 1423 	inc	dptr
   04CE EC                 1424 	mov	a,r4
   04CF 12s00r00           1425 	lcall	__gptrput
                           1426 ;	../../../core/net/psock.c:102: buf->left = 0;
   04D2 E5*00              1427 	mov	a,_bp
   04D4 24 06              1428 	add	a,#0x06
   04D6 F8                 1429 	mov	r0,a
   04D7 86 82              1430 	mov	dpl,@r0
   04D9 08                 1431 	inc	r0
   04DA 86 83              1432 	mov	dph,@r0
   04DC 08                 1433 	inc	r0
   04DD 86 F0              1434 	mov	b,@r0
   04DF E4                 1435 	clr	a
   04E0 12s00r00           1436 	lcall	__gptrput
   04E3 A3                 1437 	inc	dptr
   04E4 E4                 1438 	clr	a
   04E5 12s00r00           1439 	lcall	__gptrput
                           1440 ;	../../../core/net/psock.c:103: return BUF_FULL;
   04E8 75 82 01           1441 	mov	dpl,#0x01
   04EB                    1442 00107$:
   04EB 85*00 81           1443 	mov	sp,_bp
   04EE D0*00              1444 	pop	_bp
   04F0 22                 1445 	ret
                           1446 ;------------------------------------------------------------
                           1447 ;Allocation info for local variables in function 'buf_bufto'
                           1448 ;------------------------------------------------------------
                           1449 ;endmarker                 Allocated to stack - offset -3
                           1450 ;dataptr                   Allocated to stack - offset -6
                           1451 ;datalen                   Allocated to stack - offset -9
                           1452 ;buf                       Allocated to stack - offset 1
                           1453 ;c                         Allocated to stack - offset 4
                           1454 ;sloc0                     Allocated to stack - offset 5
                           1455 ;sloc1                     Allocated to stack - offset 8
                           1456 ;sloc2                     Allocated to stack - offset 11
                           1457 ;------------------------------------------------------------
                           1458 ;	../../../core/net/psock.c:108: buf_bufto(CC_REGISTER_ARG struct psock_buf *buf, u8_t endmarker,
                           1459 ;	-----------------------------------------
                           1460 ;	 function buf_bufto
                           1461 ;	-----------------------------------------
   04F1                    1462 _buf_bufto:
   04F1 C0*00              1463 	push	_bp
   04F3 85 81*00           1464 	mov	_bp,sp
   04F6 C0 82              1465 	push	dpl
   04F8 C0 83              1466 	push	dph
   04FA C0 F0              1467 	push	b
   04FC E5 81              1468 	mov	a,sp
   04FE 24 0D              1469 	add	a,#0x0d
   0500 F5 81              1470 	mov	sp,a
                           1471 ;	../../../core/net/psock.c:112: while(buf->left > 0 && *datalen > 0) {
   0502                    1472 00104$:
   0502 A8*00              1473 	mov	r0,_bp
   0504 08                 1474 	inc	r0
   0505 74 03              1475 	mov	a,#0x03
   0507 26                 1476 	add	a,@r0
   0508 FD                 1477 	mov	r5,a
   0509 E4                 1478 	clr	a
   050A 08                 1479 	inc	r0
   050B 36                 1480 	addc	a,@r0
   050C FE                 1481 	mov	r6,a
   050D 08                 1482 	inc	r0
   050E 86 07              1483 	mov	ar7,@r0
   0510 8D 82              1484 	mov	dpl,r5
   0512 8E 83              1485 	mov	dph,r6
   0514 8F F0              1486 	mov	b,r7
   0516 12s00r00           1487 	lcall	__gptrget
   0519 FA                 1488 	mov	r2,a
   051A A3                 1489 	inc	dptr
   051B 12s00r00           1490 	lcall	__gptrget
   051E FB                 1491 	mov	r3,a
   051F 4A                 1492 	orl	a,r2
   0520 70 03              1493 	jnz	00124$
   0522 02s06rA7           1494 	ljmp	00106$
   0525                    1495 00124$:
   0525 E5*00              1496 	mov	a,_bp
   0527 24 F7              1497 	add	a,#0xf7
   0529 F8                 1498 	mov	r0,a
   052A E5*00              1499 	mov	a,_bp
   052C 24 05              1500 	add	a,#0x05
   052E F9                 1501 	mov	r1,a
   052F E6                 1502 	mov	a,@r0
   0530 F7                 1503 	mov	@r1,a
   0531 08                 1504 	inc	r0
   0532 09                 1505 	inc	r1
   0533 E6                 1506 	mov	a,@r0
   0534 F7                 1507 	mov	@r1,a
   0535 08                 1508 	inc	r0
   0536 09                 1509 	inc	r1
   0537 E6                 1510 	mov	a,@r0
   0538 F7                 1511 	mov	@r1,a
   0539 E5*00              1512 	mov	a,_bp
   053B 24 05              1513 	add	a,#0x05
   053D F8                 1514 	mov	r0,a
   053E 86 82              1515 	mov	dpl,@r0
   0540 08                 1516 	inc	r0
   0541 86 83              1517 	mov	dph,@r0
   0543 08                 1518 	inc	r0
   0544 86 F0              1519 	mov	b,@r0
   0546 12s00r00           1520 	lcall	__gptrget
   0549 FA                 1521 	mov	r2,a
   054A A3                 1522 	inc	dptr
   054B 12s00r00           1523 	lcall	__gptrget
   054E FB                 1524 	mov	r3,a
   054F 4A                 1525 	orl	a,r2
   0550 70 03              1526 	jnz	00125$
   0552 02s06rA7           1527 	ljmp	00106$
   0555                    1528 00125$:
                           1529 ;	../../../core/net/psock.c:113: c = *buf->ptr = **dataptr;
   0555 A8*00              1530 	mov	r0,_bp
   0557 08                 1531 	inc	r0
   0558 86 82              1532 	mov	dpl,@r0
   055A 08                 1533 	inc	r0
   055B 86 83              1534 	mov	dph,@r0
   055D 08                 1535 	inc	r0
   055E 86 F0              1536 	mov	b,@r0
   0560 E5*00              1537 	mov	a,_bp
   0562 24 08              1538 	add	a,#0x08
   0564 F9                 1539 	mov	r1,a
   0565 12s00r00           1540 	lcall	__gptrget
   0568 F7                 1541 	mov	@r1,a
   0569 A3                 1542 	inc	dptr
   056A 12s00r00           1543 	lcall	__gptrget
   056D 09                 1544 	inc	r1
   056E F7                 1545 	mov	@r1,a
   056F A3                 1546 	inc	dptr
   0570 12s00r00           1547 	lcall	__gptrget
   0573 09                 1548 	inc	r1
   0574 F7                 1549 	mov	@r1,a
   0575 E5*00              1550 	mov	a,_bp
   0577 24 FA              1551 	add	a,#0xfa
   0579 F8                 1552 	mov	r0,a
   057A E5*00              1553 	mov	a,_bp
   057C 24 0B              1554 	add	a,#0x0b
   057E F9                 1555 	mov	r1,a
   057F E6                 1556 	mov	a,@r0
   0580 F7                 1557 	mov	@r1,a
   0581 08                 1558 	inc	r0
   0582 09                 1559 	inc	r1
   0583 E6                 1560 	mov	a,@r0
   0584 F7                 1561 	mov	@r1,a
   0585 08                 1562 	inc	r0
   0586 09                 1563 	inc	r1
   0587 E6                 1564 	mov	a,@r0
   0588 F7                 1565 	mov	@r1,a
   0589 E5*00              1566 	mov	a,_bp
   058B 24 0B              1567 	add	a,#0x0b
   058D F8                 1568 	mov	r0,a
   058E 86 82              1569 	mov	dpl,@r0
   0590 08                 1570 	inc	r0
   0591 86 83              1571 	mov	dph,@r0
   0593 08                 1572 	inc	r0
   0594 86 F0              1573 	mov	b,@r0
   0596 12s00r00           1574 	lcall	__gptrget
   0599 FA                 1575 	mov	r2,a
   059A A3                 1576 	inc	dptr
   059B 12s00r00           1577 	lcall	__gptrget
   059E FB                 1578 	mov	r3,a
   059F A3                 1579 	inc	dptr
   05A0 12s00r00           1580 	lcall	__gptrget
   05A3 FC                 1581 	mov	r4,a
   05A4 8A 82              1582 	mov	dpl,r2
   05A6 8B 83              1583 	mov	dph,r3
   05A8 8C F0              1584 	mov	b,r4
   05AA 12s00r00           1585 	lcall	__gptrget
   05AD FA                 1586 	mov	r2,a
   05AE E5*00              1587 	mov	a,_bp
   05B0 24 08              1588 	add	a,#0x08
   05B2 F8                 1589 	mov	r0,a
   05B3 86 82              1590 	mov	dpl,@r0
   05B5 08                 1591 	inc	r0
   05B6 86 83              1592 	mov	dph,@r0
   05B8 08                 1593 	inc	r0
   05B9 86 F0              1594 	mov	b,@r0
   05BB EA                 1595 	mov	a,r2
   05BC 12s00r00           1596 	lcall	__gptrput
   05BF E5*00              1597 	mov	a,_bp
   05C1 24 04              1598 	add	a,#0x04
   05C3 F8                 1599 	mov	r0,a
   05C4 A6 02              1600 	mov	@r0,ar2
                           1601 ;	../../../core/net/psock.c:114: ++*dataptr;
   05C6 E5*00              1602 	mov	a,_bp
   05C8 24 0B              1603 	add	a,#0x0b
   05CA F8                 1604 	mov	r0,a
   05CB 86 82              1605 	mov	dpl,@r0
   05CD 08                 1606 	inc	r0
   05CE 86 83              1607 	mov	dph,@r0
   05D0 08                 1608 	inc	r0
   05D1 86 F0              1609 	mov	b,@r0
   05D3 12s00r00           1610 	lcall	__gptrget
   05D6 FB                 1611 	mov	r3,a
   05D7 A3                 1612 	inc	dptr
   05D8 12s00r00           1613 	lcall	__gptrget
   05DB FC                 1614 	mov	r4,a
   05DC A3                 1615 	inc	dptr
   05DD 12s00r00           1616 	lcall	__gptrget
   05E0 FA                 1617 	mov	r2,a
   05E1 0B                 1618 	inc	r3
   05E2 BB 00 01           1619 	cjne	r3,#0x00,00126$
   05E5 0C                 1620 	inc	r4
   05E6                    1621 00126$:
   05E6 E5*00              1622 	mov	a,_bp
   05E8 24 0B              1623 	add	a,#0x0b
   05EA F8                 1624 	mov	r0,a
   05EB 86 82              1625 	mov	dpl,@r0
   05ED 08                 1626 	inc	r0
   05EE 86 83              1627 	mov	dph,@r0
   05F0 08                 1628 	inc	r0
   05F1 86 F0              1629 	mov	b,@r0
   05F3 EB                 1630 	mov	a,r3
   05F4 12s00r00           1631 	lcall	__gptrput
   05F7 A3                 1632 	inc	dptr
   05F8 EC                 1633 	mov	a,r4
   05F9 12s00r00           1634 	lcall	__gptrput
   05FC A3                 1635 	inc	dptr
   05FD EA                 1636 	mov	a,r2
   05FE 12s00r00           1637 	lcall	__gptrput
                           1638 ;	../../../core/net/psock.c:115: ++buf->ptr;
   0601 A8*00              1639 	mov	r0,_bp
   0603 08                 1640 	inc	r0
   0604 86 82              1641 	mov	dpl,@r0
   0606 08                 1642 	inc	r0
   0607 86 83              1643 	mov	dph,@r0
   0609 08                 1644 	inc	r0
   060A 86 F0              1645 	mov	b,@r0
   060C 12s00r00           1646 	lcall	__gptrget
   060F FA                 1647 	mov	r2,a
   0610 A3                 1648 	inc	dptr
   0611 12s00r00           1649 	lcall	__gptrget
   0614 FB                 1650 	mov	r3,a
   0615 A3                 1651 	inc	dptr
   0616 12s00r00           1652 	lcall	__gptrget
   0619 FC                 1653 	mov	r4,a
   061A 0A                 1654 	inc	r2
   061B BA 00 01           1655 	cjne	r2,#0x00,00127$
   061E 0B                 1656 	inc	r3
   061F                    1657 00127$:
   061F A8*00              1658 	mov	r0,_bp
   0621 08                 1659 	inc	r0
   0622 86 82              1660 	mov	dpl,@r0
   0624 08                 1661 	inc	r0
   0625 86 83              1662 	mov	dph,@r0
   0627 08                 1663 	inc	r0
   0628 86 F0              1664 	mov	b,@r0
   062A EA                 1665 	mov	a,r2
   062B 12s00r00           1666 	lcall	__gptrput
   062E A3                 1667 	inc	dptr
   062F EB                 1668 	mov	a,r3
   0630 12s00r00           1669 	lcall	__gptrput
   0633 A3                 1670 	inc	dptr
   0634 EC                 1671 	mov	a,r4
   0635 12s00r00           1672 	lcall	__gptrput
                           1673 ;	../../../core/net/psock.c:116: --*datalen;
   0638 E5*00              1674 	mov	a,_bp
   063A 24 05              1675 	add	a,#0x05
   063C F8                 1676 	mov	r0,a
   063D 86 82              1677 	mov	dpl,@r0
   063F 08                 1678 	inc	r0
   0640 86 83              1679 	mov	dph,@r0
   0642 08                 1680 	inc	r0
   0643 86 F0              1681 	mov	b,@r0
   0645 12s00r00           1682 	lcall	__gptrget
   0648 FA                 1683 	mov	r2,a
   0649 A3                 1684 	inc	dptr
   064A 12s00r00           1685 	lcall	__gptrget
   064D FB                 1686 	mov	r3,a
   064E 1A                 1687 	dec	r2
   064F BA FF 01           1688 	cjne	r2,#0xff,00128$
   0652 1B                 1689 	dec	r3
   0653                    1690 00128$:
   0653 E5*00              1691 	mov	a,_bp
   0655 24 05              1692 	add	a,#0x05
   0657 F8                 1693 	mov	r0,a
   0658 86 82              1694 	mov	dpl,@r0
   065A 08                 1695 	inc	r0
   065B 86 83              1696 	mov	dph,@r0
   065D 08                 1697 	inc	r0
   065E 86 F0              1698 	mov	b,@r0
   0660 EA                 1699 	mov	a,r2
   0661 12s00r00           1700 	lcall	__gptrput
   0664 A3                 1701 	inc	dptr
   0665 EB                 1702 	mov	a,r3
   0666 12s00r00           1703 	lcall	__gptrput
                           1704 ;	../../../core/net/psock.c:117: --buf->left;
   0669 8D 82              1705 	mov	dpl,r5
   066B 8E 83              1706 	mov	dph,r6
   066D 8F F0              1707 	mov	b,r7
   066F 12s00r00           1708 	lcall	__gptrget
   0672 FA                 1709 	mov	r2,a
   0673 A3                 1710 	inc	dptr
   0674 12s00r00           1711 	lcall	__gptrget
   0677 FB                 1712 	mov	r3,a
   0678 1A                 1713 	dec	r2
   0679 BA FF 01           1714 	cjne	r2,#0xff,00129$
   067C 1B                 1715 	dec	r3
   067D                    1716 00129$:
   067D 8D 82              1717 	mov	dpl,r5
   067F 8E 83              1718 	mov	dph,r6
   0681 8F F0              1719 	mov	b,r7
   0683 EA                 1720 	mov	a,r2
   0684 12s00r00           1721 	lcall	__gptrput
   0687 A3                 1722 	inc	dptr
   0688 EB                 1723 	mov	a,r3
   0689 12s00r00           1724 	lcall	__gptrput
                           1725 ;	../../../core/net/psock.c:119: if(c == endmarker) {
   068C E5*00              1726 	mov	a,_bp
   068E 24 04              1727 	add	a,#0x04
   0690 F8                 1728 	mov	r0,a
   0691 E5*00              1729 	mov	a,_bp
   0693 24 FD              1730 	add	a,#0xfd
   0695 F9                 1731 	mov	r1,a
   0696 86 F0              1732 	mov	b,@r0
   0698 E7                 1733 	mov	a,@r1
   0699 B5 F0 02           1734 	cjne	a,b,00130$
   069C 80 03              1735 	sjmp	00131$
   069E                    1736 00130$:
   069E 02s05r02           1737 	ljmp	00104$
   06A1                    1738 00131$:
                           1739 ;	../../../core/net/psock.c:120: return BUF_FOUND;
   06A1 75 82 02           1740 	mov	dpl,#0x02
   06A4 02s07r99           1741 	ljmp	00114$
   06A7                    1742 00106$:
                           1743 ;	../../../core/net/psock.c:124: if(*datalen == 0) {
   06A7 E5*00              1744 	mov	a,_bp
   06A9 24 F7              1745 	add	a,#0xf7
   06AB F8                 1746 	mov	r0,a
   06AC E5*00              1747 	mov	a,_bp
   06AE 24 0B              1748 	add	a,#0x0b
   06B0 F9                 1749 	mov	r1,a
   06B1 E6                 1750 	mov	a,@r0
   06B2 F7                 1751 	mov	@r1,a
   06B3 08                 1752 	inc	r0
   06B4 09                 1753 	inc	r1
   06B5 E6                 1754 	mov	a,@r0
   06B6 F7                 1755 	mov	@r1,a
   06B7 08                 1756 	inc	r0
   06B8 09                 1757 	inc	r1
   06B9 E6                 1758 	mov	a,@r0
   06BA F7                 1759 	mov	@r1,a
   06BB E5*00              1760 	mov	a,_bp
   06BD 24 0B              1761 	add	a,#0x0b
   06BF F8                 1762 	mov	r0,a
   06C0 86 82              1763 	mov	dpl,@r0
   06C2 08                 1764 	inc	r0
   06C3 86 83              1765 	mov	dph,@r0
   06C5 08                 1766 	inc	r0
   06C6 86 F0              1767 	mov	b,@r0
   06C8 12s00r00           1768 	lcall	__gptrget
   06CB FD                 1769 	mov	r5,a
   06CC A3                 1770 	inc	dptr
   06CD 12s00r00           1771 	lcall	__gptrget
   06D0 FE                 1772 	mov	r6,a
   06D1 4D                 1773 	orl	a,r5
                           1774 ;	../../../core/net/psock.c:125: return BUF_NOT_FOUND;
   06D2 70 05              1775 	jnz	00111$
   06D4 F5 82              1776 	mov	dpl,a
   06D6 02s07r99           1777 	ljmp	00114$
                           1778 ;	../../../core/net/psock.c:128: while(*datalen > 0) {
   06D9                    1779 00111$:
   06D9 ED                 1780 	mov	a,r5
   06DA 4E                 1781 	orl	a,r6
   06DB 70 03              1782 	jnz	00133$
   06DD 02s07r96           1783 	ljmp	00113$
   06E0                    1784 00133$:
                           1785 ;	../../../core/net/psock.c:129: c = **dataptr;
   06E0 C0 05              1786 	push	ar5
   06E2 C0 06              1787 	push	ar6
   06E4 E5*00              1788 	mov	a,_bp
   06E6 24 FA              1789 	add	a,#0xfa
   06E8 F8                 1790 	mov	r0,a
   06E9 86 07              1791 	mov	ar7,@r0
   06EB 08                 1792 	inc	r0
   06EC 86 05              1793 	mov	ar5,@r0
   06EE 08                 1794 	inc	r0
   06EF 86 06              1795 	mov	ar6,@r0
   06F1 8F 82              1796 	mov	dpl,r7
   06F3 8D 83              1797 	mov	dph,r5
   06F5 8E F0              1798 	mov	b,r6
   06F7 12s00r00           1799 	lcall	__gptrget
   06FA FA                 1800 	mov	r2,a
   06FB A3                 1801 	inc	dptr
   06FC 12s00r00           1802 	lcall	__gptrget
   06FF FB                 1803 	mov	r3,a
   0700 A3                 1804 	inc	dptr
   0701 12s00r00           1805 	lcall	__gptrget
   0704 FC                 1806 	mov	r4,a
   0705 8A 82              1807 	mov	dpl,r2
   0707 8B 83              1808 	mov	dph,r3
   0709 8C F0              1809 	mov	b,r4
   070B 12s00r00           1810 	lcall	__gptrget
   070E FA                 1811 	mov	r2,a
   070F E5*00              1812 	mov	a,_bp
   0711 24 04              1813 	add	a,#0x04
   0713 F8                 1814 	mov	r0,a
   0714 A6 02              1815 	mov	@r0,ar2
                           1816 ;	../../../core/net/psock.c:130: --*datalen;
   0716 E5*00              1817 	mov	a,_bp
   0718 24 0B              1818 	add	a,#0x0b
   071A F8                 1819 	mov	r0,a
   071B 86 82              1820 	mov	dpl,@r0
   071D 08                 1821 	inc	r0
   071E 86 83              1822 	mov	dph,@r0
   0720 08                 1823 	inc	r0
   0721 86 F0              1824 	mov	b,@r0
   0723 12s00r00           1825 	lcall	__gptrget
   0726 FA                 1826 	mov	r2,a
   0727 A3                 1827 	inc	dptr
   0728 12s00r00           1828 	lcall	__gptrget
   072B FB                 1829 	mov	r3,a
   072C 1A                 1830 	dec	r2
   072D BA FF 01           1831 	cjne	r2,#0xff,00134$
   0730 1B                 1832 	dec	r3
   0731                    1833 00134$:
   0731 E5*00              1834 	mov	a,_bp
   0733 24 0B              1835 	add	a,#0x0b
   0735 F8                 1836 	mov	r0,a
   0736 86 82              1837 	mov	dpl,@r0
   0738 08                 1838 	inc	r0
   0739 86 83              1839 	mov	dph,@r0
   073B 08                 1840 	inc	r0
   073C 86 F0              1841 	mov	b,@r0
   073E EA                 1842 	mov	a,r2
   073F 12s00r00           1843 	lcall	__gptrput
   0742 A3                 1844 	inc	dptr
   0743 EB                 1845 	mov	a,r3
   0744 12s00r00           1846 	lcall	__gptrput
                           1847 ;	../../../core/net/psock.c:131: ++*dataptr;
   0747 8F 82              1848 	mov	dpl,r7
   0749 8D 83              1849 	mov	dph,r5
   074B 8E F0              1850 	mov	b,r6
   074D 12s00r00           1851 	lcall	__gptrget
   0750 FA                 1852 	mov	r2,a
   0751 A3                 1853 	inc	dptr
   0752 12s00r00           1854 	lcall	__gptrget
   0755 FB                 1855 	mov	r3,a
   0756 A3                 1856 	inc	dptr
   0757 12s00r00           1857 	lcall	__gptrget
   075A FC                 1858 	mov	r4,a
   075B 0A                 1859 	inc	r2
   075C BA 00 01           1860 	cjne	r2,#0x00,00135$
   075F 0B                 1861 	inc	r3
   0760                    1862 00135$:
   0760 8F 82              1863 	mov	dpl,r7
   0762 8D 83              1864 	mov	dph,r5
   0764 8E F0              1865 	mov	b,r6
   0766 EA                 1866 	mov	a,r2
   0767 12s00r00           1867 	lcall	__gptrput
   076A A3                 1868 	inc	dptr
   076B EB                 1869 	mov	a,r3
   076C 12s00r00           1870 	lcall	__gptrput
   076F A3                 1871 	inc	dptr
   0770 EC                 1872 	mov	a,r4
   0771 12s00r00           1873 	lcall	__gptrput
                           1874 ;	../../../core/net/psock.c:133: if(c == endmarker) {
   0774 E5*00              1875 	mov	a,_bp
   0776 24 04              1876 	add	a,#0x04
   0778 F8                 1877 	mov	r0,a
   0779 E5*00              1878 	mov	a,_bp
   077B 24 FD              1879 	add	a,#0xfd
   077D F9                 1880 	mov	r1,a
   077E 86 F0              1881 	mov	b,@r0
   0780 E7                 1882 	mov	a,@r1
   0781 B5 F0 02           1883 	cjne	a,b,00136$
   0784 80 07              1884 	sjmp	00137$
   0786                    1885 00136$:
   0786 D0 06              1886 	pop	ar6
   0788 D0 05              1887 	pop	ar5
   078A 02s06rD9           1888 	ljmp	00111$
   078D                    1889 00137$:
   078D D0 06              1890 	pop	ar6
   078F D0 05              1891 	pop	ar5
                           1892 ;	../../../core/net/psock.c:134: return BUF_FOUND | BUF_FULL;
   0791 75 82 03           1893 	mov	dpl,#0x03
   0794 80 03              1894 	sjmp	00114$
   0796                    1895 00113$:
                           1896 ;	../../../core/net/psock.c:138: return BUF_FULL;
   0796 75 82 01           1897 	mov	dpl,#0x01
   0799                    1898 00114$:
   0799 85*00 81           1899 	mov	sp,_bp
   079C D0*00              1900 	pop	_bp
   079E 22                 1901 	ret
                           1902 ;------------------------------------------------------------
                           1903 ;Allocation info for local variables in function 'data_is_sent_and_acked'
                           1904 ;------------------------------------------------------------
                           1905 ;s                         Allocated to registers r2 r3 r4 
                           1906 ;sloc0                     Allocated to stack - offset 1
                           1907 ;sloc1                     Allocated to stack - offset 3
                           1908 ;sloc2                     Allocated to stack - offset 4
                           1909 ;sloc3                     Allocated to stack - offset 5
                           1910 ;sloc4                     Allocated to stack - offset 6
                           1911 ;sloc5                     Allocated to stack - offset 8
                           1912 ;sloc6                     Allocated to stack - offset 11
                           1913 ;------------------------------------------------------------
                           1914 ;	../../../core/net/psock.c:142: data_is_sent_and_acked(CC_REGISTER_ARG struct psock *s)
                           1915 ;	-----------------------------------------
                           1916 ;	 function data_is_sent_and_acked
                           1917 ;	-----------------------------------------
   079F                    1918 _data_is_sent_and_acked:
   079F C0*00              1919 	push	_bp
   07A1 E5 81              1920 	mov	a,sp
   07A3 F5*00              1921 	mov	_bp,a
   07A5 24 0D              1922 	add	a,#0x0d
   07A7 F5 81              1923 	mov	sp,a
   07A9 AA 82              1924 	mov	r2,dpl
   07AB AB 83              1925 	mov	r3,dph
   07AD AC F0              1926 	mov	r4,b
                           1927 ;	../../../core/net/psock.c:147: if(s->state != STATE_DATA_SENT || uip_rexmit()) {
   07AF 74 18              1928 	mov	a,#0x18
   07B1 2A                 1929 	add	a,r2
   07B2 FD                 1930 	mov	r5,a
   07B3 E4                 1931 	clr	a
   07B4 3B                 1932 	addc	a,r3
   07B5 FE                 1933 	mov	r6,a
   07B6 8C 07              1934 	mov	ar7,r4
   07B8 8D 82              1935 	mov	dpl,r5
   07BA 8E 83              1936 	mov	dph,r6
   07BC 8F F0              1937 	mov	b,r7
   07BE E5*00              1938 	mov	a,_bp
   07C0 24 04              1939 	add	a,#0x04
   07C2 F8                 1940 	mov	r0,a
   07C3 12s00r00           1941 	lcall	__gptrget
   07C6 F6                 1942 	mov	@r0,a
   07C7 E5*00              1943 	mov	a,_bp
   07C9 24 04              1944 	add	a,#0x04
   07CB F8                 1945 	mov	r0,a
   07CC E5*00              1946 	mov	a,_bp
   07CE 24 03              1947 	add	a,#0x03
   07D0 F9                 1948 	mov	r1,a
   07D1 E4                 1949 	clr	a
   07D2 B6 06 01           1950 	cjne	@r0,#0x06,00121$
   07D5 04                 1951 	inc	a
   07D6                    1952 00121$:
   07D6 F7                 1953 	mov	@r1,a
   07D7 E5*00              1954 	mov	a,_bp
   07D9 24 03              1955 	add	a,#0x03
   07DB F8                 1956 	mov	r0,a
   07DC E6                 1957 	mov	a,@r0
   07DD 60 16              1958 	jz	00110$
   07DF 90s00r00           1959 	mov	dptr,#_uip_flags
   07E2 E5*00              1960 	mov	a,_bp
   07E4 24 05              1961 	add	a,#0x05
   07E6 F8                 1962 	mov	r0,a
   07E7 E0                 1963 	movx	a,@dptr
   07E8 F6                 1964 	mov	@r0,a
   07E9 E5*00              1965 	mov	a,_bp
   07EB 24 05              1966 	add	a,#0x05
   07ED F8                 1967 	mov	r0,a
   07EE E6                 1968 	mov	a,@r0
   07EF 20 E2 03           1969 	jb	acc.2,00124$
   07F2 02s09r02           1970 	ljmp	00111$
   07F5                    1971 00124$:
   07F5                    1972 00110$:
                           1973 ;	../../../core/net/psock.c:148: if(s->sendlen > uip_mss()) {
   07F5 C0 05              1974 	push	ar5
   07F7 C0 06              1975 	push	ar6
   07F9 C0 07              1976 	push	ar7
   07FB 74 0D              1977 	mov	a,#0x0D
   07FD 2A                 1978 	add	a,r2
   07FE FD                 1979 	mov	r5,a
   07FF E4                 1980 	clr	a
   0800 3B                 1981 	addc	a,r3
   0801 FE                 1982 	mov	r6,a
   0802 8C 07              1983 	mov	ar7,r4
   0804 8D 82              1984 	mov	dpl,r5
   0806 8E 83              1985 	mov	dph,r6
   0808 8F F0              1986 	mov	b,r7
   080A A8*00              1987 	mov	r0,_bp
   080C 08                 1988 	inc	r0
   080D 12s00r00           1989 	lcall	__gptrget
   0810 F6                 1990 	mov	@r0,a
   0811 A3                 1991 	inc	dptr
   0812 12s00r00           1992 	lcall	__gptrget
   0815 08                 1993 	inc	r0
   0816 F6                 1994 	mov	@r0,a
   0817 90s00r00           1995 	mov	dptr,#_uip_conn
   081A E0                 1996 	movx	a,@dptr
   081B FD                 1997 	mov	r5,a
   081C A3                 1998 	inc	dptr
   081D E0                 1999 	movx	a,@dptr
   081E FE                 2000 	mov	r6,a
   081F A3                 2001 	inc	dptr
   0820 E0                 2002 	movx	a,@dptr
   0821 FF                 2003 	mov	r7,a
   0822 74 12              2004 	mov	a,#0x12
   0824 2D                 2005 	add	a,r5
   0825 FD                 2006 	mov	r5,a
   0826 E4                 2007 	clr	a
   0827 3E                 2008 	addc	a,r6
   0828 FE                 2009 	mov	r6,a
   0829 8D 82              2010 	mov	dpl,r5
   082B 8E 83              2011 	mov	dph,r6
   082D 8F F0              2012 	mov	b,r7
   082F E5*00              2013 	mov	a,_bp
   0831 24 06              2014 	add	a,#0x06
   0833 F8                 2015 	mov	r0,a
   0834 12s00r00           2016 	lcall	__gptrget
   0837 F6                 2017 	mov	@r0,a
   0838 A3                 2018 	inc	dptr
   0839 12s00r00           2019 	lcall	__gptrget
   083C 08                 2020 	inc	r0
   083D F6                 2021 	mov	@r0,a
   083E A8*00              2022 	mov	r0,_bp
   0840 08                 2023 	inc	r0
   0841 E5*00              2024 	mov	a,_bp
   0843 24 06              2025 	add	a,#0x06
   0845 F9                 2026 	mov	r1,a
   0846 C3                 2027 	clr	c
   0847 E7                 2028 	mov	a,@r1
   0848 96                 2029 	subb	a,@r0
   0849 09                 2030 	inc	r1
   084A E7                 2031 	mov	a,@r1
   084B 08                 2032 	inc	r0
   084C 96                 2033 	subb	a,@r0
   084D D0 07              2034 	pop	ar7
   084F D0 06              2035 	pop	ar6
   0851 D0 05              2036 	pop	ar5
   0853 50 50              2037 	jnc	00102$
                           2038 ;	../../../core/net/psock.c:149: uip_send(s->sendptr, uip_mss());
   0855 C0 05              2039 	push	ar5
   0857 C0 06              2040 	push	ar6
   0859 C0 07              2041 	push	ar7
   085B 74 04              2042 	mov	a,#0x04
   085D 2A                 2043 	add	a,r2
   085E FD                 2044 	mov	r5,a
   085F E4                 2045 	clr	a
   0860 3B                 2046 	addc	a,r3
   0861 FE                 2047 	mov	r6,a
   0862 8C 07              2048 	mov	ar7,r4
   0864 8D 82              2049 	mov	dpl,r5
   0866 8E 83              2050 	mov	dph,r6
   0868 8F F0              2051 	mov	b,r7
   086A 12s00r00           2052 	lcall	__gptrget
   086D FD                 2053 	mov	r5,a
   086E A3                 2054 	inc	dptr
   086F 12s00r00           2055 	lcall	__gptrget
   0872 FE                 2056 	mov	r6,a
   0873 A3                 2057 	inc	dptr
   0874 12s00r00           2058 	lcall	__gptrget
   0877 FF                 2059 	mov	r7,a
   0878 C0 05              2060 	push	ar5
   087A C0 06              2061 	push	ar6
   087C C0 07              2062 	push	ar7
   087E E5*00              2063 	mov	a,_bp
   0880 24 06              2064 	add	a,#0x06
   0882 F8                 2065 	mov	r0,a
   0883 E6                 2066 	mov	a,@r0
   0884 C0 E0              2067 	push	acc
   0886 08                 2068 	inc	r0
   0887 E6                 2069 	mov	a,@r0
   0888 C0 E0              2070 	push	acc
   088A 8D 82              2071 	mov	dpl,r5
   088C 8E 83              2072 	mov	dph,r6
   088E 8F F0              2073 	mov	b,r7
   0890 12s00r00           2074 	lcall	_uip_send
   0893 15 81              2075 	dec	sp
   0895 15 81              2076 	dec	sp
   0897 D0 07              2077 	pop	ar7
   0899 D0 06              2078 	pop	ar6
   089B D0 05              2079 	pop	ar5
   089D D0 07              2080 	pop	ar7
   089F D0 06              2081 	pop	ar6
   08A1 D0 05              2082 	pop	ar5
   08A3 80 4C              2083 	sjmp	00103$
   08A5                    2084 00102$:
                           2085 ;	../../../core/net/psock.c:151: uip_send(s->sendptr, s->sendlen);
   08A5 C0 05              2086 	push	ar5
   08A7 C0 06              2087 	push	ar6
   08A9 C0 07              2088 	push	ar7
   08AB 74 04              2089 	mov	a,#0x04
   08AD 2A                 2090 	add	a,r2
   08AE FD                 2091 	mov	r5,a
   08AF E4                 2092 	clr	a
   08B0 3B                 2093 	addc	a,r3
   08B1 FE                 2094 	mov	r6,a
   08B2 8C 07              2095 	mov	ar7,r4
   08B4 8D 82              2096 	mov	dpl,r5
   08B6 8E 83              2097 	mov	dph,r6
   08B8 8F F0              2098 	mov	b,r7
   08BA 12s00r00           2099 	lcall	__gptrget
   08BD FD                 2100 	mov	r5,a
   08BE A3                 2101 	inc	dptr
   08BF 12s00r00           2102 	lcall	__gptrget
   08C2 FE                 2103 	mov	r6,a
   08C3 A3                 2104 	inc	dptr
   08C4 12s00r00           2105 	lcall	__gptrget
   08C7 FF                 2106 	mov	r7,a
   08C8 C0 05              2107 	push	ar5
   08CA C0 06              2108 	push	ar6
   08CC C0 07              2109 	push	ar7
   08CE A8*00              2110 	mov	r0,_bp
   08D0 08                 2111 	inc	r0
   08D1 E6                 2112 	mov	a,@r0
   08D2 C0 E0              2113 	push	acc
   08D4 08                 2114 	inc	r0
   08D5 E6                 2115 	mov	a,@r0
   08D6 C0 E0              2116 	push	acc
   08D8 8D 82              2117 	mov	dpl,r5
   08DA 8E 83              2118 	mov	dph,r6
   08DC 8F F0              2119 	mov	b,r7
   08DE 12s00r00           2120 	lcall	_uip_send
   08E1 15 81              2121 	dec	sp
   08E3 15 81              2122 	dec	sp
   08E5 D0 07              2123 	pop	ar7
   08E7 D0 06              2124 	pop	ar6
   08E9 D0 05              2125 	pop	ar5
                           2126 ;	../../../core/net/psock.c:166: return 0;
   08EB D0 07              2127 	pop	ar7
   08ED D0 06              2128 	pop	ar6
   08EF D0 05              2129 	pop	ar5
                           2130 ;	../../../core/net/psock.c:151: uip_send(s->sendptr, s->sendlen);
   08F1                    2131 00103$:
                           2132 ;	../../../core/net/psock.c:153: s->state = STATE_DATA_SENT;
   08F1 8D 82              2133 	mov	dpl,r5
   08F3 8E 83              2134 	mov	dph,r6
   08F5 8F F0              2135 	mov	b,r7
   08F7 74 06              2136 	mov	a,#0x06
   08F9 12s00r00           2137 	lcall	__gptrput
                           2138 ;	../../../core/net/psock.c:154: return 0;
   08FC 75 82 00           2139 	mov	dpl,#0x00
   08FF 02s0Ar7F           2140 	ljmp	00114$
   0902                    2141 00111$:
                           2142 ;	../../../core/net/psock.c:155: } else if(s->state == STATE_DATA_SENT && uip_acked()) {
   0902 E5*00              2143 	mov	a,_bp
   0904 24 03              2144 	add	a,#0x03
   0906 F8                 2145 	mov	r0,a
   0907 E6                 2146 	mov	a,@r0
   0908 70 03              2147 	jnz	00126$
   090A 02s0Ar7C           2148 	ljmp	00112$
   090D                    2149 00126$:
   090D E5*00              2150 	mov	a,_bp
   090F 24 05              2151 	add	a,#0x05
   0911 F8                 2152 	mov	r0,a
   0912 E6                 2153 	mov	a,@r0
   0913 20 E0 03           2154 	jb	acc.0,00127$
   0916 02s0Ar7C           2155 	ljmp	00112$
   0919                    2156 00127$:
                           2157 ;	../../../core/net/psock.c:156: if(s->sendlen > uip_mss()) {
   0919 C0 05              2158 	push	ar5
   091B C0 06              2159 	push	ar6
   091D C0 07              2160 	push	ar7
   091F E5*00              2161 	mov	a,_bp
   0921 24 08              2162 	add	a,#0x08
   0923 F8                 2163 	mov	r0,a
   0924 74 0D              2164 	mov	a,#0x0D
   0926 2A                 2165 	add	a,r2
   0927 F6                 2166 	mov	@r0,a
   0928 E4                 2167 	clr	a
   0929 3B                 2168 	addc	a,r3
   092A 08                 2169 	inc	r0
   092B F6                 2170 	mov	@r0,a
   092C 08                 2171 	inc	r0
   092D A6 04              2172 	mov	@r0,ar4
   092F E5*00              2173 	mov	a,_bp
   0931 24 08              2174 	add	a,#0x08
   0933 F8                 2175 	mov	r0,a
   0934 86 82              2176 	mov	dpl,@r0
   0936 08                 2177 	inc	r0
   0937 86 83              2178 	mov	dph,@r0
   0939 08                 2179 	inc	r0
   093A 86 F0              2180 	mov	b,@r0
   093C E5*00              2181 	mov	a,_bp
   093E 24 06              2182 	add	a,#0x06
   0940 F9                 2183 	mov	r1,a
   0941 12s00r00           2184 	lcall	__gptrget
   0944 F7                 2185 	mov	@r1,a
   0945 A3                 2186 	inc	dptr
   0946 12s00r00           2187 	lcall	__gptrget
   0949 09                 2188 	inc	r1
   094A F7                 2189 	mov	@r1,a
   094B 90s00r00           2190 	mov	dptr,#_uip_conn
   094E E0                 2191 	movx	a,@dptr
   094F FD                 2192 	mov	r5,a
   0950 A3                 2193 	inc	dptr
   0951 E0                 2194 	movx	a,@dptr
   0952 FE                 2195 	mov	r6,a
   0953 A3                 2196 	inc	dptr
   0954 E0                 2197 	movx	a,@dptr
   0955 FF                 2198 	mov	r7,a
   0956 74 12              2199 	mov	a,#0x12
   0958 2D                 2200 	add	a,r5
   0959 FD                 2201 	mov	r5,a
   095A E4                 2202 	clr	a
   095B 3E                 2203 	addc	a,r6
   095C FE                 2204 	mov	r6,a
   095D 8D 82              2205 	mov	dpl,r5
   095F 8E 83              2206 	mov	dph,r6
   0961 8F F0              2207 	mov	b,r7
   0963 A8*00              2208 	mov	r0,_bp
   0965 08                 2209 	inc	r0
   0966 12s00r00           2210 	lcall	__gptrget
   0969 F6                 2211 	mov	@r0,a
   096A A3                 2212 	inc	dptr
   096B 12s00r00           2213 	lcall	__gptrget
   096E 08                 2214 	inc	r0
   096F F6                 2215 	mov	@r0,a
   0970 E5*00              2216 	mov	a,_bp
   0972 24 06              2217 	add	a,#0x06
   0974 F8                 2218 	mov	r0,a
   0975 A9*00              2219 	mov	r1,_bp
   0977 09                 2220 	inc	r1
   0978 C3                 2221 	clr	c
   0979 E7                 2222 	mov	a,@r1
   097A 96                 2223 	subb	a,@r0
   097B 09                 2224 	inc	r1
   097C E7                 2225 	mov	a,@r1
   097D 08                 2226 	inc	r0
   097E 96                 2227 	subb	a,@r0
   097F D0 07              2228 	pop	ar7
   0981 D0 06              2229 	pop	ar6
   0983 D0 05              2230 	pop	ar5
   0985 40 03              2231 	jc	00128$
   0987 02s0Ar0F           2232 	ljmp	00105$
   098A                    2233 00128$:
                           2234 ;	../../../core/net/psock.c:157: s->sendlen -= uip_mss();
   098A C0 05              2235 	push	ar5
   098C C0 06              2236 	push	ar6
   098E C0 07              2237 	push	ar7
   0990 E5*00              2238 	mov	a,_bp
   0992 24 06              2239 	add	a,#0x06
   0994 F8                 2240 	mov	r0,a
   0995 A9*00              2241 	mov	r1,_bp
   0997 09                 2242 	inc	r1
   0998 E6                 2243 	mov	a,@r0
   0999 C3                 2244 	clr	c
   099A 97                 2245 	subb	a,@r1
   099B FD                 2246 	mov	r5,a
   099C 08                 2247 	inc	r0
   099D E6                 2248 	mov	a,@r0
   099E 09                 2249 	inc	r1
   099F 97                 2250 	subb	a,@r1
   09A0 FE                 2251 	mov	r6,a
   09A1 E5*00              2252 	mov	a,_bp
   09A3 24 08              2253 	add	a,#0x08
   09A5 F8                 2254 	mov	r0,a
   09A6 86 82              2255 	mov	dpl,@r0
   09A8 08                 2256 	inc	r0
   09A9 86 83              2257 	mov	dph,@r0
   09AB 08                 2258 	inc	r0
   09AC 86 F0              2259 	mov	b,@r0
   09AE ED                 2260 	mov	a,r5
   09AF 12s00r00           2261 	lcall	__gptrput
   09B2 A3                 2262 	inc	dptr
   09B3 EE                 2263 	mov	a,r6
   09B4 12s00r00           2264 	lcall	__gptrput
                           2265 ;	../../../core/net/psock.c:158: s->sendptr += uip_mss();
   09B7 E5*00              2266 	mov	a,_bp
   09B9 24 0B              2267 	add	a,#0x0b
   09BB F8                 2268 	mov	r0,a
   09BC 74 04              2269 	mov	a,#0x04
   09BE 2A                 2270 	add	a,r2
   09BF F6                 2271 	mov	@r0,a
   09C0 E4                 2272 	clr	a
   09C1 3B                 2273 	addc	a,r3
   09C2 08                 2274 	inc	r0
   09C3 F6                 2275 	mov	@r0,a
   09C4 08                 2276 	inc	r0
   09C5 A6 04              2277 	mov	@r0,ar4
   09C7 E5*00              2278 	mov	a,_bp
   09C9 24 0B              2279 	add	a,#0x0b
   09CB F8                 2280 	mov	r0,a
   09CC 86 82              2281 	mov	dpl,@r0
   09CE 08                 2282 	inc	r0
   09CF 86 83              2283 	mov	dph,@r0
   09D1 08                 2284 	inc	r0
   09D2 86 F0              2285 	mov	b,@r0
   09D4 12s00r00           2286 	lcall	__gptrget
   09D7 FD                 2287 	mov	r5,a
   09D8 A3                 2288 	inc	dptr
   09D9 12s00r00           2289 	lcall	__gptrget
   09DC FE                 2290 	mov	r6,a
   09DD A3                 2291 	inc	dptr
   09DE 12s00r00           2292 	lcall	__gptrget
   09E1 FF                 2293 	mov	r7,a
   09E2 A8*00              2294 	mov	r0,_bp
   09E4 08                 2295 	inc	r0
   09E5 E6                 2296 	mov	a,@r0
   09E6 2D                 2297 	add	a,r5
   09E7 FD                 2298 	mov	r5,a
   09E8 08                 2299 	inc	r0
   09E9 E6                 2300 	mov	a,@r0
   09EA 3E                 2301 	addc	a,r6
   09EB FE                 2302 	mov	r6,a
   09EC E5*00              2303 	mov	a,_bp
   09EE 24 0B              2304 	add	a,#0x0b
   09F0 F8                 2305 	mov	r0,a
   09F1 86 82              2306 	mov	dpl,@r0
   09F3 08                 2307 	inc	r0
   09F4 86 83              2308 	mov	dph,@r0
   09F6 08                 2309 	inc	r0
   09F7 86 F0              2310 	mov	b,@r0
   09F9 ED                 2311 	mov	a,r5
   09FA 12s00r00           2312 	lcall	__gptrput
   09FD A3                 2313 	inc	dptr
   09FE EE                 2314 	mov	a,r6
   09FF 12s00r00           2315 	lcall	__gptrput
   0A02 A3                 2316 	inc	dptr
   0A03 EF                 2317 	mov	a,r7
   0A04 12s00r00           2318 	lcall	__gptrput
   0A07 D0 07              2319 	pop	ar7
   0A09 D0 06              2320 	pop	ar6
   0A0B D0 05              2321 	pop	ar5
   0A0D 80 5D              2322 	sjmp	00106$
   0A0F                    2323 00105$:
                           2324 ;	../../../core/net/psock.c:160: s->sendptr += s->sendlen;
   0A0F C0 05              2325 	push	ar5
   0A11 C0 06              2326 	push	ar6
   0A13 C0 07              2327 	push	ar7
   0A15 74 04              2328 	mov	a,#0x04
   0A17 2A                 2329 	add	a,r2
   0A18 FA                 2330 	mov	r2,a
   0A19 E4                 2331 	clr	a
   0A1A 3B                 2332 	addc	a,r3
   0A1B FB                 2333 	mov	r3,a
   0A1C 8A 82              2334 	mov	dpl,r2
   0A1E 8B 83              2335 	mov	dph,r3
   0A20 8C F0              2336 	mov	b,r4
   0A22 12s00r00           2337 	lcall	__gptrget
   0A25 FD                 2338 	mov	r5,a
   0A26 A3                 2339 	inc	dptr
   0A27 12s00r00           2340 	lcall	__gptrget
   0A2A FE                 2341 	mov	r6,a
   0A2B A3                 2342 	inc	dptr
   0A2C 12s00r00           2343 	lcall	__gptrget
   0A2F FF                 2344 	mov	r7,a
   0A30 E5*00              2345 	mov	a,_bp
   0A32 24 06              2346 	add	a,#0x06
   0A34 F8                 2347 	mov	r0,a
   0A35 E6                 2348 	mov	a,@r0
   0A36 2D                 2349 	add	a,r5
   0A37 FD                 2350 	mov	r5,a
   0A38 08                 2351 	inc	r0
   0A39 E6                 2352 	mov	a,@r0
   0A3A 3E                 2353 	addc	a,r6
   0A3B FE                 2354 	mov	r6,a
   0A3C 8A 82              2355 	mov	dpl,r2
   0A3E 8B 83              2356 	mov	dph,r3
   0A40 8C F0              2357 	mov	b,r4
   0A42 ED                 2358 	mov	a,r5
   0A43 12s00r00           2359 	lcall	__gptrput
   0A46 A3                 2360 	inc	dptr
   0A47 EE                 2361 	mov	a,r6
   0A48 12s00r00           2362 	lcall	__gptrput
   0A4B A3                 2363 	inc	dptr
   0A4C EF                 2364 	mov	a,r7
   0A4D 12s00r00           2365 	lcall	__gptrput
                           2366 ;	../../../core/net/psock.c:161: s->sendlen = 0;
   0A50 E5*00              2367 	mov	a,_bp
   0A52 24 08              2368 	add	a,#0x08
   0A54 F8                 2369 	mov	r0,a
   0A55 86 82              2370 	mov	dpl,@r0
   0A57 08                 2371 	inc	r0
   0A58 86 83              2372 	mov	dph,@r0
   0A5A 08                 2373 	inc	r0
   0A5B 86 F0              2374 	mov	b,@r0
   0A5D E4                 2375 	clr	a
   0A5E 12s00r00           2376 	lcall	__gptrput
   0A61 A3                 2377 	inc	dptr
   0A62 E4                 2378 	clr	a
   0A63 12s00r00           2379 	lcall	__gptrput
                           2380 ;	../../../core/net/psock.c:166: return 0;
   0A66 D0 07              2381 	pop	ar7
   0A68 D0 06              2382 	pop	ar6
   0A6A D0 05              2383 	pop	ar5
                           2384 ;	../../../core/net/psock.c:161: s->sendlen = 0;
   0A6C                    2385 00106$:
                           2386 ;	../../../core/net/psock.c:163: s->state = STATE_ACKED;
   0A6C 8D 82              2387 	mov	dpl,r5
   0A6E 8E 83              2388 	mov	dph,r6
   0A70 8F F0              2389 	mov	b,r7
   0A72 74 01              2390 	mov	a,#0x01
   0A74 12s00r00           2391 	lcall	__gptrput
                           2392 ;	../../../core/net/psock.c:164: return 1;
   0A77 75 82 01           2393 	mov	dpl,#0x01
   0A7A 80 03              2394 	sjmp	00114$
   0A7C                    2395 00112$:
                           2396 ;	../../../core/net/psock.c:166: return 0;
   0A7C 75 82 00           2397 	mov	dpl,#0x00
   0A7F                    2398 00114$:
   0A7F 85*00 81           2399 	mov	sp,_bp
   0A82 D0*00              2400 	pop	_bp
   0A84 22                 2401 	ret
                           2402 ;------------------------------------------------------------
                           2403 ;Allocation info for local variables in function 'psock_send'
                           2404 ;------------------------------------------------------------
                           2405 ;buf                       Allocated to stack - offset -5
                           2406 ;len                       Allocated to stack - offset -7
                           2407 ;s                         Allocated to stack - offset 1
                           2408 ;PT_YIELD_FLAG             Allocated to registers 
                           2409 ;sloc0                     Allocated to stack - offset 5
                           2410 ;sloc1                     Allocated to stack - offset 4
                           2411 ;------------------------------------------------------------
                           2412 ;	../../../core/net/psock.c:169: PT_THREAD(psock_send(CC_REGISTER_ARG struct psock *s, const uint8_t *buf,
                           2413 ;	-----------------------------------------
                           2414 ;	 function psock_send
                           2415 ;	-----------------------------------------
   0A85                    2416 _psock_send:
   0A85 C0*00              2417 	push	_bp
   0A87 85 81*00           2418 	mov	_bp,sp
   0A8A C0 82              2419 	push	dpl
   0A8C C0 83              2420 	push	dph
   0A8E C0 F0              2421 	push	b
   0A90 05 81              2422 	inc	sp
   0A92 05 81              2423 	inc	sp
   0A94 05 81              2424 	inc	sp
                           2425 ;	../../../core/net/psock.c:172: PT_BEGIN(&s->psockpt);
   0A96 A8*00              2426 	mov	r0,_bp
   0A98 08                 2427 	inc	r0
   0A99 74 02              2428 	mov	a,#0x02
   0A9B 26                 2429 	add	a,@r0
   0A9C FD                 2430 	mov	r5,a
   0A9D E4                 2431 	clr	a
   0A9E 08                 2432 	inc	r0
   0A9F 36                 2433 	addc	a,@r0
   0AA0 FE                 2434 	mov	r6,a
   0AA1 08                 2435 	inc	r0
   0AA2 86 07              2436 	mov	ar7,@r0
   0AA4 8D 82              2437 	mov	dpl,r5
   0AA6 8E 83              2438 	mov	dph,r6
   0AA8 8F F0              2439 	mov	b,r7
   0AAA 12s00r00           2440 	lcall	__gptrget
   0AAD FA                 2441 	mov	r2,a
   0AAE A3                 2442 	inc	dptr
   0AAF 12s00r00           2443 	lcall	__gptrget
   0AB2 FB                 2444 	mov	r3,a
   0AB3 BA 00 05           2445 	cjne	r2,#0x00,00125$
   0AB6 BB 00 02           2446 	cjne	r3,#0x00,00125$
   0AB9 80 0C              2447 	sjmp	00101$
   0ABB                    2448 00125$:
   0ABB BA C2 06           2449 	cjne	r2,#0xC2,00126$
   0ABE BB 00 03           2450 	cjne	r3,#0x00,00126$
   0AC1 02s0Br88           2451 	ljmp	00107$
   0AC4                    2452 00126$:
   0AC4 02s0BrBB           2453 	ljmp	00116$
   0AC7                    2454 00101$:
                           2455 ;	../../../core/net/psock.c:175: if(len == 0) {
   0AC7 E5*00              2456 	mov	a,_bp
   0AC9 24 F9              2457 	add	a,#0xf9
   0ACB F8                 2458 	mov	r0,a
   0ACC E6                 2459 	mov	a,@r0
   0ACD 08                 2460 	inc	r0
   0ACE 46                 2461 	orl	a,@r0
   0ACF 70 15              2462 	jnz	00106$
                           2463 ;	../../../core/net/psock.c:176: PT_EXIT(&s->psockpt);
   0AD1 8D 82              2464 	mov	dpl,r5
   0AD3 8E 83              2465 	mov	dph,r6
   0AD5 8F F0              2466 	mov	b,r7
   0AD7 E4                 2467 	clr	a
   0AD8 12s00r00           2468 	lcall	__gptrput
   0ADB A3                 2469 	inc	dptr
   0ADC E4                 2470 	clr	a
   0ADD 12s00r00           2471 	lcall	__gptrput
   0AE0 75 82 02           2472 	mov	dpl,#0x02
   0AE3 02s0BrDB           2473 	ljmp	00117$
   0AE6                    2474 00106$:
                           2475 ;	../../../core/net/psock.c:181: s->sendptr = buf;
   0AE6 A8*00              2476 	mov	r0,_bp
   0AE8 08                 2477 	inc	r0
   0AE9 74 04              2478 	mov	a,#0x04
   0AEB 26                 2479 	add	a,@r0
   0AEC FD                 2480 	mov	r5,a
   0AED E4                 2481 	clr	a
   0AEE 08                 2482 	inc	r0
   0AEF 36                 2483 	addc	a,@r0
   0AF0 FE                 2484 	mov	r6,a
   0AF1 08                 2485 	inc	r0
   0AF2 86 07              2486 	mov	ar7,@r0
   0AF4 8D 82              2487 	mov	dpl,r5
   0AF6 8E 83              2488 	mov	dph,r6
   0AF8 8F F0              2489 	mov	b,r7
   0AFA E5*00              2490 	mov	a,_bp
   0AFC 24 FB              2491 	add	a,#0xfb
   0AFE F8                 2492 	mov	r0,a
   0AFF E6                 2493 	mov	a,@r0
   0B00 12s00r00           2494 	lcall	__gptrput
   0B03 A3                 2495 	inc	dptr
   0B04 08                 2496 	inc	r0
   0B05 E6                 2497 	mov	a,@r0
   0B06 12s00r00           2498 	lcall	__gptrput
   0B09 A3                 2499 	inc	dptr
   0B0A 08                 2500 	inc	r0
   0B0B E6                 2501 	mov	a,@r0
   0B0C 12s00r00           2502 	lcall	__gptrput
                           2503 ;	../../../core/net/psock.c:182: s->sendlen = len;
   0B0F A8*00              2504 	mov	r0,_bp
   0B11 08                 2505 	inc	r0
   0B12 74 0D              2506 	mov	a,#0x0D
   0B14 26                 2507 	add	a,@r0
   0B15 FD                 2508 	mov	r5,a
   0B16 E4                 2509 	clr	a
   0B17 08                 2510 	inc	r0
   0B18 36                 2511 	addc	a,@r0
   0B19 FE                 2512 	mov	r6,a
   0B1A 08                 2513 	inc	r0
   0B1B 86 07              2514 	mov	ar7,@r0
   0B1D 8D 82              2515 	mov	dpl,r5
   0B1F 8E 83              2516 	mov	dph,r6
   0B21 8F F0              2517 	mov	b,r7
   0B23 E5*00              2518 	mov	a,_bp
   0B25 24 F9              2519 	add	a,#0xf9
   0B27 F8                 2520 	mov	r0,a
   0B28 E6                 2521 	mov	a,@r0
   0B29 12s00r00           2522 	lcall	__gptrput
   0B2C A3                 2523 	inc	dptr
   0B2D 08                 2524 	inc	r0
   0B2E E6                 2525 	mov	a,@r0
   0B2F 12s00r00           2526 	lcall	__gptrput
                           2527 ;	../../../core/net/psock.c:184: s->state = STATE_NONE;
   0B32 A8*00              2528 	mov	r0,_bp
   0B34 08                 2529 	inc	r0
   0B35 E5*00              2530 	mov	a,_bp
   0B37 24 04              2531 	add	a,#0x04
   0B39 F9                 2532 	mov	r1,a
   0B3A 74 18              2533 	mov	a,#0x18
   0B3C 26                 2534 	add	a,@r0
   0B3D F7                 2535 	mov	@r1,a
   0B3E E4                 2536 	clr	a
   0B3F 08                 2537 	inc	r0
   0B40 36                 2538 	addc	a,@r0
   0B41 09                 2539 	inc	r1
   0B42 F7                 2540 	mov	@r1,a
   0B43 08                 2541 	inc	r0
   0B44 09                 2542 	inc	r1
   0B45 E6                 2543 	mov	a,@r0
   0B46 F7                 2544 	mov	@r1,a
   0B47 E5*00              2545 	mov	a,_bp
   0B49 24 04              2546 	add	a,#0x04
   0B4B F8                 2547 	mov	r0,a
   0B4C 86 82              2548 	mov	dpl,@r0
   0B4E 08                 2549 	inc	r0
   0B4F 86 83              2550 	mov	dph,@r0
   0B51 08                 2551 	inc	r0
   0B52 86 F0              2552 	mov	b,@r0
   0B54 E4                 2553 	clr	a
   0B55 12s00r00           2554 	lcall	__gptrput
                           2555 ;	../../../core/net/psock.c:188: while(s->sendlen > 0) {
   0B58                    2556 00113$:
   0B58 8D 82              2557 	mov	dpl,r5
   0B5A 8E 83              2558 	mov	dph,r6
   0B5C 8F F0              2559 	mov	b,r7
   0B5E 12s00r00           2560 	lcall	__gptrget
   0B61 FA                 2561 	mov	r2,a
   0B62 A3                 2562 	inc	dptr
   0B63 12s00r00           2563 	lcall	__gptrget
   0B66 FB                 2564 	mov	r3,a
   0B67 4A                 2565 	orl	a,r2
   0B68 60 40              2566 	jz	00115$
                           2567 ;	../../../core/net/psock.c:194: PT_WAIT_UNTIL(&s->psockpt, data_is_sent_and_acked(s));
   0B6A A8*00              2568 	mov	r0,_bp
   0B6C 08                 2569 	inc	r0
   0B6D 74 02              2570 	mov	a,#0x02
   0B6F 26                 2571 	add	a,@r0
   0B70 FA                 2572 	mov	r2,a
   0B71 E4                 2573 	clr	a
   0B72 08                 2574 	inc	r0
   0B73 36                 2575 	addc	a,@r0
   0B74 FB                 2576 	mov	r3,a
   0B75 08                 2577 	inc	r0
   0B76 86 04              2578 	mov	ar4,@r0
   0B78 8A 82              2579 	mov	dpl,r2
   0B7A 8B 83              2580 	mov	dph,r3
   0B7C 8C F0              2581 	mov	b,r4
   0B7E 74 C2              2582 	mov	a,#0xC2
   0B80 12s00r00           2583 	lcall	__gptrput
   0B83 A3                 2584 	inc	dptr
   0B84 E4                 2585 	clr	a
   0B85 12s00r00           2586 	lcall	__gptrput
   0B88                    2587 00107$:
   0B88 A8*00              2588 	mov	r0,_bp
   0B8A 08                 2589 	inc	r0
   0B8B 86 82              2590 	mov	dpl,@r0
   0B8D 08                 2591 	inc	r0
   0B8E 86 83              2592 	mov	dph,@r0
   0B90 08                 2593 	inc	r0
   0B91 86 F0              2594 	mov	b,@r0
   0B93 C0 05              2595 	push	ar5
   0B95 C0 06              2596 	push	ar6
   0B97 C0 07              2597 	push	ar7
   0B99 12s07r9F           2598 	lcall	_data_is_sent_and_acked
   0B9C E5 82              2599 	mov	a,dpl
   0B9E D0 07              2600 	pop	ar7
   0BA0 D0 06              2601 	pop	ar6
   0BA2 D0 05              2602 	pop	ar5
   0BA4 70 B2              2603 	jnz	00113$
   0BA6 F5 82              2604 	mov	dpl,a
   0BA8 80 31              2605 	sjmp	00117$
   0BAA                    2606 00115$:
                           2607 ;	../../../core/net/psock.c:197: s->state = STATE_NONE;
   0BAA E5*00              2608 	mov	a,_bp
   0BAC 24 04              2609 	add	a,#0x04
   0BAE F8                 2610 	mov	r0,a
   0BAF 86 82              2611 	mov	dpl,@r0
   0BB1 08                 2612 	inc	r0
   0BB2 86 83              2613 	mov	dph,@r0
   0BB4 08                 2614 	inc	r0
   0BB5 86 F0              2615 	mov	b,@r0
   0BB7 E4                 2616 	clr	a
   0BB8 12s00r00           2617 	lcall	__gptrput
                           2618 ;	../../../core/net/psock.c:199: PT_END(&s->psockpt);
   0BBB                    2619 00116$:
   0BBB A8*00              2620 	mov	r0,_bp
   0BBD 08                 2621 	inc	r0
   0BBE 74 02              2622 	mov	a,#0x02
   0BC0 26                 2623 	add	a,@r0
   0BC1 FA                 2624 	mov	r2,a
   0BC2 E4                 2625 	clr	a
   0BC3 08                 2626 	inc	r0
   0BC4 36                 2627 	addc	a,@r0
   0BC5 FB                 2628 	mov	r3,a
   0BC6 08                 2629 	inc	r0
   0BC7 86 04              2630 	mov	ar4,@r0
   0BC9 8A 82              2631 	mov	dpl,r2
   0BCB 8B 83              2632 	mov	dph,r3
   0BCD 8C F0              2633 	mov	b,r4
   0BCF E4                 2634 	clr	a
   0BD0 12s00r00           2635 	lcall	__gptrput
   0BD3 A3                 2636 	inc	dptr
   0BD4 E4                 2637 	clr	a
   0BD5 12s00r00           2638 	lcall	__gptrput
   0BD8 75 82 03           2639 	mov	dpl,#0x03
   0BDB                    2640 00117$:
   0BDB 85*00 81           2641 	mov	sp,_bp
   0BDE D0*00              2642 	pop	_bp
   0BE0 22                 2643 	ret
                           2644 ;------------------------------------------------------------
                           2645 ;Allocation info for local variables in function 'psock_generator_send'
                           2646 ;------------------------------------------------------------
                           2647 ;generate                  Allocated to stack - offset -4
                           2648 ;arg                       Allocated to stack - offset -7
                           2649 ;s                         Allocated to stack - offset 1
                           2650 ;PT_YIELD_FLAG             Allocated to registers r2 
                           2651 ;sloc0                     Allocated to stack - offset 4
                           2652 ;sloc1                     Allocated to stack - offset 6
                           2653 ;sloc2                     Allocated to stack - offset 9
                           2654 ;sloc3                     Allocated to stack - offset 12
                           2655 ;sloc4                     Allocated to stack - offset 14
                           2656 ;------------------------------------------------------------
                           2657 ;	../../../core/net/psock.c:202: PT_THREAD(psock_generator_send(CC_REGISTER_ARG struct psock *s,
                           2658 ;	-----------------------------------------
                           2659 ;	 function psock_generator_send
                           2660 ;	-----------------------------------------
   0BE1                    2661 _psock_generator_send:
   0BE1 C0*00              2662 	push	_bp
   0BE3 85 81*00           2663 	mov	_bp,sp
   0BE6 C0 82              2664 	push	dpl
   0BE8 C0 83              2665 	push	dph
   0BEA C0 F0              2666 	push	b
   0BEC E5 81              2667 	mov	a,sp
   0BEE 24 0F              2668 	add	a,#0x0f
   0BF0 F5 81              2669 	mov	sp,a
                           2670 ;	../../../core/net/psock.c:205: PT_BEGIN(&s->psockpt);
   0BF2 7A 01              2671 	mov	r2,#0x01
   0BF4 A8*00              2672 	mov	r0,_bp
   0BF6 08                 2673 	inc	r0
   0BF7 74 02              2674 	mov	a,#0x02
   0BF9 26                 2675 	add	a,@r0
   0BFA FE                 2676 	mov	r6,a
   0BFB E4                 2677 	clr	a
   0BFC 08                 2678 	inc	r0
   0BFD 36                 2679 	addc	a,@r0
   0BFE FF                 2680 	mov	r7,a
   0BFF 08                 2681 	inc	r0
   0C00 86 05              2682 	mov	ar5,@r0
   0C02 8E 82              2683 	mov	dpl,r6
   0C04 8F 83              2684 	mov	dph,r7
   0C06 8D F0              2685 	mov	b,r5
   0C08 12s00r00           2686 	lcall	__gptrget
   0C0B FB                 2687 	mov	r3,a
   0C0C A3                 2688 	inc	dptr
   0C0D 12s00r00           2689 	lcall	__gptrget
   0C10 FC                 2690 	mov	r4,a
   0C11 BB 00 05           2691 	cjne	r3,#0x00,00132$
   0C14 BC 00 02           2692 	cjne	r4,#0x00,00132$
   0C17 80 0C              2693 	sjmp	00101$
   0C19                    2694 00132$:
   0C19 BB E4 06           2695 	cjne	r3,#0xE4,00133$
   0C1C BC 00 03           2696 	cjne	r4,#0x00,00133$
   0C1F 02s0Er23           2697 	ljmp	00110$
   0C22                    2698 00133$:
   0C22 02s0Er56           2699 	ljmp	00121$
   0C25                    2700 00101$:
                           2701 ;	../../../core/net/psock.c:208: if(generate == NULL) {
   0C25 C0 06              2702 	push	ar6
   0C27 C0 07              2703 	push	ar7
   0C29 C0 05              2704 	push	ar5
   0C2B E5*00              2705 	mov	a,_bp
   0C2D 24 FC              2706 	add	a,#0xfc
   0C2F F8                 2707 	mov	r0,a
   0C30 86 05              2708 	mov	ar5,@r0
   0C32 08                 2709 	inc	r0
   0C33 86 06              2710 	mov	ar6,@r0
   0C35 7F 80              2711 	mov	r7,#0x80
   0C37 BD 00 08           2712 	cjne	r5,#0x00,00134$
   0C3A BE 00 05           2713 	cjne	r6,#0x00,00134$
   0C3D BF 00 02           2714 	cjne	r7,#0x00,00134$
   0C40 80 08              2715 	sjmp	00135$
   0C42                    2716 00134$:
   0C42 D0 05              2717 	pop	ar5
   0C44 D0 07              2718 	pop	ar7
   0C46 D0 06              2719 	pop	ar6
   0C48 80 1B              2720 	sjmp	00106$
   0C4A                    2721 00135$:
   0C4A D0 05              2722 	pop	ar5
   0C4C D0 07              2723 	pop	ar7
   0C4E D0 06              2724 	pop	ar6
                           2725 ;	../../../core/net/psock.c:209: PT_EXIT(&s->psockpt);
   0C50 8E 82              2726 	mov	dpl,r6
   0C52 8F 83              2727 	mov	dph,r7
   0C54 8D F0              2728 	mov	b,r5
   0C56 E4                 2729 	clr	a
   0C57 12s00r00           2730 	lcall	__gptrput
   0C5A A3                 2731 	inc	dptr
   0C5B E4                 2732 	clr	a
   0C5C 12s00r00           2733 	lcall	__gptrput
   0C5F 75 82 02           2734 	mov	dpl,#0x02
   0C62 02s0Er68           2735 	ljmp	00122$
   0C65                    2736 00106$:
                           2737 ;	../../../core/net/psock.c:212: s->state = STATE_NONE;
   0C65 A8*00              2738 	mov	r0,_bp
   0C67 08                 2739 	inc	r0
   0C68 E5*00              2740 	mov	a,_bp
   0C6A 24 06              2741 	add	a,#0x06
   0C6C F9                 2742 	mov	r1,a
   0C6D 74 18              2743 	mov	a,#0x18
   0C6F 26                 2744 	add	a,@r0
   0C70 F7                 2745 	mov	@r1,a
   0C71 E4                 2746 	clr	a
   0C72 08                 2747 	inc	r0
   0C73 36                 2748 	addc	a,@r0
   0C74 09                 2749 	inc	r1
   0C75 F7                 2750 	mov	@r1,a
   0C76 08                 2751 	inc	r0
   0C77 09                 2752 	inc	r1
   0C78 E6                 2753 	mov	a,@r0
   0C79 F7                 2754 	mov	@r1,a
   0C7A E5*00              2755 	mov	a,_bp
   0C7C 24 06              2756 	add	a,#0x06
   0C7E F8                 2757 	mov	r0,a
   0C7F 86 82              2758 	mov	dpl,@r0
   0C81 08                 2759 	inc	r0
   0C82 86 83              2760 	mov	dph,@r0
   0C84 08                 2761 	inc	r0
   0C85 86 F0              2762 	mov	b,@r0
   0C87 E4                 2763 	clr	a
   0C88 12s00r00           2764 	lcall	__gptrput
                           2765 ;	../../../core/net/psock.c:213: do {
   0C8B                    2766 00118$:
                           2767 ;	../../../core/net/psock.c:216: s->sendlen = generate(arg);
   0C8B C0 06              2768 	push	ar6
   0C8D C0 07              2769 	push	ar7
   0C8F C0 05              2770 	push	ar5
   0C91 A8*00              2771 	mov	r0,_bp
   0C93 08                 2772 	inc	r0
   0C94 74 0D              2773 	mov	a,#0x0D
   0C96 26                 2774 	add	a,@r0
   0C97 FD                 2775 	mov	r5,a
   0C98 E4                 2776 	clr	a
   0C99 08                 2777 	inc	r0
   0C9A 36                 2778 	addc	a,@r0
   0C9B FE                 2779 	mov	r6,a
   0C9C 08                 2780 	inc	r0
   0C9D 86 07              2781 	mov	ar7,@r0
   0C9F C0 05              2782 	push	ar5
   0CA1 C0 06              2783 	push	ar6
   0CA3 C0 07              2784 	push	ar7
   0CA5 74rC7              2785 	mov	a,#00136$
   0CA7 C0 E0              2786 	push	acc
   0CA9 74s0C              2787 	mov	a,#(00136$ >> 8)
   0CAB C0 E0              2788 	push	acc
   0CAD E5*00              2789 	mov	a,_bp
   0CAF 24 FC              2790 	add	a,#0xfc
   0CB1 F8                 2791 	mov	r0,a
   0CB2 E6                 2792 	mov	a,@r0
   0CB3 C0 E0              2793 	push	acc
   0CB5 08                 2794 	inc	r0
   0CB6 E6                 2795 	mov	a,@r0
   0CB7 C0 E0              2796 	push	acc
   0CB9 E5*00              2797 	mov	a,_bp
   0CBB 24 F9              2798 	add	a,#0xf9
   0CBD F8                 2799 	mov	r0,a
   0CBE 86 82              2800 	mov	dpl,@r0
   0CC0 08                 2801 	inc	r0
   0CC1 86 83              2802 	mov	dph,@r0
   0CC3 08                 2803 	inc	r0
   0CC4 86 F0              2804 	mov	b,@r0
   0CC6 22                 2805 	ret
   0CC7                    2806 00136$:
   0CC7 C8                 2807 	xch	a,r0
   0CC8 E5*00              2808 	mov	a,_bp
   0CCA 24 04              2809 	add	a,#0x04
   0CCC C8                 2810 	xch	a,r0
   0CCD A6 82              2811 	mov	@r0,dpl
   0CCF 08                 2812 	inc	r0
   0CD0 A6 83              2813 	mov	@r0,dph
   0CD2 D0 07              2814 	pop	ar7
   0CD4 D0 06              2815 	pop	ar6
   0CD6 D0 05              2816 	pop	ar5
   0CD8 8D 82              2817 	mov	dpl,r5
   0CDA 8E 83              2818 	mov	dph,r6
   0CDC 8F F0              2819 	mov	b,r7
   0CDE E5*00              2820 	mov	a,_bp
   0CE0 24 04              2821 	add	a,#0x04
   0CE2 F8                 2822 	mov	r0,a
   0CE3 E6                 2823 	mov	a,@r0
   0CE4 12s00r00           2824 	lcall	__gptrput
   0CE7 A3                 2825 	inc	dptr
   0CE8 08                 2826 	inc	r0
   0CE9 E6                 2827 	mov	a,@r0
   0CEA 12s00r00           2828 	lcall	__gptrput
                           2829 ;	../../../core/net/psock.c:217: s->sendptr = uip_appdata;
   0CED A8*00              2830 	mov	r0,_bp
   0CEF 08                 2831 	inc	r0
   0CF0 E5*00              2832 	mov	a,_bp
   0CF2 24 09              2833 	add	a,#0x09
   0CF4 F9                 2834 	mov	r1,a
   0CF5 74 04              2835 	mov	a,#0x04
   0CF7 26                 2836 	add	a,@r0
   0CF8 F7                 2837 	mov	@r1,a
   0CF9 E4                 2838 	clr	a
   0CFA 08                 2839 	inc	r0
   0CFB 36                 2840 	addc	a,@r0
   0CFC 09                 2841 	inc	r1
   0CFD F7                 2842 	mov	@r1,a
   0CFE 08                 2843 	inc	r0
   0CFF 09                 2844 	inc	r1
   0D00 E6                 2845 	mov	a,@r0
   0D01 F7                 2846 	mov	@r1,a
   0D02 90s00r00           2847 	mov	dptr,#_uip_appdata
   0D05 E0                 2848 	movx	a,@dptr
   0D06 FC                 2849 	mov	r4,a
   0D07 A3                 2850 	inc	dptr
   0D08 E0                 2851 	movx	a,@dptr
   0D09 FA                 2852 	mov	r2,a
   0D0A A3                 2853 	inc	dptr
   0D0B E0                 2854 	movx	a,@dptr
   0D0C FB                 2855 	mov	r3,a
   0D0D E5*00              2856 	mov	a,_bp
   0D0F 24 09              2857 	add	a,#0x09
   0D11 F8                 2858 	mov	r0,a
   0D12 86 82              2859 	mov	dpl,@r0
   0D14 08                 2860 	inc	r0
   0D15 86 83              2861 	mov	dph,@r0
   0D17 08                 2862 	inc	r0
   0D18 86 F0              2863 	mov	b,@r0
   0D1A EC                 2864 	mov	a,r4
   0D1B 12s00r00           2865 	lcall	__gptrput
   0D1E A3                 2866 	inc	dptr
   0D1F EA                 2867 	mov	a,r2
   0D20 12s00r00           2868 	lcall	__gptrput
   0D23 A3                 2869 	inc	dptr
   0D24 EB                 2870 	mov	a,r3
   0D25 12s00r00           2871 	lcall	__gptrput
                           2872 ;	../../../core/net/psock.c:219: if(s->sendlen > uip_mss()) {
   0D28 8D 82              2873 	mov	dpl,r5
   0D2A 8E 83              2874 	mov	dph,r6
   0D2C 8F F0              2875 	mov	b,r7
   0D2E E5*00              2876 	mov	a,_bp
   0D30 24 0C              2877 	add	a,#0x0c
   0D32 F8                 2878 	mov	r0,a
   0D33 12s00r00           2879 	lcall	__gptrget
   0D36 F6                 2880 	mov	@r0,a
   0D37 A3                 2881 	inc	dptr
   0D38 12s00r00           2882 	lcall	__gptrget
   0D3B 08                 2883 	inc	r0
   0D3C F6                 2884 	mov	@r0,a
   0D3D 90s00r00           2885 	mov	dptr,#_uip_conn
   0D40 E0                 2886 	movx	a,@dptr
   0D41 FA                 2887 	mov	r2,a
   0D42 A3                 2888 	inc	dptr
   0D43 E0                 2889 	movx	a,@dptr
   0D44 FB                 2890 	mov	r3,a
   0D45 A3                 2891 	inc	dptr
   0D46 E0                 2892 	movx	a,@dptr
   0D47 FC                 2893 	mov	r4,a
   0D48 74 12              2894 	mov	a,#0x12
   0D4A 2A                 2895 	add	a,r2
   0D4B FA                 2896 	mov	r2,a
   0D4C E4                 2897 	clr	a
   0D4D 3B                 2898 	addc	a,r3
   0D4E FB                 2899 	mov	r3,a
   0D4F 8A 82              2900 	mov	dpl,r2
   0D51 8B 83              2901 	mov	dph,r3
   0D53 8C F0              2902 	mov	b,r4
   0D55 E5*00              2903 	mov	a,_bp
   0D57 24 0E              2904 	add	a,#0x0e
   0D59 F8                 2905 	mov	r0,a
   0D5A 12s00r00           2906 	lcall	__gptrget
   0D5D F6                 2907 	mov	@r0,a
   0D5E A3                 2908 	inc	dptr
   0D5F 12s00r00           2909 	lcall	__gptrget
   0D62 08                 2910 	inc	r0
   0D63 F6                 2911 	mov	@r0,a
   0D64 E5*00              2912 	mov	a,_bp
   0D66 24 04              2913 	add	a,#0x04
   0D68 F8                 2914 	mov	r0,a
   0D69 E5*00              2915 	mov	a,_bp
   0D6B 24 0E              2916 	add	a,#0x0e
   0D6D F9                 2917 	mov	r1,a
   0D6E C3                 2918 	clr	c
   0D6F E7                 2919 	mov	a,@r1
   0D70 96                 2920 	subb	a,@r0
   0D71 09                 2921 	inc	r1
   0D72 E7                 2922 	mov	a,@r1
   0D73 08                 2923 	inc	r0
   0D74 96                 2924 	subb	a,@r0
   0D75 D0 05              2925 	pop	ar5
   0D77 D0 07              2926 	pop	ar7
   0D79 D0 06              2927 	pop	ar6
   0D7B 50 42              2928 	jnc	00108$
                           2929 ;	../../../core/net/psock.c:220: uip_send(s->sendptr, uip_mss());
   0D7D E5*00              2930 	mov	a,_bp
   0D7F 24 09              2931 	add	a,#0x09
   0D81 F8                 2932 	mov	r0,a
   0D82 86 82              2933 	mov	dpl,@r0
   0D84 08                 2934 	inc	r0
   0D85 86 83              2935 	mov	dph,@r0
   0D87 08                 2936 	inc	r0
   0D88 86 F0              2937 	mov	b,@r0
   0D8A 12s00r00           2938 	lcall	__gptrget
   0D8D FA                 2939 	mov	r2,a
   0D8E A3                 2940 	inc	dptr
   0D8F 12s00r00           2941 	lcall	__gptrget
   0D92 FB                 2942 	mov	r3,a
   0D93 A3                 2943 	inc	dptr
   0D94 12s00r00           2944 	lcall	__gptrget
   0D97 FC                 2945 	mov	r4,a
   0D98 C0 05              2946 	push	ar5
   0D9A C0 06              2947 	push	ar6
   0D9C C0 07              2948 	push	ar7
   0D9E E5*00              2949 	mov	a,_bp
   0DA0 24 0E              2950 	add	a,#0x0e
   0DA2 F8                 2951 	mov	r0,a
   0DA3 E6                 2952 	mov	a,@r0
   0DA4 C0 E0              2953 	push	acc
   0DA6 08                 2954 	inc	r0
   0DA7 E6                 2955 	mov	a,@r0
   0DA8 C0 E0              2956 	push	acc
   0DAA 8A 82              2957 	mov	dpl,r2
   0DAC 8B 83              2958 	mov	dph,r3
   0DAE 8C F0              2959 	mov	b,r4
   0DB0 12s00r00           2960 	lcall	_uip_send
   0DB3 15 81              2961 	dec	sp
   0DB5 15 81              2962 	dec	sp
   0DB7 D0 07              2963 	pop	ar7
   0DB9 D0 06              2964 	pop	ar6
   0DBB D0 05              2965 	pop	ar5
   0DBD 80 40              2966 	sjmp	00109$
   0DBF                    2967 00108$:
                           2968 ;	../../../core/net/psock.c:222: uip_send(s->sendptr, s->sendlen);
   0DBF E5*00              2969 	mov	a,_bp
   0DC1 24 09              2970 	add	a,#0x09
   0DC3 F8                 2971 	mov	r0,a
   0DC4 86 82              2972 	mov	dpl,@r0
   0DC6 08                 2973 	inc	r0
   0DC7 86 83              2974 	mov	dph,@r0
   0DC9 08                 2975 	inc	r0
   0DCA 86 F0              2976 	mov	b,@r0
   0DCC 12s00r00           2977 	lcall	__gptrget
   0DCF FA                 2978 	mov	r2,a
   0DD0 A3                 2979 	inc	dptr
   0DD1 12s00r00           2980 	lcall	__gptrget
   0DD4 FB                 2981 	mov	r3,a
   0DD5 A3                 2982 	inc	dptr
   0DD6 12s00r00           2983 	lcall	__gptrget
   0DD9 FC                 2984 	mov	r4,a
   0DDA C0 05              2985 	push	ar5
   0DDC C0 06              2986 	push	ar6
   0DDE C0 07              2987 	push	ar7
   0DE0 E5*00              2988 	mov	a,_bp
   0DE2 24 0C              2989 	add	a,#0x0c
   0DE4 F8                 2990 	mov	r0,a
   0DE5 E6                 2991 	mov	a,@r0
   0DE6 C0 E0              2992 	push	acc
   0DE8 08                 2993 	inc	r0
   0DE9 E6                 2994 	mov	a,@r0
   0DEA C0 E0              2995 	push	acc
   0DEC 8A 82              2996 	mov	dpl,r2
   0DEE 8B 83              2997 	mov	dph,r3
   0DF0 8C F0              2998 	mov	b,r4
   0DF2 12s00r00           2999 	lcall	_uip_send
   0DF5 15 81              3000 	dec	sp
   0DF7 15 81              3001 	dec	sp
   0DF9 D0 07              3002 	pop	ar7
   0DFB D0 06              3003 	pop	ar6
   0DFD D0 05              3004 	pop	ar5
   0DFF                    3005 00109$:
                           3006 ;	../../../core/net/psock.c:224: s->state = STATE_DATA_SENT;
   0DFF E5*00              3007 	mov	a,_bp
   0E01 24 06              3008 	add	a,#0x06
   0E03 F8                 3009 	mov	r0,a
   0E04 86 82              3010 	mov	dpl,@r0
   0E06 08                 3011 	inc	r0
   0E07 86 83              3012 	mov	dph,@r0
   0E09 08                 3013 	inc	r0
   0E0A 86 F0              3014 	mov	b,@r0
   0E0C 74 06              3015 	mov	a,#0x06
   0E0E 12s00r00           3016 	lcall	__gptrput
                           3017 ;	../../../core/net/psock.c:228: PT_YIELD_UNTIL(&s->psockpt, uip_acked() || uip_rexmit());
   0E11 7A 00              3018 	mov	r2,#0x00
   0E13 8E 82              3019 	mov	dpl,r6
   0E15 8F 83              3020 	mov	dph,r7
   0E17 8D F0              3021 	mov	b,r5
   0E19 74 E4              3022 	mov	a,#0xE4
   0E1B 12s00r00           3023 	lcall	__gptrput
   0E1E A3                 3024 	inc	dptr
   0E1F E4                 3025 	clr	a
   0E20 12s00r00           3026 	lcall	__gptrput
   0E23                    3027 00110$:
   0E23 EA                 3028 	mov	a,r2
   0E24 60 0C              3029 	jz	00111$
   0E26 90s00r00           3030 	mov	dptr,#_uip_flags
   0E29 E0                 3031 	movx	a,@dptr
   0E2A FA                 3032 	mov	r2,a
   0E2B 20 E0 09           3033 	jb	acc.0,00116$
   0E2E EA                 3034 	mov	a,r2
   0E2F 20 E2 05           3035 	jb	acc.2,00116$
   0E32                    3036 00111$:
   0E32 75 82 01           3037 	mov	dpl,#0x01
   0E35 80 31              3038 	sjmp	00122$
   0E37                    3039 00116$:
                           3040 ;	../../../core/net/psock.c:229: } while(!uip_acked());
   0E37 EA                 3041 	mov	a,r2
   0E38 20 E0 03           3042 	jb	acc.0,00141$
   0E3B 02s0Cr8B           3043 	ljmp	00118$
   0E3E                    3044 00141$:
                           3045 ;	../../../core/net/psock.c:231: s->state = STATE_NONE;
   0E3E A8*00              3046 	mov	r0,_bp
   0E40 08                 3047 	inc	r0
   0E41 74 18              3048 	mov	a,#0x18
   0E43 26                 3049 	add	a,@r0
   0E44 FA                 3050 	mov	r2,a
   0E45 E4                 3051 	clr	a
   0E46 08                 3052 	inc	r0
   0E47 36                 3053 	addc	a,@r0
   0E48 FB                 3054 	mov	r3,a
   0E49 08                 3055 	inc	r0
   0E4A 86 04              3056 	mov	ar4,@r0
   0E4C 8A 82              3057 	mov	dpl,r2
   0E4E 8B 83              3058 	mov	dph,r3
   0E50 8C F0              3059 	mov	b,r4
   0E52 E4                 3060 	clr	a
   0E53 12s00r00           3061 	lcall	__gptrput
                           3062 ;	../../../core/net/psock.c:233: PT_END(&s->psockpt);
   0E56                    3063 00121$:
   0E56 8E 82              3064 	mov	dpl,r6
   0E58 8F 83              3065 	mov	dph,r7
   0E5A 8D F0              3066 	mov	b,r5
   0E5C E4                 3067 	clr	a
   0E5D 12s00r00           3068 	lcall	__gptrput
   0E60 A3                 3069 	inc	dptr
   0E61 E4                 3070 	clr	a
   0E62 12s00r00           3071 	lcall	__gptrput
   0E65 75 82 03           3072 	mov	dpl,#0x03
   0E68                    3073 00122$:
   0E68 85*00 81           3074 	mov	sp,_bp
   0E6B D0*00              3075 	pop	_bp
   0E6D 22                 3076 	ret
                           3077 ;------------------------------------------------------------
                           3078 ;Allocation info for local variables in function 'psock_datalen'
                           3079 ;------------------------------------------------------------
                           3080 ;psock                     Allocated to registers r2 r3 r4 
                           3081 ;------------------------------------------------------------
                           3082 ;	../../../core/net/psock.c:237: psock_datalen(struct psock *psock)
                           3083 ;	-----------------------------------------
                           3084 ;	 function psock_datalen
                           3085 ;	-----------------------------------------
   0E6E                    3086 _psock_datalen:
   0E6E AA 82              3087 	mov	r2,dpl
   0E70 AB 83              3088 	mov	r3,dph
   0E72 AC F0              3089 	mov	r4,b
                           3090 ;	../../../core/net/psock.c:239: return psock->bufsize - psock->buf.left;
   0E74 74 16              3091 	mov	a,#0x16
   0E76 2A                 3092 	add	a,r2
   0E77 FD                 3093 	mov	r5,a
   0E78 E4                 3094 	clr	a
   0E79 3B                 3095 	addc	a,r3
   0E7A FE                 3096 	mov	r6,a
   0E7B 8C 07              3097 	mov	ar7,r4
   0E7D 8D 82              3098 	mov	dpl,r5
   0E7F 8E 83              3099 	mov	dph,r6
   0E81 8F F0              3100 	mov	b,r7
   0E83 12s00r00           3101 	lcall	__gptrget
   0E86 FD                 3102 	mov	r5,a
   0E87 A3                 3103 	inc	dptr
   0E88 12s00r00           3104 	lcall	__gptrget
   0E8B FE                 3105 	mov	r6,a
   0E8C 74 11              3106 	mov	a,#0x11
   0E8E 2A                 3107 	add	a,r2
   0E8F FA                 3108 	mov	r2,a
   0E90 E4                 3109 	clr	a
   0E91 3B                 3110 	addc	a,r3
   0E92 FB                 3111 	mov	r3,a
   0E93 74 03              3112 	mov	a,#0x03
   0E95 2A                 3113 	add	a,r2
   0E96 FA                 3114 	mov	r2,a
   0E97 E4                 3115 	clr	a
   0E98 3B                 3116 	addc	a,r3
   0E99 FB                 3117 	mov	r3,a
   0E9A 8A 82              3118 	mov	dpl,r2
   0E9C 8B 83              3119 	mov	dph,r3
   0E9E 8C F0              3120 	mov	b,r4
   0EA0 12s00r00           3121 	lcall	__gptrget
   0EA3 FA                 3122 	mov	r2,a
   0EA4 A3                 3123 	inc	dptr
   0EA5 12s00r00           3124 	lcall	__gptrget
   0EA8 FB                 3125 	mov	r3,a
   0EA9 ED                 3126 	mov	a,r5
   0EAA C3                 3127 	clr	c
   0EAB 9A                 3128 	subb	a,r2
   0EAC FD                 3129 	mov	r5,a
   0EAD EE                 3130 	mov	a,r6
   0EAE 9B                 3131 	subb	a,r3
   0EAF 8D 82              3132 	mov	dpl,r5
   0EB1 F5 83              3133 	mov	dph,a
   0EB3 22                 3134 	ret
                           3135 ;------------------------------------------------------------
                           3136 ;Allocation info for local variables in function 'psock_newdata'
                           3137 ;------------------------------------------------------------
                           3138 ;s                         Allocated to registers r2 r3 r4 
                           3139 ;------------------------------------------------------------
                           3140 ;	../../../core/net/psock.c:243: psock_newdata(struct psock *s)
                           3141 ;	-----------------------------------------
                           3142 ;	 function psock_newdata
                           3143 ;	-----------------------------------------
   0EB4                    3144 _psock_newdata:
   0EB4 AA 82              3145 	mov	r2,dpl
   0EB6 AB 83              3146 	mov	r3,dph
   0EB8 AC F0              3147 	mov	r4,b
                           3148 ;	../../../core/net/psock.c:245: if(s->readlen > 0) {
   0EBA 74 0F              3149 	mov	a,#0x0F
   0EBC 2A                 3150 	add	a,r2
   0EBD FD                 3151 	mov	r5,a
   0EBE E4                 3152 	clr	a
   0EBF 3B                 3153 	addc	a,r3
   0EC0 FE                 3154 	mov	r6,a
   0EC1 8C 07              3155 	mov	ar7,r4
   0EC3 8D 82              3156 	mov	dpl,r5
   0EC5 8E 83              3157 	mov	dph,r6
   0EC7 8F F0              3158 	mov	b,r7
   0EC9 12s00r00           3159 	lcall	__gptrget
   0ECC FD                 3160 	mov	r5,a
   0ECD A3                 3161 	inc	dptr
   0ECE 12s00r00           3162 	lcall	__gptrget
   0ED1 FE                 3163 	mov	r6,a
   0ED2 4D                 3164 	orl	a,r5
   0ED3 60 04              3165 	jz	00108$
                           3166 ;	../../../core/net/psock.c:248: return 1;
   0ED5 75 82 01           3167 	mov	dpl,#0x01
   0ED8 22                 3168 	ret
   0ED9                    3169 00108$:
                           3170 ;	../../../core/net/psock.c:249: } else if(s->state == STATE_READ) {
   0ED9 74 18              3171 	mov	a,#0x18
   0EDB 2A                 3172 	add	a,r2
   0EDC FA                 3173 	mov	r2,a
   0EDD E4                 3174 	clr	a
   0EDE 3B                 3175 	addc	a,r3
   0EDF FB                 3176 	mov	r3,a
   0EE0 8A 82              3177 	mov	dpl,r2
   0EE2 8B 83              3178 	mov	dph,r3
   0EE4 8C F0              3179 	mov	b,r4
   0EE6 12s00r00           3180 	lcall	__gptrget
   0EE9 FD                 3181 	mov	r5,a
   0EEA BD 02 0F           3182 	cjne	r5,#0x02,00105$
                           3183 ;	../../../core/net/psock.c:251: s->state = STATE_BLOCKED_NEWDATA;
   0EED 8A 82              3184 	mov	dpl,r2
   0EEF 8B 83              3185 	mov	dph,r3
   0EF1 8C F0              3186 	mov	b,r4
   0EF3 74 03              3187 	mov	a,#0x03
   0EF5 12s00r00           3188 	lcall	__gptrput
                           3189 ;	../../../core/net/psock.c:252: return 0;
   0EF8 75 82 00           3190 	mov	dpl,#0x00
   0EFB 22                 3191 	ret
   0EFC                    3192 00105$:
                           3193 ;	../../../core/net/psock.c:253: } else if(uip_newdata()) {
   0EFC 90s00r00           3194 	mov	dptr,#_uip_flags
   0EFF E0                 3195 	movx	a,@dptr
   0F00 FA                 3196 	mov	r2,a
   0F01 30 E1 04           3197 	jnb	acc.1,00102$
                           3198 ;	../../../core/net/psock.c:255: return 1;
   0F04 75 82 01           3199 	mov	dpl,#0x01
                           3200 ;	../../../core/net/psock.c:258: return 0;
   0F07 22                 3201 	ret
   0F08                    3202 00102$:
   0F08 75 82 00           3203 	mov	dpl,#0x00
   0F0B 22                 3204 	ret
                           3205 ;------------------------------------------------------------
                           3206 ;Allocation info for local variables in function 'psock_readto'
                           3207 ;------------------------------------------------------------
                           3208 ;c                         Allocated to stack - offset -3
                           3209 ;psock                     Allocated to stack - offset 1
                           3210 ;PT_YIELD_FLAG             Allocated to registers 
                           3211 ;sloc0                     Allocated to stack - offset 4
                           3212 ;sloc1                     Allocated to stack - offset 6
                           3213 ;------------------------------------------------------------
                           3214 ;	../../../core/net/psock.c:262: PT_THREAD(psock_readto(CC_REGISTER_ARG struct psock *psock, unsigned char c))
                           3215 ;	-----------------------------------------
                           3216 ;	 function psock_readto
                           3217 ;	-----------------------------------------
   0F0C                    3218 _psock_readto:
   0F0C C0*00              3219 	push	_bp
   0F0E 85 81*00           3220 	mov	_bp,sp
   0F11 C0 82              3221 	push	dpl
   0F13 C0 83              3222 	push	dph
   0F15 C0 F0              3223 	push	b
   0F17 E5 81              3224 	mov	a,sp
   0F19 24 08              3225 	add	a,#0x08
   0F1B F5 81              3226 	mov	sp,a
                           3227 ;	../../../core/net/psock.c:264: PT_BEGIN(&psock->psockpt);
   0F1D A8*00              3228 	mov	r0,_bp
   0F1F 08                 3229 	inc	r0
   0F20 74 02              3230 	mov	a,#0x02
   0F22 26                 3231 	add	a,@r0
   0F23 FD                 3232 	mov	r5,a
   0F24 E4                 3233 	clr	a
   0F25 08                 3234 	inc	r0
   0F26 36                 3235 	addc	a,@r0
   0F27 FE                 3236 	mov	r6,a
   0F28 08                 3237 	inc	r0
   0F29 86 07              3238 	mov	ar7,@r0
   0F2B 8D 82              3239 	mov	dpl,r5
   0F2D 8E 83              3240 	mov	dph,r6
   0F2F 8F F0              3241 	mov	b,r7
   0F31 12s00r00           3242 	lcall	__gptrget
   0F34 FD                 3243 	mov	r5,a
   0F35 A3                 3244 	inc	dptr
   0F36 12s00r00           3245 	lcall	__gptrget
   0F39 FE                 3246 	mov	r6,a
   0F3A BD 00 05           3247 	cjne	r5,#0x00,00128$
   0F3D BE 00 02           3248 	cjne	r6,#0x00,00128$
   0F40 80 0C              3249 	sjmp	00101$
   0F42                    3250 00128$:
   0F42 BD 11 06           3251 	cjne	r5,#0x11,00129$
   0F45 BE 01 03           3252 	cjne	r6,#0x01,00129$
   0F48 02s10r04           3253 	ljmp	00102$
   0F4B                    3254 00129$:
   0F4B 02s11r3E           3255 	ljmp	00118$
   0F4E                    3256 00101$:
                           3257 ;	../../../core/net/psock.c:266: buf_setup(&psock->buf, psock->bufptr, psock->bufsize);
   0F4E A8*00              3258 	mov	r0,_bp
   0F50 08                 3259 	inc	r0
   0F51 74 16              3260 	mov	a,#0x16
   0F53 26                 3261 	add	a,@r0
   0F54 FD                 3262 	mov	r5,a
   0F55 E4                 3263 	clr	a
   0F56 08                 3264 	inc	r0
   0F57 36                 3265 	addc	a,@r0
   0F58 FE                 3266 	mov	r6,a
   0F59 08                 3267 	inc	r0
   0F5A 86 07              3268 	mov	ar7,@r0
   0F5C 8D 82              3269 	mov	dpl,r5
   0F5E 8E 83              3270 	mov	dph,r6
   0F60 8F F0              3271 	mov	b,r7
   0F62 E5*00              3272 	mov	a,_bp
   0F64 24 04              3273 	add	a,#0x04
   0F66 F8                 3274 	mov	r0,a
   0F67 12s00r00           3275 	lcall	__gptrget
   0F6A F6                 3276 	mov	@r0,a
   0F6B A3                 3277 	inc	dptr
   0F6C 12s00r00           3278 	lcall	__gptrget
   0F6F 08                 3279 	inc	r0
   0F70 F6                 3280 	mov	@r0,a
   0F71 A8*00              3281 	mov	r0,_bp
   0F73 08                 3282 	inc	r0
   0F74 74 0A              3283 	mov	a,#0x0A
   0F76 26                 3284 	add	a,@r0
   0F77 FF                 3285 	mov	r7,a
   0F78 E4                 3286 	clr	a
   0F79 08                 3287 	inc	r0
   0F7A 36                 3288 	addc	a,@r0
   0F7B FA                 3289 	mov	r2,a
   0F7C 08                 3290 	inc	r0
   0F7D 86 03              3291 	mov	ar3,@r0
   0F7F 8F 82              3292 	mov	dpl,r7
   0F81 8A 83              3293 	mov	dph,r2
   0F83 8B F0              3294 	mov	b,r3
   0F85 12s00r00           3295 	lcall	__gptrget
   0F88 FF                 3296 	mov	r7,a
   0F89 A3                 3297 	inc	dptr
   0F8A 12s00r00           3298 	lcall	__gptrget
   0F8D FA                 3299 	mov	r2,a
   0F8E A3                 3300 	inc	dptr
   0F8F 12s00r00           3301 	lcall	__gptrget
   0F92 FB                 3302 	mov	r3,a
   0F93 A8*00              3303 	mov	r0,_bp
   0F95 08                 3304 	inc	r0
   0F96 74 11              3305 	mov	a,#0x11
   0F98 26                 3306 	add	a,@r0
   0F99 FC                 3307 	mov	r4,a
   0F9A E4                 3308 	clr	a
   0F9B 08                 3309 	inc	r0
   0F9C 36                 3310 	addc	a,@r0
   0F9D FD                 3311 	mov	r5,a
   0F9E 08                 3312 	inc	r0
   0F9F 86 06              3313 	mov	ar6,@r0
   0FA1 E5*00              3314 	mov	a,_bp
   0FA3 24 04              3315 	add	a,#0x04
   0FA5 F8                 3316 	mov	r0,a
   0FA6 E6                 3317 	mov	a,@r0
   0FA7 C0 E0              3318 	push	acc
   0FA9 08                 3319 	inc	r0
   0FAA E6                 3320 	mov	a,@r0
   0FAB C0 E0              3321 	push	acc
   0FAD C0 07              3322 	push	ar7
   0FAF C0 02              3323 	push	ar2
   0FB1 C0 03              3324 	push	ar3
   0FB3 8C 82              3325 	mov	dpl,r4
   0FB5 8D 83              3326 	mov	dph,r5
   0FB7 8E F0              3327 	mov	b,r6
   0FB9 12s00r00           3328 	lcall	_buf_setup
   0FBC E5 81              3329 	mov	a,sp
   0FBE 24 FB              3330 	add	a,#0xfb
   0FC0 F5 81              3331 	mov	sp,a
                           3332 ;	../../../core/net/psock.c:271: do {
   0FC2                    3333 00110$:
                           3334 ;	../../../core/net/psock.c:272: if(psock->readlen == 0) {
   0FC2 A8*00              3335 	mov	r0,_bp
   0FC4 08                 3336 	inc	r0
   0FC5 74 0F              3337 	mov	a,#0x0F
   0FC7 26                 3338 	add	a,@r0
   0FC8 FA                 3339 	mov	r2,a
   0FC9 E4                 3340 	clr	a
   0FCA 08                 3341 	inc	r0
   0FCB 36                 3342 	addc	a,@r0
   0FCC FB                 3343 	mov	r3,a
   0FCD 08                 3344 	inc	r0
   0FCE 86 04              3345 	mov	ar4,@r0
   0FD0 8A 82              3346 	mov	dpl,r2
   0FD2 8B 83              3347 	mov	dph,r3
   0FD4 8C F0              3348 	mov	b,r4
   0FD6 12s00r00           3349 	lcall	__gptrget
   0FD9 FA                 3350 	mov	r2,a
   0FDA A3                 3351 	inc	dptr
   0FDB 12s00r00           3352 	lcall	__gptrget
   0FDE FB                 3353 	mov	r3,a
   0FDF 4A                 3354 	orl	a,r2
   0FE0 60 03              3355 	jz	00130$
   0FE2 02s10r86           3356 	ljmp	00111$
   0FE5                    3357 00130$:
                           3358 ;	../../../core/net/psock.c:273: PT_WAIT_UNTIL(&psock->psockpt, psock_newdata(psock));
   0FE5 A8*00              3359 	mov	r0,_bp
   0FE7 08                 3360 	inc	r0
   0FE8 74 02              3361 	mov	a,#0x02
   0FEA 26                 3362 	add	a,@r0
   0FEB FA                 3363 	mov	r2,a
   0FEC E4                 3364 	clr	a
   0FED 08                 3365 	inc	r0
   0FEE 36                 3366 	addc	a,@r0
   0FEF FB                 3367 	mov	r3,a
   0FF0 08                 3368 	inc	r0
   0FF1 86 04              3369 	mov	ar4,@r0
   0FF3 8A 82              3370 	mov	dpl,r2
   0FF5 8B 83              3371 	mov	dph,r3
   0FF7 8C F0              3372 	mov	b,r4
   0FF9 74 11              3373 	mov	a,#0x11
   0FFB 12s00r00           3374 	lcall	__gptrput
   0FFE A3                 3375 	inc	dptr
   0FFF 74 01              3376 	mov	a,#0x01
   1001 12s00r00           3377 	lcall	__gptrput
   1004                    3378 00102$:
   1004 A8*00              3379 	mov	r0,_bp
   1006 08                 3380 	inc	r0
   1007 86 82              3381 	mov	dpl,@r0
   1009 08                 3382 	inc	r0
   100A 86 83              3383 	mov	dph,@r0
   100C 08                 3384 	inc	r0
   100D 86 F0              3385 	mov	b,@r0
   100F 12s0ErB4           3386 	lcall	_psock_newdata
   1012 E5 82              3387 	mov	a,dpl
   1014 70 05              3388 	jnz	00106$
   1016 F5 82              3389 	mov	dpl,a
   1018 02s11r5E           3390 	ljmp	00119$
   101B                    3391 00106$:
                           3392 ;	../../../core/net/psock.c:274: psock->state = STATE_READ;
   101B A8*00              3393 	mov	r0,_bp
   101D 08                 3394 	inc	r0
   101E 74 18              3395 	mov	a,#0x18
   1020 26                 3396 	add	a,@r0
   1021 FA                 3397 	mov	r2,a
   1022 E4                 3398 	clr	a
   1023 08                 3399 	inc	r0
   1024 36                 3400 	addc	a,@r0
   1025 FB                 3401 	mov	r3,a
   1026 08                 3402 	inc	r0
   1027 86 04              3403 	mov	ar4,@r0
   1029 8A 82              3404 	mov	dpl,r2
   102B 8B 83              3405 	mov	dph,r3
   102D 8C F0              3406 	mov	b,r4
   102F 74 02              3407 	mov	a,#0x02
   1031 12s00r00           3408 	lcall	__gptrput
                           3409 ;	../../../core/net/psock.c:275: psock->readptr = (u8_t *)uip_appdata;
   1034 A8*00              3410 	mov	r0,_bp
   1036 08                 3411 	inc	r0
   1037 74 07              3412 	mov	a,#0x07
   1039 26                 3413 	add	a,@r0
   103A FA                 3414 	mov	r2,a
   103B E4                 3415 	clr	a
   103C 08                 3416 	inc	r0
   103D 36                 3417 	addc	a,@r0
   103E FB                 3418 	mov	r3,a
   103F 08                 3419 	inc	r0
   1040 86 04              3420 	mov	ar4,@r0
   1042 90s00r00           3421 	mov	dptr,#_uip_appdata
   1045 E0                 3422 	movx	a,@dptr
   1046 FD                 3423 	mov	r5,a
   1047 A3                 3424 	inc	dptr
   1048 E0                 3425 	movx	a,@dptr
   1049 FE                 3426 	mov	r6,a
   104A A3                 3427 	inc	dptr
   104B E0                 3428 	movx	a,@dptr
   104C FF                 3429 	mov	r7,a
   104D 8A 82              3430 	mov	dpl,r2
   104F 8B 83              3431 	mov	dph,r3
   1051 8C F0              3432 	mov	b,r4
   1053 ED                 3433 	mov	a,r5
   1054 12s00r00           3434 	lcall	__gptrput
   1057 A3                 3435 	inc	dptr
   1058 EE                 3436 	mov	a,r6
   1059 12s00r00           3437 	lcall	__gptrput
   105C A3                 3438 	inc	dptr
   105D EF                 3439 	mov	a,r7
   105E 12s00r00           3440 	lcall	__gptrput
                           3441 ;	../../../core/net/psock.c:276: psock->readlen = uip_datalen();
   1061 A8*00              3442 	mov	r0,_bp
   1063 08                 3443 	inc	r0
   1064 74 0F              3444 	mov	a,#0x0F
   1066 26                 3445 	add	a,@r0
   1067 FA                 3446 	mov	r2,a
   1068 E4                 3447 	clr	a
   1069 08                 3448 	inc	r0
   106A 36                 3449 	addc	a,@r0
   106B FB                 3450 	mov	r3,a
   106C 08                 3451 	inc	r0
   106D 86 04              3452 	mov	ar4,@r0
   106F 90s00r00           3453 	mov	dptr,#_uip_len
   1072 E0                 3454 	movx	a,@dptr
   1073 FD                 3455 	mov	r5,a
   1074 A3                 3456 	inc	dptr
   1075 E0                 3457 	movx	a,@dptr
   1076 FE                 3458 	mov	r6,a
   1077 8A 82              3459 	mov	dpl,r2
   1079 8B 83              3460 	mov	dph,r3
   107B 8C F0              3461 	mov	b,r4
   107D ED                 3462 	mov	a,r5
   107E 12s00r00           3463 	lcall	__gptrput
   1081 A3                 3464 	inc	dptr
   1082 EE                 3465 	mov	a,r6
   1083 12s00r00           3466 	lcall	__gptrput
   1086                    3467 00111$:
                           3468 ;	../../../core/net/psock.c:280: &psock->readlen) & BUF_FOUND) == 0);
   1086 A8*00              3469 	mov	r0,_bp
   1088 08                 3470 	inc	r0
   1089 74 0F              3471 	mov	a,#0x0F
   108B 26                 3472 	add	a,@r0
   108C FA                 3473 	mov	r2,a
   108D E4                 3474 	clr	a
   108E 08                 3475 	inc	r0
   108F 36                 3476 	addc	a,@r0
   1090 FB                 3477 	mov	r3,a
   1091 08                 3478 	inc	r0
   1092 86 04              3479 	mov	ar4,@r0
                           3480 ;	../../../core/net/psock.c:279: &psock->readptr,
   1094 A8*00              3481 	mov	r0,_bp
   1096 08                 3482 	inc	r0
   1097 E5*00              3483 	mov	a,_bp
   1099 24 06              3484 	add	a,#0x06
   109B F9                 3485 	mov	r1,a
   109C 74 07              3486 	mov	a,#0x07
   109E 26                 3487 	add	a,@r0
   109F F7                 3488 	mov	@r1,a
   10A0 E4                 3489 	clr	a
   10A1 08                 3490 	inc	r0
   10A2 36                 3491 	addc	a,@r0
   10A3 09                 3492 	inc	r1
   10A4 F7                 3493 	mov	@r1,a
   10A5 08                 3494 	inc	r0
   10A6 09                 3495 	inc	r1
   10A7 E6                 3496 	mov	a,@r0
   10A8 F7                 3497 	mov	@r1,a
                           3498 ;	../../../core/net/psock.c:278: } while((buf_bufto(&psock->buf, c,
   10A9 A8*00              3499 	mov	r0,_bp
   10AB 08                 3500 	inc	r0
   10AC 74 11              3501 	mov	a,#0x11
   10AE 26                 3502 	add	a,@r0
   10AF FD                 3503 	mov	r5,a
   10B0 E4                 3504 	clr	a
   10B1 08                 3505 	inc	r0
   10B2 36                 3506 	addc	a,@r0
   10B3 FE                 3507 	mov	r6,a
   10B4 08                 3508 	inc	r0
   10B5 86 07              3509 	mov	ar7,@r0
   10B7 C0 02              3510 	push	ar2
   10B9 C0 03              3511 	push	ar3
   10BB C0 04              3512 	push	ar4
   10BD E5*00              3513 	mov	a,_bp
   10BF 24 06              3514 	add	a,#0x06
   10C1 F8                 3515 	mov	r0,a
   10C2 E6                 3516 	mov	a,@r0
   10C3 C0 E0              3517 	push	acc
   10C5 08                 3518 	inc	r0
   10C6 E6                 3519 	mov	a,@r0
   10C7 C0 E0              3520 	push	acc
   10C9 08                 3521 	inc	r0
   10CA E6                 3522 	mov	a,@r0
   10CB C0 E0              3523 	push	acc
   10CD E5*00              3524 	mov	a,_bp
   10CF 24 FD              3525 	add	a,#0xfd
   10D1 F8                 3526 	mov	r0,a
   10D2 E6                 3527 	mov	a,@r0
   10D3 C0 E0              3528 	push	acc
   10D5 8D 82              3529 	mov	dpl,r5
   10D7 8E 83              3530 	mov	dph,r6
   10D9 8F F0              3531 	mov	b,r7
   10DB 12s04rF1           3532 	lcall	_buf_bufto
   10DE AA 82              3533 	mov	r2,dpl
   10E0 E5 81              3534 	mov	a,sp
   10E2 24 F9              3535 	add	a,#0xf9
   10E4 F5 81              3536 	mov	sp,a
   10E6 EA                 3537 	mov	a,r2
   10E7 20 E1 03           3538 	jb	acc.1,00132$
   10EA 02s0FrC2           3539 	ljmp	00110$
   10ED                    3540 00132$:
                           3541 ;	../../../core/net/psock.c:282: if(psock_datalen(psock) == 0) {
   10ED A8*00              3542 	mov	r0,_bp
   10EF 08                 3543 	inc	r0
   10F0 86 82              3544 	mov	dpl,@r0
   10F2 08                 3545 	inc	r0
   10F3 86 83              3546 	mov	dph,@r0
   10F5 08                 3547 	inc	r0
   10F6 86 F0              3548 	mov	b,@r0
   10F8 12s0Er6E           3549 	lcall	_psock_datalen
   10FB E5 82              3550 	mov	a,dpl
   10FD 85 83 F0           3551 	mov	b,dph
   1100 45 F0              3552 	orl	a,b
   1102 70 3A              3553 	jnz	00118$
                           3554 ;	../../../core/net/psock.c:283: psock->state = STATE_NONE;
   1104 A8*00              3555 	mov	r0,_bp
   1106 08                 3556 	inc	r0
   1107 74 18              3557 	mov	a,#0x18
   1109 26                 3558 	add	a,@r0
   110A FA                 3559 	mov	r2,a
   110B E4                 3560 	clr	a
   110C 08                 3561 	inc	r0
   110D 36                 3562 	addc	a,@r0
   110E FB                 3563 	mov	r3,a
   110F 08                 3564 	inc	r0
   1110 86 04              3565 	mov	ar4,@r0
   1112 8A 82              3566 	mov	dpl,r2
   1114 8B 83              3567 	mov	dph,r3
   1116 8C F0              3568 	mov	b,r4
   1118 E4                 3569 	clr	a
   1119 12s00r00           3570 	lcall	__gptrput
                           3571 ;	../../../core/net/psock.c:284: PT_RESTART(&psock->psockpt);
   111C A8*00              3572 	mov	r0,_bp
   111E 08                 3573 	inc	r0
   111F 74 02              3574 	mov	a,#0x02
   1121 26                 3575 	add	a,@r0
   1122 FA                 3576 	mov	r2,a
   1123 E4                 3577 	clr	a
   1124 08                 3578 	inc	r0
   1125 36                 3579 	addc	a,@r0
   1126 FB                 3580 	mov	r3,a
   1127 08                 3581 	inc	r0
   1128 86 04              3582 	mov	ar4,@r0
   112A 8A 82              3583 	mov	dpl,r2
   112C 8B 83              3584 	mov	dph,r3
   112E 8C F0              3585 	mov	b,r4
   1130 E4                 3586 	clr	a
   1131 12s00r00           3587 	lcall	__gptrput
   1134 A3                 3588 	inc	dptr
   1135 E4                 3589 	clr	a
   1136 12s00r00           3590 	lcall	__gptrput
   1139 75 82 00           3591 	mov	dpl,#0x00
                           3592 ;	../../../core/net/psock.c:286: PT_END(&psock->psockpt);
   113C 80 20              3593 	sjmp	00119$
   113E                    3594 00118$:
   113E A8*00              3595 	mov	r0,_bp
   1140 08                 3596 	inc	r0
   1141 74 02              3597 	mov	a,#0x02
   1143 26                 3598 	add	a,@r0
   1144 FA                 3599 	mov	r2,a
   1145 E4                 3600 	clr	a
   1146 08                 3601 	inc	r0
   1147 36                 3602 	addc	a,@r0
   1148 FB                 3603 	mov	r3,a
   1149 08                 3604 	inc	r0
   114A 86 04              3605 	mov	ar4,@r0
   114C 8A 82              3606 	mov	dpl,r2
   114E 8B 83              3607 	mov	dph,r3
   1150 8C F0              3608 	mov	b,r4
   1152 E4                 3609 	clr	a
   1153 12s00r00           3610 	lcall	__gptrput
   1156 A3                 3611 	inc	dptr
   1157 E4                 3612 	clr	a
   1158 12s00r00           3613 	lcall	__gptrput
   115B 75 82 03           3614 	mov	dpl,#0x03
   115E                    3615 00119$:
   115E 85*00 81           3616 	mov	sp,_bp
   1161 D0*00              3617 	pop	_bp
   1163 22                 3618 	ret
                           3619 ;------------------------------------------------------------
                           3620 ;Allocation info for local variables in function 'psock_readbuf'
                           3621 ;------------------------------------------------------------
                           3622 ;psock                     Allocated to stack - offset 1
                           3623 ;PT_YIELD_FLAG             Allocated to registers 
                           3624 ;sloc0                     Allocated to stack - offset 5
                           3625 ;sloc1                     Allocated to stack - offset 4
                           3626 ;sloc2                     Allocated to stack - offset 7
                           3627 ;------------------------------------------------------------
                           3628 ;	../../../core/net/psock.c:289: PT_THREAD(psock_readbuf(CC_REGISTER_ARG struct psock *psock))
                           3629 ;	-----------------------------------------
                           3630 ;	 function psock_readbuf
                           3631 ;	-----------------------------------------
   1164                    3632 _psock_readbuf:
   1164 C0*00              3633 	push	_bp
   1166 85 81*00           3634 	mov	_bp,sp
   1169 C0 82              3635 	push	dpl
   116B C0 83              3636 	push	dph
   116D C0 F0              3637 	push	b
   116F E5 81              3638 	mov	a,sp
   1171 24 08              3639 	add	a,#0x08
   1173 F5 81              3640 	mov	sp,a
                           3641 ;	../../../core/net/psock.c:291: PT_BEGIN(&psock->psockpt);
   1175 A8*00              3642 	mov	r0,_bp
   1177 08                 3643 	inc	r0
   1178 74 02              3644 	mov	a,#0x02
   117A 26                 3645 	add	a,@r0
   117B FD                 3646 	mov	r5,a
   117C E4                 3647 	clr	a
   117D 08                 3648 	inc	r0
   117E 36                 3649 	addc	a,@r0
   117F FE                 3650 	mov	r6,a
   1180 08                 3651 	inc	r0
   1181 86 07              3652 	mov	ar7,@r0
   1183 8D 82              3653 	mov	dpl,r5
   1185 8E 83              3654 	mov	dph,r6
   1187 8F F0              3655 	mov	b,r7
   1189 12s00r00           3656 	lcall	__gptrget
   118C FA                 3657 	mov	r2,a
   118D A3                 3658 	inc	dptr
   118E 12s00r00           3659 	lcall	__gptrget
   1191 FB                 3660 	mov	r3,a
   1192 BA 00 05           3661 	cjne	r2,#0x00,00123$
   1195 BB 00 02           3662 	cjne	r3,#0x00,00123$
   1198 80 0C              3663 	sjmp	00101$
   119A                    3664 00123$:
   119A BA 2B 06           3665 	cjne	r2,#0x2B,00124$
   119D BB 01 03           3666 	cjne	r3,#0x01,00124$
   11A0 02s12r67           3667 	ljmp	00102$
   11A3                    3668 00124$:
   11A3 02s13rBF           3669 	ljmp	00115$
   11A6                    3670 00101$:
                           3671 ;	../../../core/net/psock.c:293: buf_setup(&psock->buf, psock->bufptr, psock->bufsize);
   11A6 C0 05              3672 	push	ar5
   11A8 C0 06              3673 	push	ar6
   11AA C0 07              3674 	push	ar7
   11AC A8*00              3675 	mov	r0,_bp
   11AE 08                 3676 	inc	r0
   11AF 74 16              3677 	mov	a,#0x16
   11B1 26                 3678 	add	a,@r0
   11B2 FA                 3679 	mov	r2,a
   11B3 E4                 3680 	clr	a
   11B4 08                 3681 	inc	r0
   11B5 36                 3682 	addc	a,@r0
   11B6 FB                 3683 	mov	r3,a
   11B7 08                 3684 	inc	r0
   11B8 86 04              3685 	mov	ar4,@r0
   11BA 8A 82              3686 	mov	dpl,r2
   11BC 8B 83              3687 	mov	dph,r3
   11BE 8C F0              3688 	mov	b,r4
   11C0 E5*00              3689 	mov	a,_bp
   11C2 24 07              3690 	add	a,#0x07
   11C4 F8                 3691 	mov	r0,a
   11C5 12s00r00           3692 	lcall	__gptrget
   11C8 F6                 3693 	mov	@r0,a
   11C9 A3                 3694 	inc	dptr
   11CA 12s00r00           3695 	lcall	__gptrget
   11CD 08                 3696 	inc	r0
   11CE F6                 3697 	mov	@r0,a
   11CF A8*00              3698 	mov	r0,_bp
   11D1 08                 3699 	inc	r0
   11D2 74 0A              3700 	mov	a,#0x0A
   11D4 26                 3701 	add	a,@r0
   11D5 FD                 3702 	mov	r5,a
   11D6 E4                 3703 	clr	a
   11D7 08                 3704 	inc	r0
   11D8 36                 3705 	addc	a,@r0
   11D9 FE                 3706 	mov	r6,a
   11DA 08                 3707 	inc	r0
   11DB 86 07              3708 	mov	ar7,@r0
   11DD 8D 82              3709 	mov	dpl,r5
   11DF 8E 83              3710 	mov	dph,r6
   11E1 8F F0              3711 	mov	b,r7
   11E3 12s00r00           3712 	lcall	__gptrget
   11E6 FD                 3713 	mov	r5,a
   11E7 A3                 3714 	inc	dptr
   11E8 12s00r00           3715 	lcall	__gptrget
   11EB FE                 3716 	mov	r6,a
   11EC A3                 3717 	inc	dptr
   11ED 12s00r00           3718 	lcall	__gptrget
   11F0 FF                 3719 	mov	r7,a
   11F1 A8*00              3720 	mov	r0,_bp
   11F3 08                 3721 	inc	r0
   11F4 74 11              3722 	mov	a,#0x11
   11F6 26                 3723 	add	a,@r0
   11F7 FA                 3724 	mov	r2,a
   11F8 E4                 3725 	clr	a
   11F9 08                 3726 	inc	r0
   11FA 36                 3727 	addc	a,@r0
   11FB FB                 3728 	mov	r3,a
   11FC 08                 3729 	inc	r0
   11FD 86 04              3730 	mov	ar4,@r0
   11FF C0 05              3731 	push	ar5
   1201 C0 06              3732 	push	ar6
   1203 C0 07              3733 	push	ar7
   1205 E5*00              3734 	mov	a,_bp
   1207 24 07              3735 	add	a,#0x07
   1209 F8                 3736 	mov	r0,a
   120A E6                 3737 	mov	a,@r0
   120B C0 E0              3738 	push	acc
   120D 08                 3739 	inc	r0
   120E E6                 3740 	mov	a,@r0
   120F C0 E0              3741 	push	acc
   1211 C0 05              3742 	push	ar5
   1213 C0 06              3743 	push	ar6
   1215 C0 07              3744 	push	ar7
   1217 8A 82              3745 	mov	dpl,r2
   1219 8B 83              3746 	mov	dph,r3
   121B 8C F0              3747 	mov	b,r4
   121D 12s00r00           3748 	lcall	_buf_setup
   1220 E5 81              3749 	mov	a,sp
   1222 24 FB              3750 	add	a,#0xfb
   1224 F5 81              3751 	mov	sp,a
   1226 D0 07              3752 	pop	ar7
   1228 D0 06              3753 	pop	ar6
   122A D0 05              3754 	pop	ar5
                           3755 ;	../../../core/net/psock.c:298: if(psock->readlen == 0) {
   122C A8*00              3756 	mov	r0,_bp
   122E 08                 3757 	inc	r0
   122F 74 0F              3758 	mov	a,#0x0F
   1231 26                 3759 	add	a,@r0
   1232 FA                 3760 	mov	r2,a
   1233 E4                 3761 	clr	a
   1234 08                 3762 	inc	r0
   1235 36                 3763 	addc	a,@r0
   1236 FB                 3764 	mov	r3,a
   1237 08                 3765 	inc	r0
   1238 86 04              3766 	mov	ar4,@r0
   123A 8A 82              3767 	mov	dpl,r2
   123C 8B 83              3768 	mov	dph,r3
   123E 8C F0              3769 	mov	b,r4
   1240 12s00r00           3770 	lcall	__gptrget
   1243 FA                 3771 	mov	r2,a
   1244 A3                 3772 	inc	dptr
   1245 12s00r00           3773 	lcall	__gptrget
   1248 FB                 3774 	mov	r3,a
   1249 D0 07              3775 	pop	ar7
   124B D0 06              3776 	pop	ar6
   124D D0 05              3777 	pop	ar5
   124F EA                 3778 	mov	a,r2
   1250 4B                 3779 	orl	a,r3
   1251 60 03              3780 	jz	00125$
   1253 02s12rE9           3781 	ljmp	00109$
   1256                    3782 00125$:
                           3783 ;	../../../core/net/psock.c:299: PT_WAIT_UNTIL(&psock->psockpt, psock_newdata(psock));
   1256 8D 82              3784 	mov	dpl,r5
   1258 8E 83              3785 	mov	dph,r6
   125A 8F F0              3786 	mov	b,r7
   125C 74 2B              3787 	mov	a,#0x2B
   125E 12s00r00           3788 	lcall	__gptrput
   1261 A3                 3789 	inc	dptr
   1262 74 01              3790 	mov	a,#0x01
   1264 12s00r00           3791 	lcall	__gptrput
   1267                    3792 00102$:
   1267 A8*00              3793 	mov	r0,_bp
   1269 08                 3794 	inc	r0
   126A 86 82              3795 	mov	dpl,@r0
   126C 08                 3796 	inc	r0
   126D 86 83              3797 	mov	dph,@r0
   126F 08                 3798 	inc	r0
   1270 86 F0              3799 	mov	b,@r0
   1272 12s0ErB4           3800 	lcall	_psock_newdata
   1275 E5 82              3801 	mov	a,dpl
   1277 70 05              3802 	jnz	00106$
   1279 F5 82              3803 	mov	dpl,a
   127B 02s13rDF           3804 	ljmp	00116$
   127E                    3805 00106$:
                           3806 ;	../../../core/net/psock.c:300: psock->state = STATE_READ;
   127E A8*00              3807 	mov	r0,_bp
   1280 08                 3808 	inc	r0
   1281 74 18              3809 	mov	a,#0x18
   1283 26                 3810 	add	a,@r0
   1284 FA                 3811 	mov	r2,a
   1285 E4                 3812 	clr	a
   1286 08                 3813 	inc	r0
   1287 36                 3814 	addc	a,@r0
   1288 FB                 3815 	mov	r3,a
   1289 08                 3816 	inc	r0
   128A 86 04              3817 	mov	ar4,@r0
   128C 8A 82              3818 	mov	dpl,r2
   128E 8B 83              3819 	mov	dph,r3
   1290 8C F0              3820 	mov	b,r4
   1292 74 02              3821 	mov	a,#0x02
   1294 12s00r00           3822 	lcall	__gptrput
                           3823 ;	../../../core/net/psock.c:301: psock->readptr = (u8_t *)uip_appdata;
   1297 A8*00              3824 	mov	r0,_bp
   1299 08                 3825 	inc	r0
   129A 74 07              3826 	mov	a,#0x07
   129C 26                 3827 	add	a,@r0
   129D FA                 3828 	mov	r2,a
   129E E4                 3829 	clr	a
   129F 08                 3830 	inc	r0
   12A0 36                 3831 	addc	a,@r0
   12A1 FB                 3832 	mov	r3,a
   12A2 08                 3833 	inc	r0
   12A3 86 04              3834 	mov	ar4,@r0
   12A5 90s00r00           3835 	mov	dptr,#_uip_appdata
   12A8 E0                 3836 	movx	a,@dptr
   12A9 FD                 3837 	mov	r5,a
   12AA A3                 3838 	inc	dptr
   12AB E0                 3839 	movx	a,@dptr
   12AC FE                 3840 	mov	r6,a
   12AD A3                 3841 	inc	dptr
   12AE E0                 3842 	movx	a,@dptr
   12AF FF                 3843 	mov	r7,a
   12B0 8A 82              3844 	mov	dpl,r2
   12B2 8B 83              3845 	mov	dph,r3
   12B4 8C F0              3846 	mov	b,r4
   12B6 ED                 3847 	mov	a,r5
   12B7 12s00r00           3848 	lcall	__gptrput
   12BA A3                 3849 	inc	dptr
   12BB EE                 3850 	mov	a,r6
   12BC 12s00r00           3851 	lcall	__gptrput
   12BF A3                 3852 	inc	dptr
   12C0 EF                 3853 	mov	a,r7
   12C1 12s00r00           3854 	lcall	__gptrput
                           3855 ;	../../../core/net/psock.c:302: psock->readlen = uip_datalen();
   12C4 A8*00              3856 	mov	r0,_bp
   12C6 08                 3857 	inc	r0
   12C7 74 0F              3858 	mov	a,#0x0F
   12C9 26                 3859 	add	a,@r0
   12CA FA                 3860 	mov	r2,a
   12CB E4                 3861 	clr	a
   12CC 08                 3862 	inc	r0
   12CD 36                 3863 	addc	a,@r0
   12CE FB                 3864 	mov	r3,a
   12CF 08                 3865 	inc	r0
   12D0 86 04              3866 	mov	ar4,@r0
   12D2 90s00r00           3867 	mov	dptr,#_uip_len
   12D5 E0                 3868 	movx	a,@dptr
   12D6 FD                 3869 	mov	r5,a
   12D7 A3                 3870 	inc	dptr
   12D8 E0                 3871 	movx	a,@dptr
   12D9 FE                 3872 	mov	r6,a
   12DA 8A 82              3873 	mov	dpl,r2
   12DC 8B 83              3874 	mov	dph,r3
   12DE 8C F0              3875 	mov	b,r4
   12E0 ED                 3876 	mov	a,r5
   12E1 12s00r00           3877 	lcall	__gptrput
   12E4 A3                 3878 	inc	dptr
   12E5 EE                 3879 	mov	a,r6
   12E6 12s00r00           3880 	lcall	__gptrput
   12E9                    3881 00109$:
                           3882 ;	../../../core/net/psock.c:306: &psock->readlen);
   12E9 A8*00              3883 	mov	r0,_bp
   12EB 08                 3884 	inc	r0
   12EC 74 0F              3885 	mov	a,#0x0F
   12EE 26                 3886 	add	a,@r0
   12EF FA                 3887 	mov	r2,a
   12F0 E4                 3888 	clr	a
   12F1 08                 3889 	inc	r0
   12F2 36                 3890 	addc	a,@r0
   12F3 FB                 3891 	mov	r3,a
   12F4 08                 3892 	inc	r0
   12F5 86 04              3893 	mov	ar4,@r0
                           3894 ;	../../../core/net/psock.c:305: &psock->readptr,
   12F7 A8*00              3895 	mov	r0,_bp
   12F9 08                 3896 	inc	r0
   12FA E5*00              3897 	mov	a,_bp
   12FC 24 04              3898 	add	a,#0x04
   12FE F9                 3899 	mov	r1,a
   12FF 74 07              3900 	mov	a,#0x07
   1301 26                 3901 	add	a,@r0
   1302 F7                 3902 	mov	@r1,a
   1303 E4                 3903 	clr	a
   1304 08                 3904 	inc	r0
   1305 36                 3905 	addc	a,@r0
   1306 09                 3906 	inc	r1
   1307 F7                 3907 	mov	@r1,a
   1308 08                 3908 	inc	r0
   1309 09                 3909 	inc	r1
   130A E6                 3910 	mov	a,@r0
   130B F7                 3911 	mov	@r1,a
                           3912 ;	../../../core/net/psock.c:304: buf_bufdata(&psock->buf, psock->bufsize,
   130C A8*00              3913 	mov	r0,_bp
   130E 08                 3914 	inc	r0
   130F 74 16              3915 	mov	a,#0x16
   1311 26                 3916 	add	a,@r0
   1312 FD                 3917 	mov	r5,a
   1313 E4                 3918 	clr	a
   1314 08                 3919 	inc	r0
   1315 36                 3920 	addc	a,@r0
   1316 FE                 3921 	mov	r6,a
   1317 08                 3922 	inc	r0
   1318 86 07              3923 	mov	ar7,@r0
   131A 8D 82              3924 	mov	dpl,r5
   131C 8E 83              3925 	mov	dph,r6
   131E 8F F0              3926 	mov	b,r7
   1320 E5*00              3927 	mov	a,_bp
   1322 24 07              3928 	add	a,#0x07
   1324 F8                 3929 	mov	r0,a
   1325 12s00r00           3930 	lcall	__gptrget
   1328 F6                 3931 	mov	@r0,a
   1329 A3                 3932 	inc	dptr
   132A 12s00r00           3933 	lcall	__gptrget
   132D 08                 3934 	inc	r0
   132E F6                 3935 	mov	@r0,a
   132F A8*00              3936 	mov	r0,_bp
   1331 08                 3937 	inc	r0
   1332 74 11              3938 	mov	a,#0x11
   1334 26                 3939 	add	a,@r0
   1335 FF                 3940 	mov	r7,a
   1336 E4                 3941 	clr	a
   1337 08                 3942 	inc	r0
   1338 36                 3943 	addc	a,@r0
   1339 FD                 3944 	mov	r5,a
   133A 08                 3945 	inc	r0
   133B 86 06              3946 	mov	ar6,@r0
   133D C0 02              3947 	push	ar2
   133F C0 03              3948 	push	ar3
   1341 C0 04              3949 	push	ar4
   1343 E5*00              3950 	mov	a,_bp
   1345 24 04              3951 	add	a,#0x04
   1347 F8                 3952 	mov	r0,a
   1348 E6                 3953 	mov	a,@r0
   1349 C0 E0              3954 	push	acc
   134B 08                 3955 	inc	r0
   134C E6                 3956 	mov	a,@r0
   134D C0 E0              3957 	push	acc
   134F 08                 3958 	inc	r0
   1350 E6                 3959 	mov	a,@r0
   1351 C0 E0              3960 	push	acc
   1353 E5*00              3961 	mov	a,_bp
   1355 24 07              3962 	add	a,#0x07
   1357 F8                 3963 	mov	r0,a
   1358 E6                 3964 	mov	a,@r0
   1359 C0 E0              3965 	push	acc
   135B 08                 3966 	inc	r0
   135C E6                 3967 	mov	a,@r0
   135D C0 E0              3968 	push	acc
   135F 8F 82              3969 	mov	dpl,r7
   1361 8D 83              3970 	mov	dph,r5
   1363 8E F0              3971 	mov	b,r6
   1365 12s00r3F           3972 	lcall	_buf_bufdata
   1368 E5 81              3973 	mov	a,sp
   136A 24 F8              3974 	add	a,#0xf8
   136C F5 81              3975 	mov	sp,a
                           3976 ;	../../../core/net/psock.c:308: if(psock_datalen(psock) == 0) {
   136E A8*00              3977 	mov	r0,_bp
   1370 08                 3978 	inc	r0
   1371 86 82              3979 	mov	dpl,@r0
   1373 08                 3980 	inc	r0
   1374 86 83              3981 	mov	dph,@r0
   1376 08                 3982 	inc	r0
   1377 86 F0              3983 	mov	b,@r0
   1379 12s0Er6E           3984 	lcall	_psock_datalen
   137C E5 82              3985 	mov	a,dpl
   137E 85 83 F0           3986 	mov	b,dph
   1381 45 F0              3987 	orl	a,b
   1383 70 3A              3988 	jnz	00115$
                           3989 ;	../../../core/net/psock.c:309: psock->state = STATE_NONE;
   1385 A8*00              3990 	mov	r0,_bp
   1387 08                 3991 	inc	r0
   1388 74 18              3992 	mov	a,#0x18
   138A 26                 3993 	add	a,@r0
   138B FA                 3994 	mov	r2,a
   138C E4                 3995 	clr	a
   138D 08                 3996 	inc	r0
   138E 36                 3997 	addc	a,@r0
   138F FB                 3998 	mov	r3,a
   1390 08                 3999 	inc	r0
   1391 86 04              4000 	mov	ar4,@r0
   1393 8A 82              4001 	mov	dpl,r2
   1395 8B 83              4002 	mov	dph,r3
   1397 8C F0              4003 	mov	b,r4
   1399 E4                 4004 	clr	a
   139A 12s00r00           4005 	lcall	__gptrput
                           4006 ;	../../../core/net/psock.c:310: PT_RESTART(&psock->psockpt);
   139D A8*00              4007 	mov	r0,_bp
   139F 08                 4008 	inc	r0
   13A0 74 02              4009 	mov	a,#0x02
   13A2 26                 4010 	add	a,@r0
   13A3 FA                 4011 	mov	r2,a
   13A4 E4                 4012 	clr	a
   13A5 08                 4013 	inc	r0
   13A6 36                 4014 	addc	a,@r0
   13A7 FB                 4015 	mov	r3,a
   13A8 08                 4016 	inc	r0
   13A9 86 04              4017 	mov	ar4,@r0
   13AB 8A 82              4018 	mov	dpl,r2
   13AD 8B 83              4019 	mov	dph,r3
   13AF 8C F0              4020 	mov	b,r4
   13B1 E4                 4021 	clr	a
   13B2 12s00r00           4022 	lcall	__gptrput
   13B5 A3                 4023 	inc	dptr
   13B6 E4                 4024 	clr	a
   13B7 12s00r00           4025 	lcall	__gptrput
   13BA 75 82 00           4026 	mov	dpl,#0x00
                           4027 ;	../../../core/net/psock.c:312: PT_END(&psock->psockpt);
   13BD 80 20              4028 	sjmp	00116$
   13BF                    4029 00115$:
   13BF A8*00              4030 	mov	r0,_bp
   13C1 08                 4031 	inc	r0
   13C2 74 02              4032 	mov	a,#0x02
   13C4 26                 4033 	add	a,@r0
   13C5 FA                 4034 	mov	r2,a
   13C6 E4                 4035 	clr	a
   13C7 08                 4036 	inc	r0
   13C8 36                 4037 	addc	a,@r0
   13C9 FB                 4038 	mov	r3,a
   13CA 08                 4039 	inc	r0
   13CB 86 04              4040 	mov	ar4,@r0
   13CD 8A 82              4041 	mov	dpl,r2
   13CF 8B 83              4042 	mov	dph,r3
   13D1 8C F0              4043 	mov	b,r4
   13D3 E4                 4044 	clr	a
   13D4 12s00r00           4045 	lcall	__gptrput
   13D7 A3                 4046 	inc	dptr
   13D8 E4                 4047 	clr	a
   13D9 12s00r00           4048 	lcall	__gptrput
   13DC 75 82 03           4049 	mov	dpl,#0x03
   13DF                    4050 00116$:
   13DF 85*00 81           4051 	mov	sp,_bp
   13E2 D0*00              4052 	pop	_bp
   13E4 22                 4053 	ret
                           4054 ;------------------------------------------------------------
                           4055 ;Allocation info for local variables in function 'psock_init'
                           4056 ;------------------------------------------------------------
                           4057 ;buffer                    Allocated to stack - offset -5
                           4058 ;buffersize                Allocated to stack - offset -7
                           4059 ;psock                     Allocated to registers r2 r3 r4 
                           4060 ;------------------------------------------------------------
                           4061 ;	../../../core/net/psock.c:316: psock_init(CC_REGISTER_ARG struct psock *psock,
                           4062 ;	-----------------------------------------
                           4063 ;	 function psock_init
                           4064 ;	-----------------------------------------
   13E5                    4065 _psock_init:
   13E5 C0*00              4066 	push	_bp
   13E7 85 81*00           4067 	mov	_bp,sp
   13EA AA 82              4068 	mov	r2,dpl
   13EC AB 83              4069 	mov	r3,dph
   13EE AC F0              4070 	mov	r4,b
                           4071 ;	../../../core/net/psock.c:319: psock->state = STATE_NONE;
   13F0 74 18              4072 	mov	a,#0x18
   13F2 2A                 4073 	add	a,r2
   13F3 FD                 4074 	mov	r5,a
   13F4 E4                 4075 	clr	a
   13F5 3B                 4076 	addc	a,r3
   13F6 FE                 4077 	mov	r6,a
   13F7 8C 07              4078 	mov	ar7,r4
   13F9 8D 82              4079 	mov	dpl,r5
   13FB 8E 83              4080 	mov	dph,r6
   13FD 8F F0              4081 	mov	b,r7
   13FF E4                 4082 	clr	a
   1400 12s00r00           4083 	lcall	__gptrput
                           4084 ;	../../../core/net/psock.c:320: psock->readlen = 0;
   1403 74 0F              4085 	mov	a,#0x0F
   1405 2A                 4086 	add	a,r2
   1406 FD                 4087 	mov	r5,a
   1407 E4                 4088 	clr	a
   1408 3B                 4089 	addc	a,r3
   1409 FE                 4090 	mov	r6,a
   140A 8C 07              4091 	mov	ar7,r4
   140C 8D 82              4092 	mov	dpl,r5
   140E 8E 83              4093 	mov	dph,r6
   1410 8F F0              4094 	mov	b,r7
   1412 E4                 4095 	clr	a
   1413 12s00r00           4096 	lcall	__gptrput
   1416 A3                 4097 	inc	dptr
   1417 E4                 4098 	clr	a
   1418 12s00r00           4099 	lcall	__gptrput
                           4100 ;	../../../core/net/psock.c:321: psock->bufptr = buffer;
   141B 74 0A              4101 	mov	a,#0x0A
   141D 2A                 4102 	add	a,r2
   141E FD                 4103 	mov	r5,a
   141F E4                 4104 	clr	a
   1420 3B                 4105 	addc	a,r3
   1421 FE                 4106 	mov	r6,a
   1422 8C 07              4107 	mov	ar7,r4
   1424 8D 82              4108 	mov	dpl,r5
   1426 8E 83              4109 	mov	dph,r6
   1428 8F F0              4110 	mov	b,r7
   142A E5*00              4111 	mov	a,_bp
   142C 24 FB              4112 	add	a,#0xfb
   142E F8                 4113 	mov	r0,a
   142F E6                 4114 	mov	a,@r0
   1430 12s00r00           4115 	lcall	__gptrput
   1433 A3                 4116 	inc	dptr
   1434 08                 4117 	inc	r0
   1435 E6                 4118 	mov	a,@r0
   1436 12s00r00           4119 	lcall	__gptrput
   1439 A3                 4120 	inc	dptr
   143A 08                 4121 	inc	r0
   143B E6                 4122 	mov	a,@r0
   143C 12s00r00           4123 	lcall	__gptrput
                           4124 ;	../../../core/net/psock.c:322: psock->bufsize = buffersize;
   143F 74 16              4125 	mov	a,#0x16
   1441 2A                 4126 	add	a,r2
   1442 FD                 4127 	mov	r5,a
   1443 E4                 4128 	clr	a
   1444 3B                 4129 	addc	a,r3
   1445 FE                 4130 	mov	r6,a
   1446 8C 07              4131 	mov	ar7,r4
   1448 8D 82              4132 	mov	dpl,r5
   144A 8E 83              4133 	mov	dph,r6
   144C 8F F0              4134 	mov	b,r7
   144E E5*00              4135 	mov	a,_bp
   1450 24 F9              4136 	add	a,#0xf9
   1452 F8                 4137 	mov	r0,a
   1453 E6                 4138 	mov	a,@r0
   1454 12s00r00           4139 	lcall	__gptrput
   1457 A3                 4140 	inc	dptr
   1458 08                 4141 	inc	r0
   1459 E6                 4142 	mov	a,@r0
   145A 12s00r00           4143 	lcall	__gptrput
                           4144 ;	../../../core/net/psock.c:323: buf_setup(&psock->buf, buffer, buffersize);
   145D 74 11              4145 	mov	a,#0x11
   145F 2A                 4146 	add	a,r2
   1460 FD                 4147 	mov	r5,a
   1461 E4                 4148 	clr	a
   1462 3B                 4149 	addc	a,r3
   1463 FE                 4150 	mov	r6,a
   1464 8C 07              4151 	mov	ar7,r4
   1466 C0 02              4152 	push	ar2
   1468 C0 03              4153 	push	ar3
   146A C0 04              4154 	push	ar4
   146C E5*00              4155 	mov	a,_bp
   146E 24 F9              4156 	add	a,#0xf9
   1470 F8                 4157 	mov	r0,a
   1471 E6                 4158 	mov	a,@r0
   1472 C0 E0              4159 	push	acc
   1474 08                 4160 	inc	r0
   1475 E6                 4161 	mov	a,@r0
   1476 C0 E0              4162 	push	acc
   1478 E5*00              4163 	mov	a,_bp
   147A 24 FB              4164 	add	a,#0xfb
   147C F8                 4165 	mov	r0,a
   147D E6                 4166 	mov	a,@r0
   147E C0 E0              4167 	push	acc
   1480 08                 4168 	inc	r0
   1481 E6                 4169 	mov	a,@r0
   1482 C0 E0              4170 	push	acc
   1484 08                 4171 	inc	r0
   1485 E6                 4172 	mov	a,@r0
   1486 C0 E0              4173 	push	acc
   1488 8D 82              4174 	mov	dpl,r5
   148A 8E 83              4175 	mov	dph,r6
   148C 8F F0              4176 	mov	b,r7
   148E 12s00r00           4177 	lcall	_buf_setup
   1491 E5 81              4178 	mov	a,sp
   1493 24 FB              4179 	add	a,#0xfb
   1495 F5 81              4180 	mov	sp,a
   1497 D0 04              4181 	pop	ar4
   1499 D0 03              4182 	pop	ar3
   149B D0 02              4183 	pop	ar2
                           4184 ;	../../../core/net/psock.c:324: PT_INIT(&psock->pt);
   149D 8A 82              4185 	mov	dpl,r2
   149F 8B 83              4186 	mov	dph,r3
   14A1 8C F0              4187 	mov	b,r4
   14A3 E4                 4188 	clr	a
   14A4 12s00r00           4189 	lcall	__gptrput
   14A7 A3                 4190 	inc	dptr
   14A8 E4                 4191 	clr	a
   14A9 12s00r00           4192 	lcall	__gptrput
                           4193 ;	../../../core/net/psock.c:325: PT_INIT(&psock->psockpt);
   14AC 74 02              4194 	mov	a,#0x02
   14AE 2A                 4195 	add	a,r2
   14AF FA                 4196 	mov	r2,a
   14B0 E4                 4197 	clr	a
   14B1 3B                 4198 	addc	a,r3
   14B2 FB                 4199 	mov	r3,a
   14B3 8A 82              4200 	mov	dpl,r2
   14B5 8B 83              4201 	mov	dph,r3
   14B7 8C F0              4202 	mov	b,r4
   14B9 E4                 4203 	clr	a
   14BA 12s00r00           4204 	lcall	__gptrput
   14BD A3                 4205 	inc	dptr
   14BE E4                 4206 	clr	a
   14BF 12s00r00           4207 	lcall	__gptrput
   14C2 D0*00              4208 	pop	_bp
   14C4 22                 4209 	ret
                           4210 	.area CSEG    (CODE)
                           4211 	.area CONST   (CODE)
                           4212 	.area XINIT   (CODE)
                           4213 	.area CABS    (ABS,CODE)
